(dp0
I0
F0.0
sI1
F0.0
sI2
F0.0
sI3
F0.0
sI4
F0.0
sI5
F0.0
sI6
F0.0
sI7
F1.0
sI8
F16.0
sI9
F0.0
sI10
F0.0
sI11
F0.0
sI12
F0.0
sI13
F1.0
sI14
F0.0
sI15
F0.0
sI16
F0.0
sI17
F3.0
sI18
F0.0
sI19
F0.0
sI20
F6.0
sI21
F2.0
sI22
F0.0
sI23
F0.0
sI24
F1.0
sI25
F1.0
sI26
F7.0
sI27
F0.0
sI28
F0.0
sI29
F0.0
sI30
F0.0
sI31
F0.0
sI32
F0.0
sI33
F0.0
sI34
F0.0
sI35
F0.0
sI36
F3.0
sI37
F0.0
sI38
F0.0
sI39
F0.0
sI40
F1.0
sI41
F0.0
sI42
F27.0
sI43
F0.0
sI44
F0.0
sI45
F0.0
sI46
F0.0
sI47
F0.0
sI48
F1.0
sI49
F0.0
sI50
F0.0
sI51
F0.0
sI52
F0.0
sI53
F0.0
sI54
F0.0
sI55
F0.0
sI56
F0.0
sI57
F0.0
sI58
F1.0
sI59
F1.0
sI60
F0.0
sI61
F0.0
sI62
F0.0
sI63
F1.0
sI64
F0.0
sI65
F2.0
sI66
F1.0
sI67
F0.0
sI68
F0.0
sI69
F0.0
sI70
F0.0
sI71
F0.0
sI72
F1.0
sI73
F0.0
sI74
F0.0
sI75
F2.0
sI76
F0.0
sI77
F2.0
sI78
F0.0
sI79
F4.0
sI80
F0.0
sI81
F0.0
sI82
F0.0
sI83
F0.0
sI84
F1.0
sI85
F0.0
sI86
F0.0
sI87
F0.0
sI88
F0.0
sI89
F0.0
sI90
F0.0
sI91
F7.0
sI92
F0.0
sI93
F0.0
sI94
F0.0
sI95
F20.0
sI96
F1.0
sI97
F0.0
sI98
F0.0
sI99
F0.0
sI100
F0.0
sI101
F0.0
sI102
F0.0
sI103
F1.0
sI104
F0.0
sI105
F0.0
sI106
F2.0
sI107
F0.0
sI108
F1.0
sI109
F6.0
sI110
F7.0
sI111
F0.0
sI112
F0.0
sI113
F11.0
sI114
F0.0
sI115
F0.0
sI116
F0.0
sI117
F0.0
sI118
F0.0
sI119
F0.0
sI120
F0.0
sI121
F0.0
sI122
F0.0
sI123
F1.0
sI124
F0.0
sI125
F0.0
sI126
F0.0
sI127
F0.0
sI128
F0.0
sI129
F1.0
sI130
F0.0
sI131
F12.0
sI132
F8.0
sI133
F0.0
sI134
F2.0
sI135
F4.0
sI136
F14.0
sI137
F0.0
sI138
F0.0
sI139
F0.0
sI140
F0.0
sI141
F4.0
sI142
F1.0
sI143
F0.0
sI144
F0.0
sI145
F0.0
sI146
F1.0
sI147
F0.0
sI148
F0.0
sI149
F0.0
sI150
F0.0
sI151
F1.0
sI152
F33.0
sI153
F0.0
sI154
F0.0
sI155
F0.0
sI156
F1.0
sI157
F0.0
sI158
F2.0
sI159
F0.0
sI160
F1.0
sI161
F0.0
sI162
F0.0
sI163
F0.0
sI164
F0.0
sI165
F0.0
sI166
F2.0
sI167
F0.0
sI168
F0.0
sI169
F0.0
sI170
F0.0
sI171
F0.0
sI172
F0.0
sI173
F0.0
sI174
F5.0
sI175
F0.0
sI176
F0.0
sI177
F0.0
sI178
F0.0
sI179
F0.0
sI180
F0.0
sI181
F1.0
sI182
F0.0
sI183
F0.0
sI184
F0.0
sI185
F0.0
sI186
F0.0
sI187
F1.0
sI188
F0.0
sI189
F0.0
sI190
F0.0
sI191
F0.0
sI192
F2.0
sI193
F2.0
sI194
F1.0
sI195
F0.0
sI196
F0.0
sI197
F0.0
sI198
F4.0
sI199
F0.0
sI200
F0.0
sI201
F1.0
sI202
F2.0
sI203
F1.0
sI204
F0.0
sI205
F10.0
sI206
F0.0
sI207
F1.0
sI208
F0.0
sI209
F0.0
sI210
F2.0
sI211
F13.0
sI212
F0.0
sI213
F0.0
sI214
F0.0
sI215
F0.0
sI216
F0.0
sI217
F8.0
sI218
F0.0
sI219
F0.0
sI220
F0.0
sI221
F1.0
sI222
F0.0
sI223
F1.0
sI224
F1.0
sI225
F0.0
sI226
F0.0
sI227
F0.0
sI228
F0.0
sI229
F0.0
sI230
F2.0
sI231
F0.0
sI232
F0.0
sI233
F0.0
sI234
F0.0
sI235
F0.0
sI236
F2.0
sI237
F0.0
sI238
F1.0
sI239
F0.0
sI240
F4.0
sI241
F0.0
sI242
F1.0
sI243
F0.0
sI244
F0.0
sI245
F0.0
sI246
F92.0
sI247
F2.0
sI248
F0.0
sI249
F0.0
sI250
F1.0
sI251
F15.0
sI252
F0.0
sI253
F1.0
sI254
F0.0
sI255
F0.0
sI256
F9.0
sI257
F0.0
sI258
F1.0
sI259
F0.0
sI260
F0.0
sI261
F0.0
sI262
F0.0
sI263
F0.0
sI264
F0.0
sI265
F0.0
sI266
F1.0
sI267
F0.0
sI268
F0.0
sI269
F0.0
sI270
F14.0
sI271
F0.0
sI272
F0.0
sI273
F6.0
sI274
F0.0
sI275
F1.0
sI276
F0.0
sI277
F1.0
sI278
F0.0
sI279
F2.0
sI280
F1.0
sI281
F0.0
sI282
F0.0
sI283
F1.0
sI284
F0.0
sI285
F2.0
sI286
F0.0
sI287
F12.0
sI288
F0.0
sI289
F0.0
sI290
F0.0
sI291
F0.0
sI292
F0.0
sI293
F4.0
sI294
F0.0
sI295
F3.0
sI296
F1.0
sI297
F0.0
sI298
F0.0
sI299
F0.0
sI300
F0.0
sI301
F0.0
sI302
F1.0
sI303
F0.0
sI304
F0.0
sI305
F0.0
sI306
F4.0
sI307
F0.0
sI308
F0.0
sI309
F3.0
sI310
F0.0
sI311
F4.0
sI312
F0.0
sI313
F1.0
sI314
F0.0
sI315
F1.0
sI316
F7.0
sI317
F0.0
sI318
F0.0
sI319
F0.0
sI320
F1.0
sI321
F0.0
sI322
F0.0
sI323
F3.0
sI324
F0.0
sI325
F4.0
sI326
F1.0
sI327
F0.0
sI328
F0.0
sI329
F0.0
sI330
F0.0
sI331
F0.0
sI332
F0.0
sI333
F0.0
sI334
F0.0
sI335
F0.0
sI336
F0.0
sI337
F0.0
sI338
F0.0
sI339
F6.0
sI340
F0.0
sI341
F0.0
sI342
F0.0
sI343
F0.0
sI344
F3.0
sI345
F0.0
sI346
F0.0
sI347
F1.0
sI348
F3.0
sI349
F0.0
sI350
F0.0
sI351
F0.0
sI352
F2.0
sI353
F1.0
sI354
F2.0
sI355
F5.0
sI356
F0.0
sI357
F0.0
sI358
F1.0
sI359
F0.0
sI360
F0.0
sI361
F0.0
sI362
F1.0
sI363
F0.0
sI364
F1.0
sI365
F1.0
sI366
F0.0
sI367
F0.0
sI368
F0.0
sI369
F3.0
sI370
F1.0
sI371
F0.0
sI372
F0.0
sI373
F0.0
sI374
F139.0
sI375
F0.0
sI376
F1.0
sI377
F84.0
sI378
F10.0
sI379
F0.0
sI380
F0.0
sI381
F0.0
sI382
F28.0
sI383
F0.0
sI384
F0.0
sI385
F0.0
sI386
F0.0
sI387
F0.0
sI388
F0.0
sI389
F0.0
sI390
F1.0
sI391
F0.0
sI392
F0.0
sI393
F0.0
sI394
F0.0
sI395
F32.0
sI396
F1.0
sI397
F0.0
sI398
F0.0
sI399
F2.0
sI400
F204.0
sI401
F0.0
sI402
F0.0
sI403
F1.0
sI404
F1.0
sI405
F1.0
sI406
F1.0
sI407
F0.0
sI408
F0.0
sI409
F2.0
sI410
F0.0
sI411
F0.0
sI412
F20.0
sI413
F16.0
sI414
F0.0
sI415
F4.0
sI416
F15.0
sI417
F0.0
sI418
F0.0
sI419
F0.0
sI420
F33.0
sI421
F1.0
sI422
F0.0
sI423
F2.0
sI424
F0.0
sI425
F0.0
sI426
F1.0
sI427
F1.0
sI428
F3.0
sI429
F7.0
sI430
F0.0
sI431
F0.0
sI432
F0.0
sI433
F0.0
sI434
F0.0
sI435
F0.0
sI436
F0.0
sI437
F2.0
sI438
F0.0
sI439
F0.0
sI440
F12.0
sI441
F1.0
sI442
F0.0
sI443
F0.0
sI444
F0.0
sI445
F0.0
sI446
F0.0
sI447
F1.0
sI448
F0.0
sI449
F0.0
sI450
F0.0
sI451
F0.0
sI452
F0.0
sI453
F0.0
sI454
F0.0
sI455
F0.0
sI456
F0.0
sI457
F0.0
sI458
F0.0
sI459
F2.0
sI460
F0.0
sI461
F0.0
sI462
F0.0
sI463
F0.0
sI464
F0.0
sI465
F1.0
sI466
F0.0
sI467
F0.0
sI468
F0.0
sI469
F0.0
sI470
F0.0
sI471
F0.0
sI472
F0.0
sI473
F0.0
sI474
F3.0
sI475
F0.0
sI476
F0.0
sI477
F1.0
sI478
F0.0
sI479
F0.0
sI480
F0.0
sI481
F1.0
sI482
F0.0
sI483
F0.0
sI484
F0.0
sI485
F1.0
sI486
F3.0
sI487
F3.0
sI488
F0.0
sI489
F2.0
sI490
F0.0
sI491
F1.0
sI492
F0.0
sI493
F0.0
sI494
F2.0
sI495
F0.0
sI496
F0.0
sI497
F3.0
sI498
F5.0
sI499
F1.0
sI500
F1.0
sI501
F1.0
sI502
F0.0
sI503
F0.0
sI504
F0.0
sI505
F2.0
sI506
F0.0
sI507
F0.0
sI508
F0.0
sI509
F0.0
sI510
F5.0
sI511
F0.0
sI512
F1.0
sI513
F0.0
sI514
F1.0
sI515
F0.0
sI516
F0.0
sI517
F0.0
sI518
F0.0
sI519
F2.0
sI520
F0.0
sI521
F0.0
sI522
F0.0
sI523
F2.0
sI524
F0.0
sI525
F1.0
sI526
F7.0
sI527
F0.0
sI528
F23.0
sI529
F0.0
sI530
F1.0
sI531
F6.0
sI532
F0.0
sI533
F0.0
sI534
F1.0
sI535
F0.0
sI536
F0.0
sI537
F2.0
sI538
F0.0
sI539
F0.0
sI540
F0.0
sI541
F0.0
sI542
F0.0
sI543
F0.0
sI544
F0.0
sI545
F0.0
sI546
F0.0
sI547
F1.0
sI548
F3.0
sI549
F0.0
sI550
F0.0
sI551
F1.0
sI552
F0.0
sI553
F79.0
sI554
F0.0
sI555
F0.0
sI556
F2.0
sI557
F5.0
sI558
F1.0
sI559
F1.0
sI560
F0.0
sI561
F0.0
sI562
F0.0
sI563
F1.0
sI564
F1.0
sI565
F0.0
sI566
F0.0
sI567
F0.0
sI568
F0.0
sI569
F738.0
sI570
F2.0
sI571
F0.0
sI572
F0.0
sI573
F19.0
sI574
F0.0
sI575
F0.0
sI576
F3.0
sI577
F0.0
sI578
F0.0
sI579
F0.0
sI580
F0.0
sI581
F0.0
sI582
F0.0
sI583
F0.0
sI584
F0.0
sI585
F0.0
sI586
F1.0
sI587
F0.0
sI588
F6.0
sI589
F0.0
sI590
F0.0
sI591
F0.0
sI592
F0.0
sI593
F1.0
sI594
F0.0
sI595
F0.0
sI596
F0.0
sI597
F1.0
sI598
F0.0
sI599
F0.0
sI600
F0.0
sI601
F0.0
sI602
F0.0
sI603
F1.0
sI604
F1.0
sI605
F1.0
sI606
F0.0
sI607
F0.0
sI608
F1.0
sI609
F0.0
sI610
F1.0
sI611
F0.0
sI612
F0.0
sI613
F3.0
sI614
F7.0
sI615
F0.0
sI616
F0.0
sI617
F2.0
sI618
F0.0
sI619
F0.0
sI620
F0.0
sI621
F0.0
sI622
F2.0
sI623
F0.0
sI624
F7.0
sI625
F0.0
sI626
F0.0
sI627
F0.0
sI628
F0.0
sI629
F0.0
sI630
F0.0
sI631
F1.0
sI632
F2.0
sI633
F0.0
sI634
F0.0
sI635
F0.0
sI636
F0.0
sI637
F3.0
sI638
F1.0
sI639
F60.0
sI640
F53.0
sI641
F0.0
sI642
F0.0
sI643
F0.0
sI644
F0.0
sI645
F0.0
sI646
F0.0
sI647
F1.0
sI648
F3.0
sI649
F10.0
sI650
F1.0
sI651
F0.0
sI652
F0.0
sI653
F1.0
sI654
F0.0
sI655
F0.0
sI656
F0.0
sI657
F8.0
sI658
F1.0
sI659
F1.0
sI660
F0.0
sI661
F0.0
sI662
F0.0
sI663
F0.0
sI664
F2.0
sI665
F0.0
sI666
F0.0
sI667
F0.0
sI668
F0.0
sI669
F0.0
sI670
F2.0
sI671
F1.0
sI672
F2.0
sI673
F0.0
sI674
F1.0
sI675
F1.0
sI676
F0.0
sI677
F0.0
sI678
F0.0
sI679
F0.0
sI680
F0.0
sI681
F1.0
sI682
F0.0
sI683
F2.0
sI684
F0.0
sI685
F0.0
sI686
F1.0
sI687
F1.0
sI688
F0.0
sI689
F0.0
sI690
F1.0
sI691
F0.0
sI692
F0.0
sI693
F3.0
sI694
F0.0
sI695
F0.0
sI696
F0.0
sI697
F0.0
sI698
F0.0
sI699
F0.0
sI700
F0.0
sI701
F0.0
sI702
F0.0
sI703
F0.0
sI704
F1.0
sI705
F8.0
sI706
F0.0
sI707
F0.0
sI708
F5.0
sI709
F0.0
sI710
F0.0
sI711
F0.0
sI712
F0.0
sI713
F1.0
sI714
F0.0
sI715
F0.0
sI716
F0.0
sI717
F0.0
sI718
F3.0
sI719
F0.0
sI720
F0.0
sI721
F0.0
sI722
F1.0
sI723
F1.0
sI724
F1.0
sI725
F0.0
sI726
F0.0
sI727
F0.0
sI728
F0.0
sI729
F0.0
sI730
F0.0
sI731
F0.0
sI732
F0.0
sI733
F0.0
sI734
F1.0
sI735
F0.0
sI736
F0.0
sI737
F2.0
sI738
F0.0
sI739
F0.0
sI740
F0.0
sI741
F0.0
sI742
F1.0
sI743
F0.0
sI744
F0.0
sI745
F0.0
sI746
F0.0
sI747
F0.0
sI748
F1.0
sI749
F0.0
sI750
F0.0
sI751
F0.0
sI752
F0.0
sI753
F0.0
sI754
F0.0
sI755
F0.0
sI756
F0.0
sI757
F0.0
sI758
F149.0
sI759
F0.0
sI760
F0.0
sI761
F0.0
sI762
F0.0
sI763
F0.0
sI764
F0.0
sI765
F0.0
sI766
F0.0
sI767
F0.0
sI768
F2.0
sI769
F0.0
sI770
F0.0
sI771
F0.0
sI772
F0.0
sI773
F0.0
sI774
F0.0
sI775
F0.0
sI776
F0.0
sI777
F0.0
sI778
F0.0
sI779
F0.0
sI780
F2.0
sI781
F0.0
sI782
F0.0
sI783
F0.0
sI784
F0.0
sI785
F4.0
sI786
F13.0
sI787
F0.0
sI788
F0.0
sI789
F1.0
sI790
F0.0
sI791
F0.0
sI792
F0.0
sI793
F0.0
sI794
F0.0
sI795
F0.0
sI796
F10.0
sI797
F0.0
sI798
F0.0
sI799
F0.0
sI800
F0.0
sI801
F0.0
sI802
F0.0
sI803
F0.0
sI804
F0.0
sI805
F0.0
sI806
F0.0
sI807
F0.0
sI808
F0.0
sI809
F0.0
sI810
F1.0
sI811
F0.0
sI812
F0.0
sI813
F0.0
sI814
F1.0
sI815
F0.0
sI816
F0.0
sI817
F0.0
sI818
F0.0
sI819
F0.0
sI820
F0.0
sI821
F0.0
sI822
F0.0
sI823
F3.0
sI824
F0.0
sI825
F0.0
sI826
F0.0
sI827
F0.0
sI828
F0.0
sI829
F0.0
sI830
F3.0
sI831
F0.0
sI832
F1.0
sI833
F4.0
sI834
F1.0
sI835
F202.0
sI836
F1.0
sI837
F0.0
sI838
F0.0
sI839
F0.0
sI840
F0.0
sI841
F0.0
sI842
F1.0
sI843
F0.0
sI844
F11.0
sI845
F0.0
sI846
F0.0
sI847
F0.0
sI848
F0.0
sI849
F0.0
sI850
F0.0
sI851
F0.0
sI852
F1.0
sI853
F0.0
sI854
F0.0
sI855
F0.0
sI856
F0.0
sI857
F2.0
sI858
F0.0
sI859
F0.0
sI860
F0.0
sI861
F2.0
sI862
F0.0
sI863
F1.0
sI864
F0.0
sI865
F0.0
sI866
F0.0
sI867
F0.0
sI868
F1.0
sI869
F0.0
sI870
F0.0
sI871
F0.0
sI872
F0.0
sI873
F2.0
sI874
F0.0
sI875
F0.0
sI876
F0.0
sI877
F0.0
sI878
F57.0
sI879
F0.0
sI880
F1.0
sI881
F0.0
sI882
F0.0
sI883
F0.0
sI884
F0.0
sI885
F0.0
sI886
F0.0
sI887
F1.0
sI888
F0.0
sI889
F0.0
sI890
F0.0
sI891
F0.0
sI892
F0.0
sI893
F0.0
sI894
F0.0
sI895
F0.0
sI896
F13.0
sI897
F4.0
sI898
F0.0
sI899
F0.0
sI900
F0.0
sI901
F0.0
sI902
F0.0
sI903
F0.0
sI904
F0.0
sI905
F0.0
sI906
F0.0
sI907
F3.0
sI908
F0.0
sI909
F21.0
sI910
F0.0
sI911
F0.0
sI912
F0.0
sI913
F0.0
sI914
F0.0
sI915
F2.0
sI916
F0.0
sI917
F1.0
sI918
F0.0
sI919
F0.0
sI920
F0.0
sI921
F0.0
sI922
F14.0
sI923
F0.0
sI924
F1.0
sI925
F3.0
sI926
F0.0
sI927
F0.0
sI928
F0.0
sI929
F8.0
sI930
F0.0
sI931
F1.0
sI932
F0.0
sI933
F2.0
sI934
F0.0
sI935
F0.0
sI936
F1.0
sI937
F1.0
sI938
F0.0
sI939
F0.0
sI940
F0.0
sI941
F0.0
sI942
F0.0
sI943
F0.0
sI944
F2.0
sI945
F0.0
sI946
F0.0
sI947
F0.0
sI948
F8.0
sI949
F0.0
sI950
F2.0
sI951
F0.0
sI952
F8.0
sI953
F0.0
sI954
F6.0
sI955
F1.0
sI956
F0.0
sI957
F0.0
sI958
F0.0
sI959
F0.0
sI960
F0.0
sI961
F0.0
sI962
F0.0
sI963
F0.0
sI964
F0.0
sI965
F0.0
sI966
F0.0
sI967
F0.0
sI968
F0.0
sI969
F1.0
sI970
F0.0
sI971
F0.0
sI972
F0.0
sI973
F0.0
sI974
F0.0
sI975
F0.0
sI976
F0.0
sI977
F0.0
sI978
F2.0
sI979
F3.0
sI980
F0.0
sI981
F4.0
sI982
F0.0
sI983
F0.0
sI984
F0.0
sI985
F0.0
sI986
F0.0
sI987
F1.0
sI988
F0.0
sI989
F0.0
sI990
F0.0
sI991
F0.0
sI992
F0.0
sI993
F0.0
sI994
F0.0
sI995
F1.0
sI996
F0.0
sI997
F0.0
sI998
F0.0
sI999
F0.0
sI1000
F0.0
sI1001
F0.0
sI1002
F0.0
sI1003
F0.0
sI1004
F3.0
sI1005
F0.0
sI1006
F0.0
sI1007
F0.0
sI1008
F0.0
sI1009
F1.0
sI1010
F1.0
sI1011
F0.0
sI1012
F0.0
sI1013
F0.0
sI1014
F0.0
sI1015
F0.0
sI1016
F0.0
sI1017
F0.0
sI1018
F0.0
sI1019
F0.0
sI1020
F0.0
sI1021
F0.0
sI1022
F0.0
sI1023
F2.0
sI1024
F0.0
sI1025
F0.0
sI1026
F0.0
sI1027
F0.0
sI1028
F0.0
sI1029
F2.0
sI1030
F0.0
sI1031
F0.0
sI1032
F0.0
sI1033
F2.0
sI1034
F267.0
sI1035
F4.0
sI1036
F0.0
sI1037
F0.0
sI1038
F0.0
sI1039
F0.0
sI1040
F0.0
sI1041
F5.0
sI1042
F0.0
sI1043
F0.0
sI1044
F0.0
sI1045
F0.0
sI1046
F0.0
sI1047
F0.0
sI1048
F1.0
sI1049
F0.0
sI1050
F0.0
sI1051
F0.0
sI1052
F0.0
sI1053
F0.0
sI1054
F0.0
sI1055
F0.0
sI1056
F0.0
sI1057
F0.0
sI1058
F0.0
sI1059
F0.0
sI1060
F0.0
sI1061
F0.0
sI1062
F0.0
sI1063
F0.0
sI1064
F1.0
sI1065
F0.0
sI1066
F0.0
sI1067
F0.0
sI1068
F0.0
sI1069
F0.0
sI1070
F0.0
sI1071
F0.0
sI1072
F0.0
sI1073
F1.0
sI1074
F1.0
sI1075
F0.0
sI1076
F0.0
sI1077
F0.0
sI1078
F0.0
sI1079
F0.0
sI1080
F0.0
sI1081
F0.0
sI1082
F2.0
sI1083
F0.0
sI1084
F1.0
sI1085
F0.0
sI1086
F0.0
sI1087
F0.0
sI1088
F1.0
sI1089
F0.0
sI1090
F2.0
sI1091
F0.0
sI1092
F0.0
sI1093
F0.0
sI1094
F3.0
sI1095
F0.0
sI1096
F0.0
sI1097
F0.0
sI1098
F5.0
sI1099
F0.0
sI1100
F0.0
sI1101
F0.0
sI1102
F0.0
sI1103
F0.0
sI1104
F0.0
sI1105
F0.0
sI1106
F0.0
sI1107
F0.0
sI1108
F0.0
sI1109
F0.0
sI1110
F0.0
sI1111
F6.0
sI1112
F0.0
sI1113
F0.0
sI1114
F0.0
sI1115
F10.0
sI1116
F140.0
sI1117
F1.0
sI1118
F0.0
sI1119
F2.0
sI1120
F1.0
sI1121
F0.0
sI1122
F0.0
sI1123
F1.0
sI1124
F0.0
sI1125
F1.0
sI1126
F0.0
sI1127
F0.0
sI1128
F0.0
sI1129
F0.0
sI1130
F0.0
sI1131
F0.0
sI1132
F2.0
sI1133
F0.0
sI1134
F0.0
sI1135
F0.0
sI1136
F3.0
sI1137
F0.0
sI1138
F0.0
sI1139
F0.0
sI1140
F1.0
sI1141
F0.0
sI1142
F0.0
sI1143
F0.0
sI1144
F3.0
sI1145
F0.0
sI1146
F0.0
sI1147
F0.0
sI1148
F0.0
sI1149
F0.0
sI1150
F0.0
sI1151
F0.0
sI1152
F0.0
sI1153
F3.0
sI1154
F0.0
sI1155
F0.0
sI1156
F0.0
sI1157
F1.0
sI1158
F0.0
sI1159
F2.0
sI1160
F0.0
sI1161
F0.0
sI1162
F0.0
sI1163
F0.0
sI1164
F0.0
sI1165
F0.0
sI1166
F0.0
sI1167
F0.0
sI1168
F0.0
sI1169
F3.0
sI1170
F0.0
sI1171
F0.0
sI1172
F2.0
sI1173
F3.0
sI1174
F0.0
sI1175
F0.0
sI1176
F0.0
sI1177
F0.0
sI1178
F0.0
sI1179
F0.0
sI1180
F0.0
sI1181
F0.0
sI1182
F0.0
sI1183
F2.0
sI1184
F0.0
sI1185
F1.0
sI1186
F14.0
sI1187
F0.0
sI1188
F0.0
sI1189
F0.0
sI1190
F0.0
sI1191
F1.0
sI1192
F0.0
sI1193
F0.0
sI1194
F4.0
sI1195
F2.0
sI1196
F0.0
sI1197
F0.0
sI1198
F0.0
sI1199
F0.0
sI1200
F0.0
sI1201
F0.0
sI1202
F1.0
sI1203
F0.0
sI1204
F0.0
sI1205
F1.0
sI1206
F0.0
sI1207
F8.0
sI1208
F0.0
sI1209
F0.0
sI1210
F0.0
sI1211
F0.0
sI1212
F6.0
sI1213
F0.0
sI1214
F0.0
sI1215
F1.0
sI1216
F1.0
sI1217
F0.0
sI1218
F1.0
sI1219
F0.0
sI1220
F0.0
sI1221
F0.0
sI1222
F0.0
sI1223
F0.0
sI1224
F0.0
sI1225
F15.0
sI1226
F0.0
sI1227
F3.0
sI1228
F0.0
sI1229
F0.0
sI1230
F362.0
sI1231
F0.0
sI1232
F0.0
sI1233
F0.0
sI1234
F0.0
sI1235
F0.0
sI1236
F0.0
sI1237
F4.0
sI1238
F2.0
sI1239
F0.0
sI1240
F2.0
sI1241
F0.0
sI1242
F0.0
sI1243
F0.0
sI1244
F8.0
sI1245
F0.0
sI1246
F0.0
sI1247
F2.0
sI1248
F1.0
sI1249
F0.0
sI1250
F1.0
sI1251
F0.0
sI1252
F0.0
sI1253
F2.0
sI1254
F2.0
sI1255
F0.0
sI1256
F0.0
sI1257
F0.0
sI1258
F0.0
sI1259
F2.0
sI1260
F0.0
sI1261
F0.0
sI1262
F0.0
sI1263
F0.0
sI1264
F0.0
sI1265
F1.0
sI1266
F0.0
sI1267
F2.0
sI1268
F0.0
sI1269
F0.0
sI1270
F0.0
sI1271
F9.0
sI1272
F1.0
sI1273
F0.0
sI1274
F0.0
sI1275
F0.0
sI1276
F119.0
sI1277
F0.0
sI1278
F0.0
sI1279
F0.0
sI1280
F1.0
sI1281
F2.0
sI1282
F2.0
sI1283
F0.0
sI1284
F0.0
sI1285
F0.0
sI1286
F0.0
sI1287
F0.0
sI1288
F0.0
sI1289
F0.0
sI1290
F0.0
sI1291
F0.0
sI1292
F0.0
sI1293
F2.0
sI1294
F10.0
sI1295
F30.0
sI1296
F0.0
sI1297
F1.0
sI1298
F0.0
sI1299
F0.0
sI1300
F0.0
sI1301
F0.0
sI1302
F0.0
sI1303
F0.0
sI1304
F3.0
sI1305
F0.0
sI1306
F1.0
sI1307
F0.0
sI1308
F0.0
sI1309
F2.0
sI1310
F0.0
sI1311
F0.0
sI1312
F0.0
sI1313
F0.0
sI1314
F0.0
sI1315
F0.0
sI1316
F0.0
sI1317
F1.0
sI1318
F0.0
sI1319
F0.0
sI1320
F0.0
sI1321
F2.0
sI1322
F0.0
sI1323
F0.0
sI1324
F0.0
sI1325
F0.0
sI1326
F0.0
sI1327
F0.0
sI1328
F0.0
sI1329
F0.0
sI1330
F2.0
sI1331
F0.0
sI1332
F1.0
sI1333
F0.0
sI1334
F0.0
sI1335
F0.0
sI1336
F0.0
sI1337
F0.0
sI1338
F2.0
sI1339
F1.0
sI1340
F0.0
sI1341
F0.0
sI1342
F0.0
sI1343
F0.0
sI1344
F0.0
sI1345
F0.0
sI1346
F0.0
sI1347
F0.0
sI1348
F0.0
sI1349
F0.0
sI1350
F1.0
sI1351
F0.0
sI1352
F1.0
sI1353
F0.0
sI1354
F2.0
sI1355
F0.0
sI1356
F0.0
sI1357
F0.0
sI1358
F0.0
sI1359
F9.0
sI1360
F0.0
sI1361
F0.0
sI1362
F0.0
sI1363
F0.0
sI1364
F0.0
sI1365
F0.0
sI1366
F0.0
sI1367
F4.0
sI1368
F0.0
sI1369
F0.0
sI1370
F3.0
sI1371
F0.0
sI1372
F3.0
sI1373
F0.0
sI1374
F0.0
sI1375
F0.0
sI1376
F0.0
sI1377
F0.0
sI1378
F0.0
sI1379
F0.0
sI1380
F0.0
sI1381
F1.0
sI1382
F0.0
sI1383
F0.0
sI1384
F2.0
sI1385
F0.0
sI1386
F0.0
sI1387
F5.0
sI1388
F0.0
sI1389
F0.0
sI1390
F11.0
sI1391
F1.0
sI1392
F45.0
sI1393
F106.0
sI1394
F0.0
sI1395
F0.0
sI1396
F0.0
sI1397
F0.0
sI1398
F0.0
sI1399
F0.0
sI1400
F0.0
sI1401
F0.0
sI1402
F1.0
sI1403
F0.0
sI1404
F0.0
sI1405
F1.0
sI1406
F2.0
sI1407
F0.0
sI1408
F0.0
sI1409
F0.0
sI1410
F1.0
sI1411
F4.0
sI1412
F4.0
sI1413
F23.0
sI1414
F0.0
sI1415
F0.0
sI1416
F3.0
sI1417
F4.0
sI1418
F1.0
sI1419
F2.0
sI1420
F0.0
sI1421
F0.0
sI1422
F2.0
sI1423
F2.0
sI1424
F1.0
sI1425
F0.0
sI1426
F51.0
sI1427
F0.0
sI1428
F8.0
sI1429
F0.0
sI1430
F20.0
sI1431
F0.0
sI1432
F0.0
sI1433
F0.0
sI1434
F0.0
sI1435
F1.0
sI1436
F8.0
sI1437
F2.0
sI1438
F0.0
sI1439
F0.0
sI1440
F0.0
sI1441
F1.0
sI1442
F0.0
sI1443
F0.0
sI1444
F0.0
sI1445
F1.0
sI1446
F2.0
sI1447
F0.0
sI1448
F0.0
sI1449
F0.0
sI1450
F0.0
sI1451
F1.0
sI1452
F0.0
sI1453
F0.0
sI1454
F0.0
sI1455
F0.0
sI1456
F1.0
sI1457
F0.0
sI1458
F0.0
sI1459
F1.0
sI1460
F0.0
sI1461
F1.0
sI1462
F0.0
sI1463
F0.0
sI1464
F0.0
sI1465
F0.0
sI1466
F3.0
sI1467
F0.0
sI1468
F2.0
sI1469
F0.0
sI1470
F0.0
sI1471
F0.0
sI1472
F0.0
sI1473
F0.0
sI1474
F0.0
sI1475
F0.0
sI1476
F0.0
sI1477
F84.0
sI1478
F0.0
sI1479
F3.0
sI1480
F19.0
sI1481
F0.0
sI1482
F0.0
sI1483
F1.0
sI1484
F1.0
sI1485
F0.0
sI1486
F0.0
sI1487
F0.0
sI1488
F0.0
sI1489
F2.0
sI1490
F0.0
sI1491
F0.0
sI1492
F0.0
sI1493
F0.0
sI1494
F66.0
sI1495
F1.0
sI1496
F0.0
sI1497
F0.0
sI1498
F0.0
sI1499
F0.0
sI1500
F0.0
sI1501
F0.0
sI1502
F0.0
sI1503
F0.0
sI1504
F5.0
sI1505
F1.0
sI1506
F0.0
sI1507
F13.0
sI1508
F3.0
sI1509
F0.0
sI1510
F0.0
sI1511
F0.0
sI1512
F0.0
sI1513
F0.0
sI1514
F0.0
sI1515
F5.0
sI1516
F1.0
sI1517
F3.0
sI1518
F2.0
sI1519
F1.0
sI1520
F0.0
sI1521
F3.0
sI1522
F17.0
sI1523
F0.0
sI1524
F1.0
sI1525
F0.0
sI1526
F1.0
sI1527
F0.0
sI1528
F0.0
sI1529
F0.0
sI1530
F0.0
sI1531
F0.0
sI1532
F0.0
sI1533
F8.0
sI1534
F0.0
sI1535
F0.0
sI1536
F0.0
sI1537
F0.0
sI1538
F0.0
sI1539
F0.0
sI1540
F0.0
sI1541
F0.0
sI1542
F0.0
sI1543
F0.0
sI1544
F0.0
sI1545
F2.0
sI1546
F0.0
sI1547
F0.0
sI1548
F11.0
sI1549
F0.0
sI1550
F0.0
sI1551
F0.0
sI1552
F3.0
sI1553
F0.0
sI1554
F8.0
sI1555
F0.0
sI1556
F0.0
sI1557
F5.0
sI1558
F0.0
sI1559
F0.0
sI1560
F6.0
sI1561
F0.0
sI1562
F0.0
sI1563
F0.0
sI1564
F0.0
sI1565
F0.0
sI1566
F0.0
sI1567
F0.0
sI1568
F0.0
sI1569
F2.0
sI1570
F0.0
sI1571
F0.0
sI1572
F0.0
sI1573
F0.0
sI1574
F0.0
sI1575
F0.0
sI1576
F53.0
sI1577
F0.0
sI1578
F0.0
sI1579
F0.0
sI1580
F0.0
sI1581
F0.0
sI1582
F2.0
sI1583
F0.0
sI1584
F0.0
sI1585
F1.0
sI1586
F0.0
sI1587
F5.0
sI1588
F2.0
sI1589
F106.0
sI1590
F0.0
sI1591
F0.0
sI1592
F0.0
sI1593
F0.0
sI1594
F0.0
sI1595
F1.0
sI1596
F0.0
sI1597
F0.0
sI1598
F1.0
sI1599
F411.0
sI1600
F0.0
sI1601
F0.0
sI1602
F0.0
sI1603
F1.0
sI1604
F0.0
sI1605
F0.0
sI1606
F369.0
sI1607
F0.0
sI1608
F0.0
sI1609
F0.0
sI1610
F0.0
sI1611
F0.0
sI1612
F0.0
sI1613
F0.0
sI1614
F1.0
sI1615
F0.0
sI1616
F0.0
sI1617
F0.0
sI1618
F31.0
sI1619
F1.0
sI1620
F0.0
sI1621
F0.0
sI1622
F1.0
sI1623
F0.0
sI1624
F0.0
sI1625
F0.0
sI1626
F0.0
sI1627
F0.0
sI1628
F4.0
sI1629
F0.0
sI1630
F0.0
sI1631
F0.0
sI1632
F1.0
sI1633
F6.0
sI1634
F1.0
sI1635
F0.0
sI1636
F0.0
sI1637
F18.0
sI1638
F0.0
sI1639
F0.0
sI1640
F0.0
sI1641
F0.0
sI1642
F128.0
sI1643
F0.0
sI1644
F0.0
sI1645
F0.0
sI1646
F0.0
sI1647
F0.0
sI1648
F0.0
sI1649
F0.0
sI1650
F5.0
sI1651
F0.0
sI1652
F0.0
sI1653
F0.0
sI1654
F1.0
sI1655
F0.0
sI1656
F6.0
sI1657
F0.0
sI1658
F228.0
sI1659
F0.0
sI1660
F1.0
sI1661
F0.0
sI1662
F0.0
sI1663
F0.0
sI1664
F0.0
sI1665
F1.0
sI1666
F2.0
sI1667
F1.0
sI1668
F0.0
sI1669
F0.0
sI1670
F0.0
sI1671
F0.0
sI1672
F1.0
sI1673
F0.0
sI1674
F1.0
sI1675
F0.0
sI1676
F0.0
sI1677
F0.0
sI1678
F0.0
sI1679
F0.0
sI1680
F0.0
sI1681
F0.0
sI1682
F0.0
sI1683
F0.0
sI1684
F1.0
sI1685
F0.0
sI1686
F3.0
sI1687
F0.0
sI1688
F0.0
sI1689
F0.0
sI1690
F0.0
sI1691
F4.0
sI1692
F0.0
sI1693
F0.0
sI1694
F1.0
sI1695
F0.0
sI1696
F6.0
sI1697
F1.0
sI1698
F1.0
sI1699
F0.0
sI1700
F0.0
sI1701
F0.0
sI1702
F0.0
sI1703
F0.0
sI1704
F14.0
sI1705
F0.0
sI1706
F0.0
sI1707
F0.0
sI1708
F0.0
sI1709
F3.0
sI1710
F0.0
sI1711
F0.0
sI1712
F0.0
sI1713
F0.0
sI1714
F1.0
sI1715
F0.0
sI1716
F0.0
sI1717
F0.0
sI1718
F0.0
sI1719
F0.0
sI1720
F1.0
sI1721
F0.0
sI1722
F4.0
sI1723
F0.0
sI1724
F0.0
sI1725
F0.0
sI1726
F0.0
sI1727
F0.0
sI1728
F9.0
sI1729
F0.0
sI1730
F0.0
sI1731
F2.0
sI1732
F1.0
sI1733
F1.0
sI1734
F0.0
sI1735
F0.0
sI1736
F0.0
sI1737
F1.0
sI1738
F2.0
sI1739
F0.0
sI1740
F0.0
sI1741
F0.0
sI1742
F0.0
sI1743
F0.0
sI1744
F4.0
sI1745
F0.0
sI1746
F0.0
sI1747
F0.0
sI1748
F0.0
sI1749
F0.0
sI1750
F0.0
sI1751
F0.0
sI1752
F0.0
sI1753
F0.0
sI1754
F0.0
sI1755
F0.0
sI1756
F0.0
sI1757
F0.0
sI1758
F1.0
sI1759
F20.0
sI1760
F0.0
sI1761
F13.0
sI1762
F0.0
sI1763
F0.0
sI1764
F0.0
sI1765
F0.0
sI1766
F1.0
sI1767
F0.0
sI1768
F0.0
sI1769
F0.0
sI1770
F0.0
sI1771
F0.0
sI1772
F0.0
sI1773
F4.0
sI1774
F0.0
sI1775
F0.0
sI1776
F0.0
sI1777
F0.0
sI1778
F0.0
sI1779
F0.0
sI1780
F0.0
sI1781
F0.0
sI1782
F0.0
sI1783
F0.0
sI1784
F33.0
sI1785
F29.0
sI1786
F0.0
sI1787
F0.0
sI1788
F0.0
sI1789
F1.0
sI1790
F0.0
sI1791
F0.0
sI1792
F2.0
sI1793
F0.0
sI1794
F0.0
sI1795
F0.0
sI1796
F6.0
sI1797
F2.0
sI1798
F0.0
sI1799
F0.0
sI1800
F0.0
sI1801
F2.0
sI1802
F1.0
sI1803
F0.0
sI1804
F0.0
sI1805
F1.0
sI1806
F0.0
sI1807
F0.0
sI1808
F0.0
sI1809
F0.0
sI1810
F0.0
sI1811
F13.0
sI1812
F0.0
sI1813
F0.0
sI1814
F0.0
sI1815
F0.0
sI1816
F0.0
sI1817
F0.0
sI1818
F1.0
sI1819
F2.0
sI1820
F0.0
sI1821
F0.0
sI1822
F4.0
sI1823
F4.0
sI1824
F0.0
sI1825
F0.0
sI1826
F0.0
sI1827
F0.0
sI1828
F1.0
sI1829
F0.0
sI1830
F0.0
sI1831
F0.0
sI1832
F0.0
sI1833
F0.0
sI1834
F0.0
sI1835
F0.0
sI1836
F0.0
sI1837
F0.0
sI1838
F23.0
sI1839
F0.0
sI1840
F0.0
sI1841
F0.0
sI1842
F0.0
sI1843
F2.0
sI1844
F0.0
sI1845
F0.0
sI1846
F0.0
sI1847
F0.0
sI1848
F0.0
sI1849
F0.0
sI1850
F0.0
sI1851
F0.0
sI1852
F0.0
sI1853
F0.0
sI1854
F0.0
sI1855
F0.0
sI1856
F0.0
sI1857
F0.0
sI1858
F0.0
sI1859
F0.0
sI1860
F0.0
sI1861
F1.0
sI1862
F0.0
sI1863
F0.0
sI1864
F0.0
sI1865
F0.0
sI1866
F0.0
sI1867
F1.0
sI1868
F0.0
sI1869
F0.0
sI1870
F0.0
sI1871
F2.0
sI1872
F0.0
sI1873
F4.0
sI1874
F1.0
sI1875
F0.0
sI1876
F0.0
sI1877
F0.0
sI1878
F1.0
sI1879
F0.0
sI1880
F0.0
sI1881
F0.0
sI1882
F1.0
sI1883
F1.0
sI1884
F0.0
sI1885
F0.0
sI1886
F0.0
sI1887
F0.0
sI1888
F0.0
sI1889
F4.0
sI1890
F0.0
sI1891
F1.0
sI1892
F0.0
sI1893
F1.0
sI1894
F0.0
sI1895
F3.0
sI1896
F0.0
sI1897
F1.0
sI1898
F0.0
sI1899
F5.0
sI1900
F0.0
sI1901
F0.0
sI1902
F0.0
sI1903
F0.0
sI1904
F1.0
sI1905
F0.0
sI1906
F0.0
sI1907
F0.0
sI1908
F2.0
sI1909
F4.0
sI1910
F0.0
sI1911
F1.0
sI1912
F15.0
sI1913
F0.0
sI1914
F7.0
sI1915
F0.0
sI1916
F0.0
sI1917
F0.0
sI1918
F0.0
sI1919
F24.0
sI1920
F3.0
sI1921
F0.0
sI1922
F1.0
sI1923
F0.0
sI1924
F1.0
sI1925
F2.0
sI1926
F1.0
sI1927
F0.0
sI1928
F0.0
sI1929
F0.0
sI1930
F0.0
sI1931
F3.0
sI1932
F0.0
sI1933
F0.0
sI1934
F0.0
sI1935
F0.0
sI1936
F0.0
sI1937
F0.0
sI1938
F0.0
sI1939
F0.0
sI1940
F0.0
sI1941
F0.0
sI1942
F1.0
sI1943
F0.0
sI1944
F0.0
sI1945
F1.0
sI1946
F3.0
sI1947
F0.0
sI1948
F1.0
sI1949
F0.0
sI1950
F0.0
sI1951
F0.0
sI1952
F2.0
sI1953
F0.0
sI1954
F0.0
sI1955
F0.0
sI1956
F0.0
sI1957
F0.0
sI1958
F0.0
sI1959
F2.0
sI1960
F0.0
sI1961
F0.0
sI1962
F0.0
sI1963
F0.0
sI1964
F4.0
sI1965
F1.0
sI1966
F0.0
sI1967
F0.0
sI1968
F0.0
sI1969
F0.0
sI1970
F0.0
sI1971
F16.0
sI1972
F0.0
sI1973
F0.0
sI1974
F53.0
sI1975
F0.0
sI1976
F1.0
sI1977
F1.0
sI1978
F0.0
sI1979
F0.0
sI1980
F0.0
sI1981
F0.0
sI1982
F0.0
sI1983
F0.0
sI1984
F0.0
sI1985
F0.0
sI1986
F0.0
sI1987
F0.0
sI1988
F0.0
sI1989
F0.0
sI1990
F6.0
sI1991
F0.0
sI1992
F0.0
sI1993
F0.0
sI1994
F1.0
sI1995
F1.0
sI1996
F5.0
sI1997
F0.0
sI1998
F0.0
sI1999
F0.0
sI2000
F0.0
sI2001
F0.0
sI2002
F0.0
sI2003
F8.0
sI2004
F0.0
sI2005
F0.0
sI2006
F0.0
sI2007
F3.0
sI2008
F0.0
sI2009
F0.0
sI2010
F1.0
sI2011
F0.0
sI2012
F0.0
sI2013
F2.0
sI2014
F0.0
sI2015
F0.0
sI2016
F0.0
sI2017
F1.0
sI2018
F0.0
sI2019
F2.0
sI2020
F4.0
sI2021
F0.0
sI2022
F1.0
sI2023
F0.0
sI2024
F0.0
sI2025
F2.0
sI2026
F0.0
sI2027
F0.0
sI2028
F0.0
sI2029
F0.0
sI2030
F0.0
sI2031
F0.0
sI2032
F0.0
sI2033
F0.0
sI2034
F0.0
sI2035
F0.0
sI2036
F7.0
sI2037
F0.0
sI2038
F1.0
sI2039
F0.0
sI2040
F34.0
sI2041
F0.0
sI2042
F0.0
sI2043
F0.0
sI2044
F73.0
sI2045
F3.0
sI2046
F0.0
sI2047
F0.0
sI2048
F0.0
sI2049
F2.0
sI2050
F0.0
sI2051
F2.0
sI2052
F0.0
sI2053
F1.0
sI2054
F2.0
sI2055
F3.0
sI2056
F3.0
sI2057
F1.0
sI2058
F1.0
sI2059
F2.0
sI2060
F0.0
sI2061
F0.0
sI2062
F0.0
sI2063
F3.0
sI2064
F2.0
sI2065
F0.0
sI2066
F5.0
sI2067
F0.0
sI2068
F0.0
sI2069
F0.0
sI2070
F1.0
sI2071
F0.0
sI2072
F1.0
sI2073
F0.0
sI2074
F0.0
sI2075
F0.0
sI2076
F0.0
sI2077
F2.0
sI2078
F0.0
sI2079
F8.0
sI2080
F0.0
sI2081
F3.0
sI2082
F1.0
sI2083
F348.0
sI2084
F0.0
sI2085
F0.0
sI2086
F1.0
sI2087
F0.0
sI2088
F3.0
sI2089
F0.0
sI2090
F1.0
sI2091
F0.0
sI2092
F0.0
sI2093
F2.0
sI2094
F4.0
sI2095
F0.0
sI2096
F0.0
sI2097
F0.0
sI2098
F1.0
sI2099
F0.0
sI2100
F0.0
sI2101
F0.0
sI2102
F3.0
sI2103
F0.0
sI2104
F1.0
sI2105
F0.0
sI2106
F0.0
sI2107
F0.0
sI2108
F2.0
sI2109
F0.0
sI2110
F0.0
sI2111
F2.0
sI2112
F0.0
sI2113
F0.0
sI2114
F0.0
sI2115
F0.0
sI2116
F0.0
sI2117
F0.0
sI2118
F8.0
sI2119
F0.0
sI2120
F0.0
sI2121
F1.0
sI2122
F0.0
sI2123
F0.0
sI2124
F0.0
sI2125
F0.0
sI2126
F11.0
sI2127
F0.0
sI2128
F1.0
sI2129
F0.0
sI2130
F0.0
sI2131
F0.0
sI2132
F0.0
sI2133
F0.0
sI2134
F3.0
sI2135
F0.0
sI2136
F0.0
sI2137
F0.0
sI2138
F0.0
sI2139
F1.0
sI2140
F0.0
sI2141
F0.0
sI2142
F0.0
sI2143
F1.0
sI2144
F0.0
sI2145
F0.0
sI2146
F0.0
sI2147
F0.0
sI2148
F0.0
sI2149
F2.0
sI2150
F0.0
sI2151
F0.0
sI2152
F1.0
sI2153
F0.0
sI2154
F2.0
sI2155
F0.0
sI2156
F2.0
sI2157
F0.0
sI2158
F0.0
sI2159
F0.0
sI2160
F0.0
sI2161
F0.0
sI2162
F0.0
sI2163
F0.0
sI2164
F0.0
sI2165
F7.0
sI2166
F0.0
sI2167
F0.0
sI2168
F0.0
sI2169
F0.0
sI2170
F8.0
sI2171
F5.0
sI2172
F0.0
sI2173
F0.0
sI2174
F0.0
sI2175
F0.0
sI2176
F0.0
sI2177
F0.0
sI2178
F0.0
sI2179
F0.0
sI2180
F0.0
sI2181
F0.0
sI2182
F2.0
sI2183
F2.0
sI2184
F3.0
sI2185
F0.0
sI2186
F19.0
sI2187
F0.0
sI2188
F0.0
sI2189
F2.0
sI2190
F0.0
sI2191
F0.0
sI2192
F0.0
sI2193
F0.0
sI2194
F0.0
sI2195
F0.0
sI2196
F19.0
sI2197
F0.0
sI2198
F0.0
sI2199
F1.0
sI2200
F1.0
sI2201
F0.0
sI2202
F0.0
sI2203
F0.0
sI2204
F0.0
sI2205
F0.0
sI2206
F1.0
sI2207
F0.0
sI2208
F30.0
sI2209
F2.0
sI2210
F0.0
sI2211
F0.0
sI2212
F3.0
sI2213
F2.0
sI2214
F0.0
sI2215
F2.0
sI2216
F0.0
sI2217
F0.0
sI2218
F0.0
sI2219
F1.0
sI2220
F0.0
sI2221
F0.0
sI2222
F0.0
sI2223
F0.0
sI2224
F1.0
sI2225
F0.0
sI2226
F11.0
sI2227
F1.0
sI2228
F0.0
sI2229
F16.0
sI2230
F0.0
sI2231
F0.0
sI2232
F0.0
sI2233
F0.0
sI2234
F1.0
sI2235
F0.0
sI2236
F14.0
sI2237
F0.0
sI2238
F17.0
sI2239
F0.0
sI2240
F0.0
sI2241
F0.0
sI2242
F0.0
sI2243
F0.0
sI2244
F2.0
sI2245
F0.0
sI2246
F5.0
sI2247
F0.0
sI2248
F0.0
sI2249
F0.0
sI2250
F0.0
sI2251
F0.0
sI2252
F3.0
sI2253
F0.0
sI2254
F2.0
sI2255
F13.0
sI2256
F25.0
sI2257
F0.0
sI2258
F0.0
sI2259
F0.0
sI2260
F2.0
sI2261
F0.0
sI2262
F6.0
sI2263
F0.0
sI2264
F0.0
sI2265
F0.0
sI2266
F0.0
sI2267
F0.0
sI2268
F0.0
sI2269
F0.0
sI2270
F1.0
sI2271
F0.0
sI2272
F2.0
sI2273
F0.0
sI2274
F0.0
sI2275
F1.0
sI2276
F0.0
sI2277
F0.0
sI2278
F0.0
sI2279
F0.0
sI2280
F1.0
sI2281
F2.0
sI2282
F0.0
sI2283
F0.0
sI2284
F4.0
sI2285
F1.0
sI2286
F0.0
sI2287
F0.0
sI2288
F0.0
sI2289
F0.0
sI2290
F0.0
sI2291
F0.0
sI2292
F0.0
sI2293
F0.0
sI2294
F0.0
sI2295
F0.0
sI2296
F0.0
sI2297
F2.0
sI2298
F1.0
sI2299
F0.0
sI2300
F0.0
sI2301
F5.0
sI2302
F2.0
sI2303
F0.0
sI2304
F1.0
sI2305
F1.0
sI2306
F0.0
sI2307
F24.0
sI2308
F0.0
sI2309
F0.0
sI2310
F0.0
sI2311
F0.0
sI2312
F0.0
sI2313
F0.0
sI2314
F1.0
sI2315
F0.0
sI2316
F0.0
sI2317
F0.0
sI2318
F0.0
sI2319
F0.0
sI2320
F0.0
sI2321
F1.0
sI2322
F0.0
sI2323
F0.0
sI2324
F1.0
sI2325
F0.0
sI2326
F0.0
sI2327
F0.0
sI2328
F0.0
sI2329
F7.0
sI2330
F0.0
sI2331
F0.0
sI2332
F2.0
sI2333
F0.0
sI2334
F22.0
sI2335
F3.0
sI2336
F0.0
sI2337
F2.0
sI2338
F3.0
sI2339
F0.0
sI2340
F0.0
sI2341
F8.0
sI2342
F0.0
sI2343
F2.0
sI2344
F0.0
sI2345
F0.0
sI2346
F0.0
sI2347
F107.0
sI2348
F0.0
sI2349
F0.0
sI2350
F0.0
sI2351
F1.0
sI2352
F0.0
sI2353
F0.0
sI2354
F0.0
sI2355
F0.0
sI2356
F0.0
sI2357
F0.0
sI2358
F2.0
sI2359
F1.0
sI2360
F0.0
sI2361
F0.0
sI2362
F0.0
sI2363
F0.0
sI2364
F0.0
sI2365
F0.0
sI2366
F0.0
sI2367
F0.0
sI2368
F0.0
sI2369
F0.0
sI2370
F0.0
sI2371
F0.0
sI2372
F0.0
sI2373
F0.0
sI2374
F0.0
sI2375
F0.0
sI2376
F0.0
sI2377
F0.0
sI2378
F0.0
sI2379
F0.0
sI2380
F0.0
sI2381
F0.0
sI2382
F7.0
sI2383
F0.0
sI2384
F0.0
sI2385
F0.0
sI2386
F1.0
sI2387
F84.0
sI2388
F0.0
sI2389
F0.0
sI2390
F0.0
sI2391
F0.0
sI2392
F0.0
sI2393
F0.0
sI2394
F0.0
sI2395
F4.0
sI2396
F0.0
sI2397
F0.0
sI2398
F1.0
sI2399
F0.0
sI2400
F4.0
sI2401
F0.0
sI2402
F0.0
sI2403
F0.0
sI2404
F0.0
sI2405
F13.0
sI2406
F0.0
sI2407
F0.0
sI2408
F1.0
sI2409
F3.0
sI2410
F1.0
sI2411
F0.0
sI2412
F0.0
sI2413
F0.0
sI2414
F0.0
sI2415
F0.0
sI2416
F0.0
sI2417
F0.0
sI2418
F0.0
sI2419
F0.0
sI2420
F0.0
sI2421
F2.0
sI2422
F0.0
sI2423
F0.0
sI2424
F5.0
sI2425
F0.0
sI2426
F0.0
sI2427
F0.0
sI2428
F1.0
sI2429
F0.0
sI2430
F0.0
sI2431
F0.0
sI2432
F2.0
sI2433
F0.0
sI2434
F0.0
sI2435
F0.0
sI2436
F2.0
sI2437
F0.0
sI2438
F1.0
sI2439
F1.0
sI2440
F0.0
sI2441
F0.0
sI2442
F0.0
sI2443
F0.0
sI2444
F0.0
sI2445
F0.0
sI2446
F0.0
sI2447
F0.0
sI2448
F0.0
sI2449
F0.0
sI2450
F0.0
sI2451
F0.0
sI2452
F0.0
sI2453
F0.0
sI2454
F0.0
sI2455
F0.0
sI2456
F1.0
sI2457
F0.0
sI2458
F0.0
sI2459
F1.0
sI2460
F0.0
sI2461
F0.0
sI2462
F0.0
sI2463
F0.0
sI2464
F1.0
sI2465
F1.0
sI2466
F0.0
sI2467
F0.0
sI2468
F0.0
sI2469
F0.0
sI2470
F0.0
sI2471
F0.0
sI2472
F1.0
sI2473
F2.0
sI2474
F0.0
sI2475
F0.0
sI2476
F0.0
sI2477
F0.0
sI2478
F2.0
sI2479
F2.0
sI2480
F1.0
sI2481
F6.0
sI2482
F0.0
sI2483
F0.0
sI2484
F1.0
sI2485
F1.0
sI2486
F0.0
sI2487
F9.0
sI2488
F11.0
sI2489
F0.0
sI2490
F18.0
sI2491
F0.0
sI2492
F0.0
sI2493
F0.0
sI2494
F0.0
sI2495
F0.0
sI2496
F0.0
sI2497
F0.0
sI2498
F0.0
sI2499
F0.0
sI2500
F0.0
sI2501
F2.0
sI2502
F0.0
sI2503
F0.0
sI2504
F0.0
sI2505
F0.0
sI2506
F0.0
sI2507
F0.0
sI2508
F0.0
sI2509
F0.0
sI2510
F0.0
sI2511
F0.0
sI2512
F0.0
sI2513
F0.0
sI2514
F2.0
sI2515
F2.0
sI2516
F44.0
sI2517
F0.0
sI2518
F4.0
sI2519
F1.0
sI2520
F0.0
sI2521
F1.0
sI2522
F0.0
sI2523
F1.0
sI2524
F0.0
sI2525
F0.0
sI2526
F2.0
sI2527
F18.0
sI2528
F0.0
sI2529
F0.0
sI2530
F7.0
sI2531
F0.0
sI2532
F3.0
sI2533
F0.0
sI2534
F0.0
sI2535
F0.0
sI2536
F0.0
sI2537
F1.0
sI2538
F0.0
sI2539
F0.0
sI2540
F0.0
sI2541
F0.0
sI2542
F0.0
sI2543
F0.0
sI2544
F0.0
sI2545
F0.0
sI2546
F18.0
sI2547
F0.0
sI2548
F0.0
sI2549
F0.0
sI2550
F1.0
sI2551
F0.0
sI2552
F1.0
sI2553
F0.0
sI2554
F0.0
sI2555
F3.0
sI2556
F0.0
sI2557
F1.0
sI2558
F0.0
sI2559
F3.0
sI2560
F0.0
sI2561
F0.0
sI2562
F0.0
sI2563
F0.0
sI2564
F0.0
sI2565
F0.0
sI2566
F0.0
sI2567
F0.0
sI2568
F0.0
sI2569
F2.0
sI2570
F0.0
sI2571
F0.0
sI2572
F0.0
sI2573
F0.0
sI2574
F0.0
sI2575
F1.0
sI2576
F0.0
sI2577
F0.0
sI2578
F0.0
sI2579
F2.0
sI2580
F1.0
sI2581
F6.0
sI2582
F0.0
sI2583
F0.0
sI2584
F10.0
sI2585
F0.0
sI2586
F0.0
sI2587
F0.0
sI2588
F1.0
sI2589
F3.0
sI2590
F0.0
sI2591
F0.0
sI2592
F0.0
sI2593
F0.0
sI2594
F4.0
sI2595
F2.0
sI2596
F1.0
sI2597
F0.0
sI2598
F0.0
sI2599
F0.0
sI2600
F2.0
sI2601
F0.0
sI2602
F0.0
sI2603
F0.0
sI2604
F3.0
sI2605
F6.0
sI2606
F0.0
sI2607
F0.0
sI2608
F0.0
sI2609
F0.0
sI2610
F2.0
sI2611
F0.0
sI2612
F0.0
sI2613
F0.0
sI2614
F6.0
sI2615
F0.0
sI2616
F0.0
sI2617
F0.0
sI2618
F0.0
sI2619
F1.0
sI2620
F7.0
sI2621
F1.0
sI2622
F1.0
sI2623
F34.0
sI2624
F0.0
sI2625
F0.0
sI2626
F1.0
sI2627
F0.0
sI2628
F0.0
sI2629
F0.0
sI2630
F1.0
sI2631
F0.0
sI2632
F0.0
sI2633
F0.0
sI2634
F6.0
sI2635
F0.0
sI2636
F6.0
sI2637
F0.0
sI2638
F0.0
sI2639
F1.0
sI2640
F5.0
sI2641
F0.0
sI2642
F0.0
sI2643
F0.0
sI2644
F5.0
sI2645
F2.0
sI2646
F0.0
sI2647
F1.0
sI2648
F0.0
sI2649
F0.0
sI2650
F1.0
sI2651
F2.0
sI2652
F361.0
sI2653
F0.0
sI2654
F0.0
sI2655
F4.0
sI2656
F21.0
sI2657
F26.0
sI2658
F4.0
sI2659
F0.0
sI2660
F3.0
sI2661
F0.0
sI2662
F5.0
sI2663
F0.0
sI2664
F0.0
sI2665
F0.0
sI2666
F0.0
sI2667
F1.0
sI2668
F1.0
sI2669
F0.0
sI2670
F1.0
sI2671
F0.0
sI2672
F0.0
sI2673
F1.0
sI2674
F0.0
sI2675
F0.0
sI2676
F106.0
sI2677
F0.0
sI2678
F5.0
sI2679
F1.0
sI2680
F2.0
sI2681
F0.0
sI2682
F1.0
sI2683
F0.0
sI2684
F2.0
sI2685
F0.0
sI2686
F1.0
sI2687
F0.0
sI2688
F0.0
sI2689
F0.0
sI2690
F0.0
sI2691
F1.0
sI2692
F0.0
sI2693
F0.0
sI2694
F0.0
sI2695
F0.0
sI2696
F0.0
sI2697
F32.0
sI2698
F2.0
sI2699
F0.0
sI2700
F0.0
sI2701
F0.0
sI2702
F1.0
sI2703
F0.0
sI2704
F0.0
sI2705
F0.0
sI2706
F0.0
sI2707
F0.0
sI2708
F0.0
sI2709
F3.0
sI2710
F0.0
sI2711
F0.0
sI2712
F0.0
sI2713
F0.0
sI2714
F0.0
sI2715
F1.0
sI2716
F0.0
sI2717
F0.0
sI2718
F0.0
sI2719
F0.0
sI2720
F0.0
sI2721
F0.0
sI2722
F1.0
sI2723
F1.0
sI2724
F0.0
sI2725
F0.0
sI2726
F1.0
sI2727
F0.0
sI2728
F0.0
sI2729
F2.0
sI2730
F0.0
sI2731
F0.0
sI2732
F0.0
sI2733
F2.0
sI2734
F0.0
sI2735
F0.0
sI2736
F0.0
sI2737
F1.0
sI2738
F1.0
sI2739
F2.0
sI2740
F1.0
sI2741
F0.0
sI2742
F0.0
sI2743
F0.0
sI2744
F0.0
sI2745
F0.0
sI2746
F2.0
sI2747
F0.0
sI2748
F0.0
sI2749
F0.0
sI2750
F5.0
sI2751
F0.0
sI2752
F2.0
sI2753
F0.0
sI2754
F1.0
sI2755
F1.0
sI2756
F0.0
sI2757
F2.0
sI2758
F2.0
sI2759
F0.0
sI2760
F193.0
sI2761
F0.0
sI2762
F0.0
sI2763
F4.0
sI2764
F0.0
sI2765
F0.0
sI2766
F0.0
sI2767
F0.0
sI2768
F3.0
sI2769
F0.0
sI2770
F0.0
sI2771
F0.0
sI2772
F0.0
sI2773
F0.0
sI2774
F6.0
sI2775
F1.0
sI2776
F0.0
sI2777
F0.0
sI2778
F0.0
sI2779
F0.0
sI2780
F0.0
sI2781
F0.0
sI2782
F0.0
sI2783
F2.0
sI2784
F0.0
sI2785
F0.0
sI2786
F3.0
sI2787
F0.0
sI2788
F0.0
sI2789
F12.0
sI2790
F5.0
sI2791
F2.0
sI2792
F0.0
sI2793
F0.0
sI2794
F0.0
sI2795
F2.0
sI2796
F13.0
sI2797
F0.0
sI2798
F3.0
sI2799
F0.0
sI2800
F0.0
sI2801
F0.0
sI2802
F0.0
sI2803
F0.0
sI2804
F0.0
sI2805
F1.0
sI2806
F0.0
sI2807
F0.0
sI2808
F0.0
sI2809
F0.0
sI2810
F0.0
sI2811
F2.0
sI2812
F1.0
sI2813
F0.0
sI2814
F0.0
sI2815
F0.0
sI2816
F0.0
sI2817
F1.0
sI2818
F0.0
sI2819
F0.0
sI2820
F0.0
sI2821
F0.0
sI2822
F1.0
sI2823
F0.0
sI2824
F0.0
sI2825
F2.0
sI2826
F1.0
sI2827
F0.0
sI2828
F0.0
sI2829
F1.0
sI2830
F1.0
sI2831
F0.0
sI2832
F1.0
sI2833
F0.0
sI2834
F0.0
sI2835
F0.0
sI2836
F0.0
sI2837
F0.0
sI2838
F7.0
sI2839
F0.0
sI2840
F1.0
sI2841
F0.0
sI2842
F1.0
sI2843
F0.0
sI2844
F0.0
sI2845
F0.0
sI2846
F0.0
sI2847
F0.0
sI2848
F0.0
sI2849
F0.0
sI2850
F0.0
sI2851
F0.0
sI2852
F0.0
sI2853
F0.0
sI2854
F0.0
sI2855
F70.0
sI2856
F1.0
sI2857
F0.0
sI2858
F0.0
sI2859
F0.0
sI2860
F0.0
sI2861
F0.0
sI2862
F0.0
sI2863
F0.0
sI2864
F0.0
sI2865
F0.0
sI2866
F0.0
sI2867
F0.0
sI2868
F0.0
sI2869
F5.0
sI2870
F0.0
sI2871
F0.0
sI2872
F1.0
sI2873
F0.0
sI2874
F0.0
sI2875
F0.0
sI2876
F0.0
sI2877
F1.0
sI2878
F0.0
sI2879
F3.0
sI2880
F0.0
sI2881
F0.0
sI2882
F0.0
sI2883
F0.0
sI2884
F1.0
sI2885
F0.0
sI2886
F0.0
sI2887
F0.0
sI2888
F5.0
sI2889
F0.0
sI2890
F0.0
sI2891
F0.0
sI2892
F0.0
sI2893
F0.0
sI2894
F2.0
sI2895
F0.0
sI2896
F0.0
sI2897
F0.0
sI2898
F0.0
sI2899
F2.0
sI2900
F1.0
sI2901
F1.0
sI2902
F1.0
sI2903
F0.0
sI2904
F0.0
sI2905
F0.0
sI2906
F0.0
sI2907
F0.0
sI2908
F2.0
sI2909
F1.0
sI2910
F1.0
sI2911
F0.0
sI2912
F2.0
sI2913
F0.0
sI2914
F0.0
sI2915
F0.0
sI2916
F0.0
sI2917
F0.0
sI2918
F2.0
sI2919
F0.0
sI2920
F0.0
sI2921
F2.0
sI2922
F0.0
sI2923
F0.0
sI2924
F0.0
sI2925
F0.0
sI2926
F0.0
sI2927
F0.0
sI2928
F109.0
sI2929
F0.0
sI2930
F4.0
sI2931
F0.0
sI2932
F413.0
sI2933
F0.0
sI2934
F0.0
sI2935
F0.0
sI2936
F0.0
sI2937
F1.0
sI2938
F0.0
sI2939
F1.0
sI2940
F1.0
sI2941
F1.0
sI2942
F0.0
sI2943
F0.0
sI2944
F0.0
sI2945
F0.0
sI2946
F0.0
sI2947
F0.0
sI2948
F0.0
sI2949
F0.0
sI2950
F0.0
sI2951
F0.0
sI2952
F0.0
sI2953
F0.0
sI2954
F0.0
sI2955
F0.0
sI2956
F0.0
sI2957
F0.0
sI2958
F0.0
sI2959
F0.0
sI2960
F0.0
sI2961
F0.0
sI2962
F0.0
sI2963
F0.0
sI2964
F1.0
sI2965
F0.0
sI2966
F0.0
sI2967
F0.0
sI2968
F0.0
sI2969
F0.0
sI2970
F0.0
sI2971
F0.0
sI2972
F3.0
sI2973
F0.0
sI2974
F0.0
sI2975
F0.0
sI2976
F0.0
sI2977
F0.0
sI2978
F0.0
sI2979
F0.0
sI2980
F0.0
sI2981
F0.0
sI2982
F0.0
sI2983
F0.0
sI2984
F0.0
sI2985
F2.0
sI2986
F9.0
sI2987
F0.0
sI2988
F0.0
sI2989
F0.0
sI2990
F9.0
sI2991
F2.0
sI2992
F0.0
sI2993
F15.0
sI2994
F0.0
sI2995
F1.0
sI2996
F0.0
sI2997
F0.0
sI2998
F0.0
sI2999
F0.0
sI3000
F0.0
sI3001
F0.0
sI3002
F0.0
sI3003
F2.0
sI3004
F0.0
sI3005
F0.0
sI3006
F0.0
sI3007
F0.0
sI3008
F0.0
sI3009
F0.0
sI3010
F0.0
sI3011
F0.0
sI3012
F0.0
sI3013
F3.0
sI3014
F0.0
sI3015
F0.0
sI3016
F0.0
sI3017
F0.0
sI3018
F2.0
sI3019
F0.0
sI3020
F0.0
sI3021
F2.0
sI3022
F0.0
sI3023
F0.0
sI3024
F1.0
sI3025
F0.0
sI3026
F0.0
sI3027
F0.0
sI3028
F0.0
sI3029
F0.0
sI3030
F0.0
sI3031
F0.0
sI3032
F0.0
sI3033
F187.0
sI3034
F2.0
sI3035
F2.0
sI3036
F104.0
sI3037
F0.0
sI3038
F1.0
sI3039
F0.0
sI3040
F0.0
sI3041
F0.0
sI3042
F0.0
sI3043
F0.0
sI3044
F3.0
sI3045
F0.0
sI3046
F0.0
sI3047
F0.0
sI3048
F0.0
sI3049
F0.0
sI3050
F20.0
sI3051
F0.0
sI3052
F0.0
sI3053
F0.0
sI3054
F0.0
sI3055
F0.0
sI3056
F0.0
sI3057
F0.0
sI3058
F0.0
sI3059
F0.0
sI3060
F30.0
sI3061
F0.0
sI3062
F12.0
sI3063
F0.0
sI3064
F1.0
sI3065
F0.0
sI3066
F0.0
sI3067
F1.0
sI3068
F0.0
sI3069
F11.0
sI3070
F17.0
sI3071
F0.0
sI3072
F0.0
sI3073
F1.0
sI3074
F0.0
sI3075
F0.0
sI3076
F1.0
sI3077
F0.0
sI3078
F0.0
sI3079
F0.0
sI3080
F0.0
sI3081
F0.0
sI3082
F0.0
sI3083
F0.0
sI3084
F0.0
sI3085
F0.0
sI3086
F5.0
sI3087
F0.0
sI3088
F7.0
sI3089
F0.0
sI3090
F0.0
sI3091
F0.0
sI3092
F3.0
sI3093
F3.0
sI3094
F0.0
sI3095
F0.0
sI3096
F0.0
sI3097
F4.0
sI3098
F0.0
sI3099
F0.0
sI3100
F0.0
sI3101
F0.0
sI3102
F0.0
sI3103
F0.0
sI3104
F1.0
sI3105
F0.0
sI3106
F0.0
sI3107
F0.0
sI3108
F0.0
sI3109
F0.0
sI3110
F0.0
sI3111
F0.0
sI3112
F0.0
sI3113
F1.0
sI3114
F0.0
sI3115
F0.0
sI3116
F1.0
sI3117
F0.0
sI3118
F0.0
sI3119
F1.0
sI3120
F0.0
sI3121
F4.0
sI3122
F0.0
sI3123
F0.0
sI3124
F0.0
sI3125
F0.0
sI3126
F3.0
sI3127
F0.0
sI3128
F0.0
sI3129
F5.0
sI3130
F0.0
sI3131
F0.0
sI3132
F0.0
sI3133
F0.0
sI3134
F0.0
sI3135
F0.0
sI3136
F2.0
sI3137
F2.0
sI3138
F0.0
sI3139
F0.0
sI3140
F0.0
sI3141
F0.0
sI3142
F0.0
sI3143
F0.0
sI3144
F3.0
sI3145
F0.0
sI3146
F0.0
sI3147
F0.0
sI3148
F0.0
sI3149
F0.0
sI3150
F0.0
sI3151
F0.0
sI3152
F0.0
sI3153
F0.0
sI3154
F0.0
sI3155
F0.0
sI3156
F0.0
sI3157
F0.0
sI3158
F1.0
sI3159
F0.0
sI3160
F0.0
sI3161
F4.0
sI3162
F1.0
sI3163
F0.0
sI3164
F0.0
sI3165
F0.0
sI3166
F6.0
sI3167
F2.0
sI3168
F0.0
sI3169
F0.0
sI3170
F0.0
sI3171
F0.0
sI3172
F0.0
sI3173
F0.0
sI3174
F0.0
sI3175
F0.0
sI3176
F49.0
sI3177
F0.0
sI3178
F0.0
sI3179
F0.0
sI3180
F4.0
sI3181
F0.0
sI3182
F0.0
sI3183
F0.0
sI3184
F0.0
sI3185
F0.0
sI3186
F0.0
sI3187
F0.0
sI3188
F0.0
sI3189
F0.0
sI3190
F0.0
sI3191
F0.0
sI3192
F0.0
sI3193
F0.0
sI3194
F0.0
sI3195
F3.0
sI3196
F0.0
sI3197
F0.0
sI3198
F0.0
sI3199
F0.0
sI3200
F0.0
sI3201
F1.0
sI3202
F0.0
sI3203
F0.0
sI3204
F0.0
sI3205
F0.0
sI3206
F0.0
sI3207
F0.0
sI3208
F5.0
sI3209
F0.0
sI3210
F0.0
sI3211
F2.0
sI3212
F0.0
sI3213
F0.0
sI3214
F0.0
sI3215
F0.0
sI3216
F0.0
sI3217
F5.0
sI3218
F0.0
sI3219
F0.0
sI3220
F0.0
sI3221
F22.0
sI3222
F0.0
sI3223
F0.0
sI3224
F3.0
sI3225
F0.0
sI3226
F0.0
sI3227
F0.0
sI3228
F0.0
sI3229
F5.0
sI3230
F0.0
sI3231
F3.0
sI3232
F1.0
sI3233
F9.0
sI3234
F2.0
sI3235
F0.0
sI3236
F0.0
sI3237
F1.0
sI3238
F0.0
sI3239
F0.0
sI3240
F0.0
sI3241
F0.0
sI3242
F0.0
sI3243
F2.0
sI3244
F0.0
sI3245
F0.0
sI3246
F3.0
sI3247
F4.0
sI3248
F0.0
sI3249
F0.0
sI3250
F0.0
sI3251
F1.0
sI3252
F0.0
sI3253
F0.0
sI3254
F1.0
sI3255
F0.0
sI3256
F0.0
sI3257
F0.0
sI3258
F0.0
sI3259
F0.0
sI3260
F1.0
sI3261
F0.0
sI3262
F0.0
sI3263
F0.0
sI3264
F0.0
sI3265
F0.0
sI3266
F1.0
sI3267
F1.0
sI3268
F0.0
sI3269
F34.0
sI3270
F0.0
sI3271
F1.0
sI3272
F0.0
sI3273
F0.0
sI3274
F0.0
sI3275
F0.0
sI3276
F0.0
sI3277
F0.0
sI3278
F1.0
sI3279
F0.0
sI3280
F2.0
sI3281
F1.0
sI3282
F0.0
sI3283
F1.0
sI3284
F0.0
sI3285
F0.0
sI3286
F3.0
sI3287
F0.0
sI3288
F0.0
sI3289
F0.0
sI3290
F0.0
sI3291
F0.0
sI3292
F1.0
sI3293
F0.0
sI3294
F0.0
sI3295
F0.0
sI3296
F1.0
sI3297
F0.0
sI3298
F0.0
sI3299
F0.0
sI3300
F0.0
sI3301
F0.0
sI3302
F0.0
sI3303
F0.0
sI3304
F0.0
sI3305
F0.0
sI3306
F1.0
sI3307
F6.0
sI3308
F2.0
sI3309
F1.0
sI3310
F0.0
sI3311
F0.0
sI3312
F0.0
sI3313
F0.0
sI3314
F0.0
sI3315
F0.0
sI3316
F0.0
sI3317
F4.0
sI3318
F0.0
sI3319
F0.0
sI3320
F2.0
sI3321
F0.0
sI3322
F0.0
sI3323
F0.0
sI3324
F0.0
sI3325
F3.0
sI3326
F50.0
sI3327
F0.0
sI3328
F14.0
sI3329
F2.0
sI3330
F0.0
sI3331
F0.0
sI3332
F7.0
sI3333
F1.0
sI3334
F0.0
sI3335
F0.0
sI3336
F4.0
sI3337
F0.0
sI3338
F0.0
sI3339
F0.0
sI3340
F0.0
sI3341
F1.0
sI3342
F0.0
sI3343
F0.0
sI3344
F0.0
sI3345
F6.0
sI3346
F0.0
sI3347
F0.0
sI3348
F0.0
sI3349
F0.0
sI3350
F0.0
sI3351
F0.0
sI3352
F0.0
sI3353
F0.0
sI3354
F0.0
sI3355
F1.0
sI3356
F0.0
sI3357
F0.0
sI3358
F0.0
sI3359
F0.0
sI3360
F0.0
sI3361
F0.0
sI3362
F0.0
sI3363
F19.0
sI3364
F1.0
sI3365
F2.0
sI3366
F5.0
sI3367
F0.0
sI3368
F101.0
sI3369
F24.0
sI3370
F0.0
sI3371
F0.0
sI3372
F0.0
sI3373
F0.0
sI3374
F0.0
sI3375
F0.0
sI3376
F0.0
sI3377
F0.0
sI3378
F1.0
sI3379
F0.0
sI3380
F0.0
sI3381
F0.0
sI3382
F2.0
sI3383
F0.0
sI3384
F2.0
sI3385
F8.0
sI3386
F0.0
sI3387
F0.0
sI3388
F0.0
sI3389
F9.0
sI3390
F2.0
sI3391
F0.0
sI3392
F0.0
sI3393
F0.0
sI3394
F0.0
sI3395
F5.0
sI3396
F0.0
sI3397
F0.0
sI3398
F0.0
sI3399
F0.0
sI3400
F9.0
sI3401
F0.0
sI3402
F0.0
sI3403
F0.0
sI3404
F0.0
sI3405
F0.0
sI3406
F2.0
sI3407
F0.0
sI3408
F0.0
sI3409
F0.0
sI3410
F0.0
sI3411
F2.0
sI3412
F0.0
sI3413
F0.0
sI3414
F0.0
sI3415
F0.0
sI3416
F0.0
sI3417
F3.0
sI3418
F0.0
sI3419
F3.0
sI3420
F1.0
sI3421
F0.0
sI3422
F0.0
sI3423
F0.0
sI3424
F0.0
sI3425
F3.0
sI3426
F0.0
sI3427
F0.0
sI3428
F0.0
sI3429
F1.0
sI3430
F4.0
sI3431
F0.0
sI3432
F0.0
sI3433
F0.0
sI3434
F0.0
sI3435
F0.0
sI3436
F4.0
sI3437
F0.0
sI3438
F0.0
sI3439
F0.0
sI3440
F3.0
sI3441
F3.0
sI3442
F0.0
sI3443
F0.0
sI3444
F1.0
sI3445
F0.0
sI3446
F0.0
sI3447
F0.0
sI3448
F0.0
sI3449
F1.0
sI3450
F0.0
sI3451
F1.0
sI3452
F3.0
sI3453
F0.0
sI3454
F0.0
sI3455
F0.0
sI3456
F7.0
sI3457
F1.0
sI3458
F0.0
sI3459
F0.0
sI3460
F1.0
sI3461
F0.0
sI3462
F2.0
sI3463
F0.0
sI3464
F0.0
sI3465
F0.0
sI3466
F0.0
sI3467
F0.0
sI3468
F3.0
sI3469
F0.0
sI3470
F1.0
sI3471
F0.0
sI3472
F0.0
sI3473
F0.0
sI3474
F0.0
sI3475
F0.0
sI3476
F6.0
sI3477
F0.0
sI3478
F0.0
sI3479
F0.0
sI3480
F1.0
sI3481
F0.0
sI3482
F5.0
sI3483
F4.0
sI3484
F0.0
sI3485
F0.0
sI3486
F0.0
sI3487
F2.0
sI3488
F0.0
sI3489
F0.0
sI3490
F0.0
sI3491
F0.0
sI3492
F4.0
sI3493
F0.0
sI3494
F0.0
sI3495
F0.0
sI3496
F0.0
sI3497
F1.0
sI3498
F0.0
sI3499
F4.0
sI3500
F0.0
sI3501
F0.0
sI3502
F0.0
sI3503
F0.0
sI3504
F3.0
sI3505
F0.0
sI3506
F1.0
sI3507
F0.0
sI3508
F0.0
sI3509
F1.0
sI3510
F0.0
sI3511
F0.0
sI3512
F0.0
sI3513
F0.0
sI3514
F0.0
sI3515
F0.0
sI3516
F0.0
sI3517
F0.0
sI3518
F0.0
sI3519
F0.0
sI3520
F0.0
sI3521
F0.0
sI3522
F0.0
sI3523
F0.0
sI3524
F0.0
sI3525
F1.0
sI3526
F1.0
sI3527
F0.0
sI3528
F0.0
sI3529
F0.0
sI3530
F0.0
sI3531
F0.0
sI3532
F0.0
sI3533
F0.0
sI3534
F0.0
sI3535
F0.0
sI3536
F0.0
sI3537
F0.0
sI3538
F0.0
sI3539
F0.0
sI3540
F0.0
sI3541
F0.0
sI3542
F0.0
sI3543
F16.0
sI3544
F0.0
sI3545
F0.0
sI3546
F0.0
sI3547
F0.0
sI3548
F73.0
sI3549
F0.0
sI3550
F0.0
sI3551
F8.0
sI3552
F0.0
sI3553
F0.0
sI3554
F0.0
sI3555
F0.0
sI3556
F0.0
sI3557
F2.0
sI3558
F0.0
sI3559
F0.0
sI3560
F5.0
sI3561
F0.0
sI3562
F0.0
sI3563
F0.0
sI3564
F2.0
sI3565
F1.0
sI3566
F1.0
sI3567
F5.0
sI3568
F2.0
sI3569
F0.0
sI3570
F1.0
sI3571
F0.0
sI3572
F0.0
sI3573
F0.0
sI3574
F0.0
sI3575
F0.0
sI3576
F0.0
sI3577
F0.0
sI3578
F0.0
sI3579
F0.0
sI3580
F4.0
sI3581
F0.0
sI3582
F1.0
sI3583
F0.0
sI3584
F0.0
sI3585
F0.0
sI3586
F78.0
sI3587
F0.0
sI3588
F1.0
sI3589
F0.0
sI3590
F1.0
sI3591
F2.0
sI3592
F0.0
sI3593
F0.0
sI3594
F0.0
sI3595
F1.0
sI3596
F0.0
sI3597
F1.0
sI3598
F8.0
sI3599
F3.0
sI3600
F3.0
sI3601
F0.0
sI3602
F0.0
sI3603
F0.0
sI3604
F2.0
sI3605
F0.0
sI3606
F0.0
sI3607
F0.0
sI3608
F0.0
sI3609
F2.0
sI3610
F1.0
sI3611
F1.0
sI3612
F0.0
sI3613
F0.0
sI3614
F0.0
sI3615
F0.0
sI3616
F0.0
sI3617
F3.0
sI3618
F0.0
sI3619
F0.0
sI3620
F0.0
sI3621
F0.0
sI3622
F0.0
sI3623
F31.0
sI3624
F0.0
sI3625
F0.0
sI3626
F0.0
sI3627
F0.0
sI3628
F0.0
sI3629
F0.0
sI3630
F0.0
sI3631
F0.0
sI3632
F0.0
sI3633
F58.0
sI3634
F2.0
sI3635
F0.0
sI3636
F0.0
sI3637
F1.0
sI3638
F0.0
sI3639
F1.0
sI3640
F0.0
sI3641
F0.0
sI3642
F0.0
sI3643
F0.0
sI3644
F2.0
sI3645
F0.0
sI3646
F0.0
sI3647
F0.0
sI3648
F0.0
sI3649
F1.0
sI3650
F0.0
sI3651
F0.0
sI3652
F3.0
sI3653
F0.0
sI3654
F1.0
sI3655
F0.0
sI3656
F0.0
sI3657
F0.0
sI3658
F0.0
sI3659
F0.0
sI3660
F0.0
sI3661
F0.0
sI3662
F0.0
sI3663
F0.0
sI3664
F7.0
sI3665
F0.0
sI3666
F0.0
sI3667
F1.0
sI3668
F0.0
sI3669
F1.0
sI3670
F0.0
sI3671
F1.0
sI3672
F3.0
sI3673
F0.0
sI3674
F0.0
sI3675
F0.0
sI3676
F0.0
sI3677
F0.0
sI3678
F0.0
sI3679
F0.0
sI3680
F0.0
sI3681
F0.0
sI3682
F0.0
sI3683
F0.0
sI3684
F1.0
sI3685
F0.0
sI3686
F0.0
sI3687
F0.0
sI3688
F0.0
sI3689
F0.0
sI3690
F0.0
sI3691
F0.0
sI3692
F1.0
sI3693
F0.0
sI3694
F1.0
sI3695
F1.0
sI3696
F0.0
sI3697
F0.0
sI3698
F1.0
sI3699
F1.0
sI3700
F0.0
sI3701
F0.0
sI3702
F5.0
sI3703
F0.0
sI3704
F0.0
sI3705
F0.0
sI3706
F1.0
sI3707
F0.0
sI3708
F0.0
sI3709
F0.0
sI3710
F0.0
sI3711
F6.0
sI3712
F0.0
sI3713
F0.0
sI3714
F0.0
sI3715
F22.0
sI3716
F0.0
sI3717
F0.0
sI3718
F1.0
sI3719
F0.0
sI3720
F2.0
sI3721
F0.0
sI3722
F0.0
sI3723
F0.0
sI3724
F0.0
sI3725
F0.0
sI3726
F2.0
sI3727
F0.0
sI3728
F0.0
sI3729
F0.0
sI3730
F1.0
sI3731
F0.0
sI3732
F0.0
sI3733
F0.0
sI3734
F2.0
sI3735
F0.0
sI3736
F1.0
sI3737
F0.0
sI3738
F0.0
sI3739
F0.0
sI3740
F0.0
sI3741
F0.0
sI3742
F0.0
sI3743
F0.0
sI3744
F0.0
sI3745
F1.0
sI3746
F33.0
sI3747
F0.0
sI3748
F0.0
sI3749
F257.0
sI3750
F0.0
sI3751
F0.0
sI3752
F0.0
sI3753
F0.0
sI3754
F0.0
sI3755
F0.0
sI3756
F0.0
sI3757
F0.0
sI3758
F0.0
sI3759
F0.0
sI3760
F0.0
sI3761
F2.0
sI3762
F12.0
sI3763
F0.0
sI3764
F0.0
sI3765
F0.0
sI3766
F0.0
sI3767
F0.0
sI3768
F0.0
sI3769
F0.0
sI3770
F0.0
sI3771
F0.0
sI3772
F3.0
sI3773
F1.0
sI3774
F8.0
sI3775
F0.0
sI3776
F2.0
sI3777
F0.0
sI3778
F0.0
sI3779
F3.0
sI3780
F0.0
sI3781
F0.0
sI3782
F0.0
sI3783
F0.0
sI3784
F0.0
sI3785
F3.0
sI3786
F0.0
sI3787
F0.0
sI3788
F0.0
sI3789
F2.0
sI3790
F0.0
sI3791
F0.0
sI3792
F0.0
sI3793
F1.0
sI3794
F0.0
sI3795
F1.0
sI3796
F0.0
sI3797
F0.0
sI3798
F0.0
sI3799
F0.0
sI3800
F4.0
sI3801
F6.0
sI3802
F0.0
sI3803
F0.0
sI3804
F0.0
sI3805
F14.0
sI3806
F0.0
sI3807
F0.0
sI3808
F0.0
sI3809
F0.0
sI3810
F0.0
sI3811
F1.0
sI3812
F0.0
sI3813
F0.0
sI3814
F1.0
sI3815
F0.0
sI3816
F4.0
sI3817
F2.0
sI3818
F3.0
sI3819
F2.0
sI3820
F6.0
sI3821
F1.0
sI3822
F0.0
sI3823
F5.0
sI3824
F4.0
sI3825
F2.0
sI3826
F0.0
sI3827
F28.0
sI3828
F1.0
sI3829
F0.0
sI3830
F0.0
sI3831
F3.0
sI3832
F0.0
sI3833
F0.0
sI3834
F0.0
sI3835
F0.0
sI3836
F0.0
sI3837
F0.0
sI3838
F0.0
sI3839
F0.0
sI3840
F1.0
sI3841
F0.0
sI3842
F0.0
sI3843
F0.0
sI3844
F0.0
sI3845
F1.0
sI3846
F0.0
sI3847
F0.0
sI3848
F0.0
sI3849
F0.0
sI3850
F0.0
sI3851
F0.0
sI3852
F0.0
sI3853
F0.0
sI3854
F0.0
sI3855
F1.0
sI3856
F0.0
sI3857
F0.0
sI3858
F2.0
sI3859
F0.0
sI3860
F0.0
sI3861
F0.0
sI3862
F1.0
sI3863
F0.0
sI3864
F0.0
sI3865
F0.0
sI3866
F0.0
sI3867
F0.0
sI3868
F0.0
sI3869
F0.0
sI3870
F0.0
sI3871
F0.0
sI3872
F1.0
sI3873
F0.0
sI3874
F13.0
sI3875
F0.0
sI3876
F2.0
sI3877
F1.0
sI3878
F0.0
sI3879
F0.0
sI3880
F0.0
sI3881
F0.0
sI3882
F0.0
sI3883
F21.0
sI3884
F0.0
sI3885
F0.0
sI3886
F0.0
sI3887
F1.0
sI3888
F1.0
sI3889
F0.0
sI3890
F0.0
sI3891
F0.0
sI3892
F1.0
sI3893
F0.0
sI3894
F0.0
sI3895
F1.0
sI3896
F0.0
sI3897
F0.0
sI3898
F4.0
sI3899
F0.0
sI3900
F0.0
sI3901
F0.0
sI3902
F5.0
sI3903
F1.0
sI3904
F0.0
sI3905
F0.0
sI3906
F0.0
sI3907
F1.0
sI3908
F0.0
sI3909
F0.0
sI3910
F0.0
sI3911
F0.0
sI3912
F4.0
sI3913
F0.0
sI3914
F1.0
sI3915
F1.0
sI3916
F0.0
sI3917
F0.0
sI3918
F0.0
sI3919
F0.0
sI3920
F0.0
sI3921
F0.0
sI3922
F0.0
sI3923
F0.0
sI3924
F0.0
sI3925
F1.0
sI3926
F1.0
sI3927
F0.0
sI3928
F2.0
sI3929
F2.0
sI3930
F0.0
sI3931
F1.0
sI3932
F0.0
sI3933
F0.0
sI3934
F0.0
sI3935
F1.0
sI3936
F0.0
sI3937
F0.0
sI3938
F6.0
sI3939
F2.0
sI3940
F0.0
sI3941
F0.0
sI3942
F0.0
sI3943
F0.0
sI3944
F0.0
sI3945
F4.0
sI3946
F5.0
sI3947
F0.0
sI3948
F0.0
sI3949
F0.0
sI3950
F0.0
sI3951
F0.0
sI3952
F0.0
sI3953
F0.0
sI3954
F0.0
sI3955
F0.0
sI3956
F1.0
sI3957
F2.0
sI3958
F0.0
sI3959
F5.0
sI3960
F1.0
sI3961
F0.0
sI3962
F0.0
sI3963
F3.0
sI3964
F0.0
sI3965
F0.0
sI3966
F0.0
sI3967
F15.0
sI3968
F2.0
sI3969
F1.0
sI3970
F1.0
sI3971
F0.0
sI3972
F0.0
sI3973
F0.0
sI3974
F4.0
sI3975
F0.0
sI3976
F0.0
sI3977
F0.0
sI3978
F1.0
sI3979
F0.0
sI3980
F0.0
sI3981
F0.0
sI3982
F38.0
sI3983
F1.0
sI3984
F0.0
sI3985
F0.0
sI3986
F1.0
sI3987
F0.0
sI3988
F0.0
sI3989
F17.0
sI3990
F0.0
sI3991
F0.0
sI3992
F0.0
sI3993
F1.0
sI3994
F0.0
sI3995
F0.0
sI3996
F0.0
sI3997
F2.0
sI3998
F1.0
sI3999
F48.0
sI4000
F2.0
sI4001
F6.0
sI4002
F5.0
sI4003
F0.0
sI4004
F0.0
sI4005
F0.0
sI4006
F0.0
sI4007
F0.0
sI4008
F0.0
sI4009
F4.0
sI4010
F0.0
sI4011
F0.0
sI4012
F1.0
sI4013
F0.0
sI4014
F0.0
sI4015
F0.0
sI4016
F0.0
sI4017
F36.0
sI4018
F0.0
sI4019
F0.0
sI4020
F0.0
sI4021
F0.0
sI4022
F1.0
sI4023
F1.0
sI4024
F0.0
sI4025
F0.0
sI4026
F0.0
sI4027
F4.0
sI4028
F0.0
sI4029
F2.0
sI4030
F0.0
sI4031
F20.0
sI4032
F0.0
sI4033
F0.0
sI4034
F0.0
sI4035
F11.0
sI4036
F0.0
sI4037
F0.0
sI4038
F1.0
sI4039
F0.0
sI4040
F0.0
sI4041
F0.0
sI4042
F0.0
sI4043
F0.0
sI4044
F0.0
sI4045
F0.0
sI4046
F0.0
sI4047
F1.0
sI4048
F0.0
sI4049
F1.0
sI4050
F0.0
sI4051
F0.0
sI4052
F0.0
sI4053
F0.0
sI4054
F20.0
sI4055
F3.0
sI4056
F0.0
sI4057
F0.0
sI4058
F2.0
sI4059
F0.0
sI4060
F1.0
sI4061
F2.0
sI4062
F0.0
sI4063
F0.0
sI4064
F0.0
sI4065
F0.0
sI4066
F0.0
sI4067
F0.0
sI4068
F0.0
sI4069
F0.0
sI4070
F0.0
sI4071
F5.0
sI4072
F1.0
sI4073
F0.0
sI4074
F0.0
sI4075
F0.0
sI4076
F0.0
sI4077
F0.0
sI4078
F2.0
sI4079
F0.0
sI4080
F0.0
sI4081
F0.0
sI4082
F2.0
sI4083
F0.0
sI4084
F2.0
sI4085
F3.0
sI4086
F7.0
sI4087
F0.0
sI4088
F0.0
sI4089
F0.0
sI4090
F0.0
sI4091
F0.0
sI4092
F0.0
sI4093
F0.0
sI4094
F2.0
sI4095
F0.0
sI4096
F1.0
sI4097
F0.0
sI4098
F1.0
sI4099
F0.0
sI4100
F1.0
sI4101
F0.0
sI4102
F1.0
sI4103
F0.0
sI4104
F1.0
sI4105
F20.0
sI4106
F0.0
sI4107
F0.0
sI4108
F0.0
sI4109
F0.0
sI4110
F0.0
sI4111
F0.0
sI4112
F0.0
sI4113
F0.0
sI4114
F0.0
sI4115
F0.0
sI4116
F1.0
sI4117
F0.0
sI4118
F3.0
sI4119
F0.0
sI4120
F0.0
sI4121
F0.0
sI4122
F0.0
sI4123
F0.0
sI4124
F0.0
sI4125
F0.0
sI4126
F6.0
sI4127
F0.0
sI4128
F0.0
sI4129
F0.0
sI4130
F5.0
sI4131
F2.0
sI4132
F0.0
sI4133
F0.0
sI4134
F0.0
sI4135
F0.0
sI4136
F0.0
sI4137
F4.0
sI4138
F0.0
sI4139
F0.0
sI4140
F1.0
sI4141
F0.0
sI4142
F0.0
sI4143
F0.0
sI4144
F1.0
sI4145
F4.0
sI4146
F0.0
sI4147
F0.0
sI4148
F0.0
sI4149
F0.0
sI4150
F0.0
sI4151
F0.0
sI4152
F0.0
sI4153
F0.0
sI4154
F0.0
sI4155
F0.0
sI4156
F0.0
sI4157
F0.0
sI4158
F0.0
sI4159
F0.0
sI4160
F0.0
sI4161
F9.0
sI4162
F1.0
sI4163
F0.0
sI4164
F0.0
sI4165
F0.0
sI4166
F0.0
sI4167
F0.0
sI4168
F0.0
sI4169
F0.0
sI4170
F0.0
sI4171
F1.0
sI4172
F0.0
sI4173
F3.0
sI4174
F1.0
sI4175
F0.0
sI4176
F0.0
sI4177
F0.0
sI4178
F1.0
sI4179
F0.0
sI4180
F0.0
sI4181
F0.0
sI4182
F3.0
sI4183
F0.0
sI4184
F0.0
sI4185
F0.0
sI4186
F0.0
sI4187
F1.0
sI4188
F0.0
sI4189
F0.0
sI4190
F0.0
sI4191
F0.0
sI4192
F0.0
sI4193
F0.0
sI4194
F0.0
sI4195
F0.0
sI4196
F0.0
sI4197
F0.0
sI4198
F0.0
sI4199
F0.0
sI4200
F0.0
sI4201
F0.0
sI4202
F0.0
sI4203
F7.0
sI4204
F0.0
sI4205
F19.0
sI4206
F0.0
sI4207
F0.0
sI4208
F0.0
sI4209
F0.0
sI4210
F0.0
sI4211
F1.0
sI4212
F0.0
sI4213
F0.0
sI4214
F0.0
sI4215
F0.0
sI4216
F0.0
sI4217
F0.0
sI4218
F3.0
sI4219
F0.0
sI4220
F0.0
sI4221
F0.0
sI4222
F0.0
sI4223
F0.0
sI4224
F1.0
sI4225
F0.0
sI4226
F0.0
sI4227
F0.0
sI4228
F0.0
sI4229
F2.0
sI4230
F0.0
sI4231
F1.0
sI4232
F0.0
sI4233
F1.0
sI4234
F0.0
sI4235
F0.0
sI4236
F0.0
sI4237
F1.0
sI4238
F0.0
sI4239
F0.0
sI4240
F0.0
sI4241
F0.0
sI4242
F0.0
sI4243
F0.0
sI4244
F0.0
sI4245
F25.0
sI4246
F0.0
sI4247
F0.0
sI4248
F0.0
sI4249
F1.0
sI4250
F1.0
sI4251
F0.0
sI4252
F0.0
sI4253
F0.0
sI4254
F0.0
sI4255
F0.0
sI4256
F0.0
sI4257
F0.0
sI4258
F0.0
sI4259
F0.0
sI4260
F0.0
sI4261
F0.0
sI4262
F0.0
sI4263
F0.0
sI4264
F0.0
sI4265
F1.0
sI4266
F0.0
sI4267
F1.0
sI4268
F0.0
sI4269
F0.0
sI4270
F0.0
sI4271
F0.0
sI4272
F0.0
sI4273
F67.0
sI4274
F0.0
sI4275
F0.0
sI4276
F1.0
sI4277
F0.0
sI4278
F2.0
sI4279
F2.0
sI4280
F212.0
sI4281
F1.0
sI4282
F0.0
sI4283
F0.0
sI4284
F0.0
sI4285
F0.0
sI4286
F0.0
sI4287
F0.0
sI4288
F2.0
sI4289
F1.0
sI4290
F0.0
sI4291
F5.0
sI4292
F1.0
sI4293
F3.0
sI4294
F1.0
sI4295
F0.0
sI4296
F0.0
sI4297
F0.0
sI4298
F0.0
sI4299
F0.0
sI4300
F0.0
sI4301
F0.0
sI4302
F1.0
sI4303
F0.0
sI4304
F2.0
sI4305
F3.0
sI4306
F0.0
sI4307
F0.0
sI4308
F0.0
sI4309
F11.0
sI4310
F7.0
sI4311
F0.0
sI4312
F0.0
sI4313
F0.0
sI4314
F0.0
sI4315
F13.0
sI4316
F0.0
sI4317
F0.0
sI4318
F0.0
sI4319
F0.0
sI4320
F0.0
sI4321
F0.0
sI4322
F1.0
sI4323
F15.0
sI4324
F0.0
sI4325
F0.0
sI4326
F0.0
sI4327
F0.0
sI4328
F0.0
sI4329
F25.0
sI4330
F0.0
sI4331
F0.0
sI4332
F0.0
sI4333
F0.0
sI4334
F1.0
sI4335
F1.0
sI4336
F0.0
sI4337
F0.0
sI4338
F0.0
sI4339
F0.0
sI4340
F0.0
sI4341
F0.0
sI4342
F0.0
sI4343
F0.0
sI4344
F0.0
sI4345
F1.0
sI4346
F0.0
sI4347
F0.0
sI4348
F0.0
sI4349
F0.0
sI4350
F0.0
sI4351
F0.0
sI4352
F3.0
sI4353
F11.0
sI4354
F1.0
sI4355
F0.0
sI4356
F0.0
sI4357
F0.0
sI4358
F0.0
sI4359
F0.0
sI4360
F2.0
sI4361
F0.0
sI4362
F5.0
sI4363
F15.0
sI4364
F0.0
sI4365
F1.0
sI4366
F0.0
sI4367
F0.0
sI4368
F0.0
sI4369
F3.0
sI4370
F0.0
sI4371
F0.0
sI4372
F0.0
sI4373
F2.0
sI4374
F0.0
sI4375
F0.0
sI4376
F0.0
sI4377
F0.0
sI4378
F0.0
sI4379
F1.0
sI4380
F0.0
sI4381
F1.0
sI4382
F0.0
sI4383
F0.0
sI4384
F1.0
sI4385
F0.0
sI4386
F1.0
sI4387
F0.0
sI4388
F0.0
sI4389
F0.0
sI4390
F0.0
sI4391
F0.0
sI4392
F0.0
sI4393
F0.0
sI4394
F3.0
sI4395
F0.0
sI4396
F0.0
sI4397
F0.0
sI4398
F1.0
sI4399
F0.0
sI4400
F0.0
sI4401
F0.0
sI4402
F10.0
sI4403
F0.0
sI4404
F5.0
sI4405
F0.0
sI4406
F0.0
sI4407
F1.0
sI4408
F0.0
sI4409
F0.0
sI4410
F1.0
sI4411
F0.0
sI4412
F2.0
sI4413
F0.0
sI4414
F4.0
sI4415
F0.0
sI4416
F0.0
sI4417
F1.0
sI4418
F3.0
sI4419
F0.0
sI4420
F2.0
sI4421
F0.0
sI4422
F0.0
sI4423
F0.0
sI4424
F3.0
sI4425
F0.0
sI4426
F0.0
sI4427
F0.0
sI4428
F1.0
sI4429
F36.0
sI4430
F1.0
sI4431
F0.0
sI4432
F0.0
sI4433
F0.0
sI4434
F0.0
sI4435
F0.0
sI4436
F4.0
sI4437
F0.0
sI4438
F0.0
sI4439
F0.0
sI4440
F0.0
s.