(lp0
(lp1
a(lp2
a(lp3
a(lp4
a(lp5
a(lp6
a(lp7
a(lp8
I2083
aI2652
aa(lp9
I2928
aI2083
aI1606
aI400
aI569
aI2652
aI1599
aa(lp10
a(lp11
a(lp12
a(lp13
a(lp14
I1658
aI246
aa(lp15
a(lp16
a(lp17
a(lp18
I1889
aI1090
aI2083
aI4429
aI1759
aa(lp19
a(lp20
a(lp21
I569
aI2855
aI2932
aI1599
aa(lp22
I3033
aI1116
aI878
aa(lp23
a(lp24
a(lp25
I2760
aI412
aa(lp26
I1393
aI1589
aa(lp27
I1761
aI374
aI1230
aI3749
aI1589
aI758
aI3033
aI2238
aI1599
aa(lp28
a(lp29
a(lp30
a(lp31
a(lp32
a(lp33
a(lp34
a(lp35
a(lp36
a(lp37
I2040
aI2044
aI3363
aI1116
aa(lp38
a(lp39
a(lp40
a(lp41
I2208
aI1276
aa(lp42
a(lp43
I640
aI2928
aI2083
aI2855
aI1436
aI400
aI2652
aI2932
aI374
aI569
aI3036
aI1599
aa(lp44
a(lp45
a(lp46
a(lp47
a(lp48
a(lp49
I1576
aI1599
aa(lp50
a(lp51
a(lp52
a(lp53
a(lp54
a(lp55
a(lp56
a(lp57
a(lp58
a(lp59
I835
aI3749
aa(lp60
I3033
aI1230
aa(lp61
a(lp62
a(lp63
a(lp64
I835
aI246
aa(lp65
a(lp66
I1393
aI1974
aI758
aa(lp67
I4017
aI3326
aa(lp68
a(lp69
a(lp70
a(lp71
a(lp72
a(lp73
I2676
aI3749
aa(lp74
a(lp75
a(lp76
I1576
aI3033
aI758
aa(lp77
a(lp78
I2387
aI1276
aI1974
aa(lp79
a(lp80
I1116
aI553
aI2044
aa(lp81
a(lp82
a(lp83
a(lp84
a(lp85
I569
aI2652
aa(lp86
a(lp87
a(lp88
a(lp89
a(lp90
a(lp91
a(lp92
I3368
aI2760
aI374
aI2040
aI1116
aI2623
aa(lp93
a(lp94
a(lp95
a(lp96
I2083
aI1606
aI1576
aI400
aI3176
aI3221
aI569
aI378
aI2652
aI1599
aa(lp97
I4280
aI3902
aa(lp98
a(lp99
a(lp100
a(lp101
a(lp102
a(lp103
a(lp104
I2760
aI412
aa(lp105
a(lp106
a(lp107
I4280
aI1642
aa(lp108
a(lp109
I2652
aI1606
aa(lp110
I3746
aI3749
aI1034
aI1658
aI2652
aI1477
aa(lp111
I3749
aI1034
aI400
aI1589
aI374
aI1658
aI2652
aa(lp112
a(lp113
a(lp114
I2083
aI400
aI2932
aI569
aI2652
aI3999
aa(lp115
a(lp116
a(lp117
a(lp118
a(lp119
a(lp120
a(lp121
a(lp122
a(lp123
a(lp124
I400
aI2238
aa(lp125
a(lp126
a(lp127
a(lp128
a(lp129
a(lp130
I1576
aI1599
aa(lp131
a(lp132
I1642
aI400
aI2676
aI2932
aI3326
aI246
aI569
aI1034
aI2238
aI639
aa(lp133
I1761
aI1230
aI2516
aI758
aI3033
aI4280
aI377
aI3548
aa(lp134
a(lp135
I3033
aI4429
aI1230
aa(lp136
I2760
aI3586
aI1116
aI2623
aa(lp137
I2083
aI3749
aI1606
aI2932
aI569
aI1599
aa(lp138
a(lp139
a(lp140
a(lp141
a(lp142
I2676
aI2932
aI2134
aI758
aI639
aa(lp143
I2676
aI3749
aa(lp144
a(lp145
a(lp146
a(lp147
I1658
aI1034
aa(lp148
a(lp149
a(lp150
a(lp151
a(lp152
I2928
aI657
aa(lp153
I640
aI2083
aI3749
aI2855
aI2652
aI3036
aI1838
aI400
aI4273
aI2932
aI569
aI3999
aI1116
aI1599
aa(lp154
a(lp155
a(lp156
a(lp157
I2387
aI1276
aa(lp158
a(lp159
I2760
aI1606
aI1230
aa(lp160
a(lp161
I3749
aI1477
aa(lp162
a(lp163
a(lp164
a(lp165
a(lp166
a(lp167
I569
aI2676
aI3749
aa(lp168
a(lp169
a(lp170
a(lp171
a(lp172
a(lp173
a(lp174
a(lp175
I3746
aI246
aI1230
aI1589
aI374
aI3033
aI1658
aa(lp176
a(lp177
a(lp178
a(lp179
a(lp180
a(lp181
a(lp182
I2347
aI3060
aa(lp183
a(lp184
a(lp185
a(lp186
a(lp187
a(lp188
I1576
aI758
aa(lp189
a(lp190
a(lp191
a(lp192
a(lp193
I4280
aI1642
aa(lp194
I3586
aI2347
aI1477
aa(lp195
I3586
aI2347
aa(lp196
a(lp197
a(lp198
a(lp199
I2083
aI1034
aI835
aI2652
aI1658
aa(lp200
a(lp201
a(lp202
I1393
aI1276
aa(lp203
I2760
aI3176
aI412
aI1295
aa(lp204
I1658
aI1034
aa(lp205
a(lp206
I4323
aI1477
aI553
aI1642
aI844
aI400
aI1116
aI3363
aI246
aI377
aI2044
aI2238
aa(lp207
a(lp208
I1034
aI3989
aa(lp209
a(lp210
a(lp211
I1658
aI1034
aI3989
aa(lp212
I3872
aI2244
aI3144
aI1276
aI557
aI1521
aI2750
aI4054
aI1911
aI569
aI2490
aI3195
aI1212
aI285
aI2334
aa(lp213
a(lp214
a(lp215
a(lp216
a(lp217
a(lp218
I835
aI3749
aI2083
aI2040
aI569
aI2652
aa(lp219
a(lp220
a(lp221
a(lp222
I1494
aI639
aa(lp223
a(lp224
I4429
aI3902
aa(lp225
I2928
aI758
aa(lp226
a(lp227
a(lp228
a(lp229
a(lp230
a(lp231
I2760
aI1116
aa(lp232
a(lp233
a(lp234
a(lp235
a(lp236
a(lp237
I878
aI1589
aI374
aa(lp238
a(lp239
I1784
aI3269
aa(lp240
a(lp241
I2516
aI1276
aI1606
aI1230
aI3033
aa(lp242
a(lp243
I569
aI2652
aa(lp244
a(lp245
a(lp246
a(lp247
I640
aI1920
aI131
aI1797
aI4233
aI4363
aI13
aI3086
aI3217
aI3395
aI1428
aI4245
aI4118
aI2456
aI3483
aI287
aI2209
aI2196
aI1919
aI3876
aI2682
aI3692
aI426
aI3654
aI174
aI270
aI693
aI4278
aI1720
aI1387
aI63
aI835
aI2118
aI3400
aI1225
aI1484
aI205
aI1230
aI2829
aI440
aI378
aI2644
aI1294
aI3746
aI4329
aI1658
aI2398
aI1247
aI2171
aI3044
aI2280
aI873
aI1642
aI1899
aI2796
aI4205
aI3328
aI3567
aI1904
aI3456
aI2932
aI3957
aI1271
aI1785
aI4218
aI251
aI3967
aa(lp248
I2387
aI3326
aI1295
aa(lp249
a(lp250
a(lp251
I1642
aI2594
aa(lp252
I246
aI374
aI1642
aI1230
aI2040
aI2387
aI1589
aI758
aI4280
aI3033
aI3749
aI1599
aa(lp253
a(lp254
I3033
aI1230
aa(lp255
a(lp256
a(lp257
I3269
aI4273
aI1576
aI2928
aI1393
aI2932
aI1974
aI4280
aI377
aI2746
aI1599
aa(lp258
a(lp259
I1589
aI374
aa(lp260
a(lp261
a(lp262
a(lp263
a(lp264
a(lp265
a(lp266
a(lp267
I1430
aI3543
aa(lp268
a(lp269
a(lp270
a(lp271
I4323
aI1974
aI553
aI2347
aI400
aI2676
aI915
aI2932
aI246
aI569
aI377
aI2044
aI2238
aI639
aa(lp272
a(lp273
a(lp274
I3749
aI1034
aI4273
aI3221
aI758
aI3033
aI377
aI3548
aI639
aa(lp275
a(lp276
I377
aI4323
aa(lp277
a(lp278
I4017
aI1276
aa(lp279
a(lp280
I1576
aI1393
aI1974
aI1599
aa(lp281
I835
aI2796
aa(lp282
a(lp283
a(lp284
I3586
aI2347
aa(lp285
a(lp286
I2387
aI211
aI1276
aa(lp287
a(lp288
I1642
aI400
aI2676
aI2932
aI3326
aI246
aI569
aI1034
aI2238
aI639
aa(lp289
a(lp290
a(lp291
a(lp292
a(lp293
a(lp294
I569
aI2083
aI1599
aa(lp295
a(lp296
I4280
aI377
aI835
aI3221
aI569
aa(lp297
I2676
aI3749
aa(lp298
a(lp299
a(lp300
a(lp301
a(lp302
a(lp303
I1589
aI374
aa(lp304
a(lp305
a(lp306
a(lp307
I1784
aI2256
aI3269
aI1895
aa(lp308
a(lp309
a(lp310
I2986
aI708
aI4310
aI3543
aa(lp311
a(lp312
I1784
aI1186
aI3269
aI1390
aa(lp313
a(lp314
I1658
aI1034
aa(lp315
a(lp316
I2387
aI1276
aa(lp317
I1603
aI1925
aI2855
aI844
aI979
aI823
aI2937
aI3907
aI2395
aa(lp318
a(lp319
a(lp320
a(lp321
I569
aI2676
aa(lp322
a(lp323
a(lp324
I1576
aI672
aI3586
aI1227
aI3457
aa(lp325
a(lp326
I4280
aI1642
aI878
aa(lp327
I4273
aI758
aa(lp328
a(lp329
a(lp330
a(lp331
a(lp332
a(lp333
a(lp334
a(lp335
a(lp336
a(lp337
a(lp338
a(lp339
a(lp340
I2208
aI1359
aI1393
aI2387
aI1912
aI1276
aa(lp341
a(lp342
a(lp343
a(lp344
a(lp345
I3548
aI1589
aI374
aa(lp346
a(lp347
a(lp348
I2387
aI1276
aa(lp349
I569
aI2083
aI4105
aa(lp350
a(lp351
a(lp352
a(lp353
I1658
aI1034
aI3989
aa(lp354
I1658
aI1034
aa(lp355
I569
aI2083
aa(lp356
I2760
aI2108
aI686
aI878
aI4279
aa(lp357
a(lp358
a(lp359
I2760
aI2623
aa(lp360
a(lp361
a(lp362
a(lp363
I1276
aI1494
aa(lp364
a(lp365
I3036
aI2932
aa(lp366
I3586
aI2347
aa(lp367
a(lp368
a(lp369
a(lp370
I3033
aI1606
aI1230
aI758
aa(lp371
I2387
aI1276
aa(lp372
a(lp373
a(lp374
a(lp375
I4100
aI4102
aI4353
aI1041
aI1560
aI26
aI3104
aI4130
aI2086
aI3623
aI1576
aI42
aI3116
aI1585
aI1074
aI1589
aI2102
aI569
aI2620
aI3649
aI1090
aI3652
aI4173
aI2644
aI91
aI1632
aI1633
aI2660
aI2321
aI2152
aI4203
aI3180
aI4205
aI110
aI1136
aI3699
aI1654
aI1656
aI3706
aI1660
aI3711
aI2183
aI1173
aI1686
aI3736
aI4292
aI2212
aI1191
aI174
aI2226
aI2229
aI3254
aI1207
aI705
aI1732
aI1225
aI3800
aI1244
aI3307
aI236
aI3320
aI251
aI1789
aI3329
aI258
aI4363
aI1297
aI3858
aI1304
aI4381
aI1828
aI2855
aI3368
aI3036
aI302
aI836
aI396
aI2382
aI3926
aI344
aI2912
aI3938
aI3946
aI878
aI1393
aI377
aI3967
aI3462
aI3468
aI1426
aI3476
aI1437
aI423
aI2990
aI1480
aI969
aI1995
aI1996
aI4049
aI3548
aI477
aI3038
aI3551
aI494
aI1533
aI2036
aI2552
aI2557
aI1023
aa(lp376
a(lp377
I1230
aI758
aa(lp378
I4245
aI897
aI1667
aI132
aI1029
aI2275
aI2668
aI1111
aI270
aI2285
aI2832
aI1041
aI1554
aI275
aI3221
aI3332
aI4379
aI413
aI3998
aI2335
aI2082
aI3492
aI295
aI3368
aI551
aI683
aI1309
aI4017
aI2670
aI1589
aI1207
aI4280
aI3385
aI954
aI3487
aI3644
aI3389
aI1417
aI705
aI3269
aI3425
aI2798
aI2634
aI2338
aI205
aI1873
aI3811
aI2516
aI1959
aI1238
aI3671
aI4086
aI3983
aI1244
aI3551
aI1761
aI4323
aI256
aI2405
aI273
aI4203
aI3180
aI530
aI4078
aI3823
aI1908
aI374
aI1784
aI2655
aI3963
aI3711
aa(lp379
I4278
aI3883
aI3654
aI1606
aI2760
aI1227
aI1230
aI3176
aI246
aI95
aa(lp380
a(lp381
a(lp382
a(lp383
I2083
aI1477
aI2855
aI3036
aI1230
aI400
aI3749
aI2932
aI569
aI3999
aI2652
aI1599
aa(lp384
a(lp385
a(lp386
a(lp387
a(lp388
a(lp389
a(lp390
a(lp391
I1606
aI1599
aa(lp392
a(lp393
a(lp394
a(lp395
a(lp396
I3749
aI1606
aI2760
aI3036
aI1642
aI1230
aI4280
aI1426
aI2932
aI3033
aI2040
aI569
aI1658
aI3999
aI2652
aI1599
aa(lp397
I3548
aI374
aa(lp398
a(lp399
a(lp400
I2040
aI3368
aI2760
aa(lp401
I3328
aI4309
aI131
aI8
aI2645
aI2058
aI1548
aI909
aI3982
aI3345
aI3858
aI2196
aI4245
aI152
aI981
aI3611
aI2334
aI287
aI416
aI4001
aI3874
aI786
aI420
aI1606
aI2855
aI3070
aI42
aI557
aI1838
aI4334
aI3633
aI1971
aI4105
aI440
aI569
aI2490
aI2236
aI573
aI2238
aI3317
aI1696
aI4000
aI1477
aI1990
aI2990
aI844
aI205
aI2126
aI3749
aI1618
aI2900
aI270
aI2652
aI95
aI3967
aI4369
aI4329
aI3820
aI4205
aI110
aI2045
aI1392
aI113
aI2546
aI3827
aI2932
aI2750
aI3369
aI3320
aI1785
aI123
aI2118
aI3069
aI382
aI1919
aa(lp402
a(lp403
a(lp404
I1658
aI3749
aa(lp405
I2347
aI3060
aa(lp406
I2760
aI412
aa(lp407
I2928
aI1393
aa(lp408
a(lp409
a(lp410
I4280
aI1642
aa(lp411
a(lp412
a(lp413
I2208
aI1216
aI2651
aI3333
aI103
aI2760
aI4009
aI202
aI622
aI1554
aI1505
aI1461
aI2007
aI24
aI1722
aI2459
aI1628
aI2077
aI405
aa(lp414
I835
aI1477
aI3176
aI3548
aI1230
aI2928
aI1873
aI3221
aI758
aI3033
aI377
aI922
aI2652
aI639
aa(lp415
a(lp416
I569
aI2652
aI1599
aa(lp417
I3746
aI835
aI3749
aI400
aI2083
aI569
aI2652
aI1599
aa(lp418
a(lp419
a(lp420
a(lp421
I640
aI2083
aI1606
aI2855
aI3036
aI400
aI2932
aI569
aI922
aI3999
aI2652
aI1599
aa(lp422
I1393
aI1276
aa(lp423
a(lp424
I4280
aI1589
aI374
aa(lp425
a(lp426
a(lp427
I246
aI1230
aa(lp428
I1393
aI1426
aa(lp429
I1576
aI1393
aI2928
aI1974
aI1599
aa(lp430
I3269
aI1895
aI3176
aI2636
aI1359
aI2256
aI1784
aI4126
aa(lp431
a(lp432
a(lp433
a(lp434
a(lp435
a(lp436
a(lp437
a(lp438
I4017
aI3326
aI1494
aa(lp439
a(lp440
a(lp441
I1642
aI400
aI2676
aI2932
aI3326
aI246
aI569
aI1034
aI2238
aI639
aa(lp442
I1426
aI1589
aa(lp443
a(lp444
a(lp445
a(lp446
a(lp447
a(lp448
I3033
aI1230
aa(lp449
a(lp450
a(lp451
a(lp452
a(lp453
a(lp454
a(lp455
a(lp456
a(lp457
a(lp458
a(lp459
a(lp460
I2760
aI1116
aa(lp461
a(lp462
a(lp463
a(lp464
a(lp465
a(lp466
I4280
aI878
aa(lp467
a(lp468
a(lp469
a(lp470
a(lp471
a(lp472
a(lp473
a(lp474
a(lp475
I1393
aI1426
aI3326
aI1974
aa(lp476
a(lp477
a(lp478
I1589
aI374
aa(lp479
a(lp480
a(lp481
a(lp482
I3368
aI1116
aa(lp483
a(lp484
a(lp485
a(lp486
I640
aI2652
aa(lp487
I1642
aI1034
aI1658
aI2614
aI3989
aa(lp488
I1642
aI1034
aI1658
aI2614
aI3989
aa(lp489
a(lp490
I2928
aI1393
aI1426
aa(lp491
a(lp492
I1576
aI2516
aa(lp493
a(lp494
a(lp495
I1576
aI2516
aI374
aa(lp496
a(lp497
a(lp498
I553
aI1658
aI2044
aI1034
aa(lp499
I3749
aI4105
aI1295
aI4017
aI2932
aI569
aa(lp500
I4280
aI1589
aa(lp501
I4017
aI3326
aa(lp502
I897
aI1974
aa(lp503
a(lp504
a(lp505
a(lp506
I4280
aI1642
aa(lp507
a(lp508
a(lp509
a(lp510
a(lp511
I4273
aI1230
aI758
aI3033
aa(lp512
a(lp513
I2083
aI2652
aa(lp514
a(lp515
I1912
aI1359
aa(lp516
a(lp517
a(lp518
a(lp519
a(lp520
I2928
aI2652
aI3749
aI1230
aa(lp521
a(lp522
a(lp523
a(lp524
I1426
aI1034
aI4429
aI3326
aa(lp525
a(lp526
I3586
aI1276
aa(lp527
I569
aI835
aI2083
aI2932
aa(lp528
a(lp529
I3746
aI2083
aI2614
aI3368
aI2652
aI1034
aI2347
aI878
aI3862
aI2387
aI2932
aI3989
aI2070
aI4105
aI2040
aI569
aI1658
aI2044
aI570
aa(lp530
a(lp531
I377
aI2405
aa(lp532
I2083
aI2760
aI2652
aI1230
aI1116
aI3176
aI1276
aI2623
aa(lp533
a(lp534
a(lp535
I4273
aI2932
aa(lp536
a(lp537
a(lp538
I1393
aI1426
aI3326
aa(lp539
a(lp540
a(lp541
a(lp542
a(lp543
a(lp544
a(lp545
a(lp546
a(lp547
a(lp548
I2928
aI657
aa(lp549
I2083
aI3586
aI2347
aI2652
aI1477
aa(lp550
a(lp551
a(lp552
I377
aI4323
aa(lp553
a(lp554
I3328
aI2051
aI4310
aI2182
aI4363
aI270
aI2196
aI4245
aI1430
aI1704
aI3233
aI3368
aI2986
aI3247
aI1974
aI2488
aI3129
aI2490
aI3389
aI4031
aI2118
aI1098
aI205
aI79
aI4054
aI3543
aI2255
aI1116
aI3166
aI2530
aI4329
aI3050
aI1515
aI497
aI4085
aI1785
aI2044
aI1919
aa(lp555
a(lp556
a(lp557
I2928
aI3033
aI758
aa(lp558
I400
aI569
aI211
aI2932
aa(lp559
I2044
aI1116
aa(lp560
I2208
aI1276
aa(lp561
a(lp562
a(lp563
a(lp564
I4280
aI3036
aa(lp565
I4429
aI758
aa(lp566
a(lp567
a(lp568
a(lp569
a(lp570
I1792
aI8
aI4105
aI3086
aI1548
aI3598
aI528
aI1554
aI20
aI2149
aI2083
aI3623
aI2652
aI42
aI557
aI3633
aI3634
aI498
aI3129
aI573
aI1599
aI576
aI4161
aI1606
aI3144
aI1098
aI2126
aI2488
aI1618
aI84
aI526
aI1628
aI954
aI3166
aI95
aI2656
aI2657
aI295
aI1637
aI2236
aI113
aI2676
aI2678
aI632
aI2170
aI952
aI1153
aI131
aI136
aI2697
aI2186
aI3772
aI2196
aI4245
aI3734
aI152
aI3233
aI2341
aI166
aI1191
aI1704
aI3246
aI2224
aI3762
aI2739
aI2229
aI1212
aI2750
aI1728
aI1731
aI2244
aI2246
aI2760
aI1227
aI2254
aI2255
aI211
aI4309
aI217
aI4315
aI3805
aI1759
aI4082
aI4329
aI1259
aI1773
aI242
aI3827
aI1785
aI3325
aI3328
aI3329
aI4354
aI2307
aI1796
aI3336
aI4362
aI4363
aI1293
aI270
aI2481
aI3715
aI4373
aI2334
aI287
aI3872
aI2337
aI3874
aI293
aI3366
aI2855
aI3369
aI3883
aI1838
aI3720
aI1330
aI4404
aI649
aI3385
aI3898
aI3389
aI320
aI833
aI1419
aI2888
aI3406
aI2900
aI348
aI2400
aI354
aI1392
aI2932
aI374
aI1911
aI382
aI1919
aI896
aI2436
aI1413
aI395
aI909
aI3982
aI400
aI835
aI2281
aI415
aI416
aI4001
aI4002
aI420
aI1446
aI1964
aI1522
aI2990
aI2479
aI2993
aI1971
aI440
aI2490
aI3003
aI4031
aI2550
aI1990
aI1480
aI2709
aI2003
aI4054
aI2527
aI1507
aI4071
aI3050
aI1515
aI3568
aI2546
aI2036
aI3062
aI2040
aI3580
aI3069
aI3070
aa(lp571
I528
aI2932
aI1599
aa(lp572
a(lp573
a(lp574
I2855
aI3036
aI400
aI2932
aI569
aI922
aI3999
aI2652
aI1599
aa(lp575
a(lp576
a(lp577
I569
aI1034
aI1974
aI1606
aa(lp578
a(lp579
a(lp580
a(lp581
a(lp582
a(lp583
a(lp584
a(lp585
a(lp586
a(lp587
I4280
aI3326
aa(lp588
a(lp589
I3368
aI1116
aI1034
aI3989
aI4280
aI1658
aI3036
aa(lp590
a(lp591
a(lp592
a(lp593
a(lp594
I2387
aI1276
aa(lp595
a(lp596
a(lp597
a(lp598
I4273
aI1116
aa(lp599
a(lp600
a(lp601
a(lp602
a(lp603
a(lp604
I2387
aI1276
aa(lp605
I4273
aI758
aa(lp606
I2652
aI3749
aa(lp607
a(lp608
a(lp609
I4429
aI2614
aa(lp610
a(lp611
I835
aI1477
aa(lp612
a(lp613
a(lp614
I3368
aI3633
aI1658
aI2044
aI1034
aa(lp615
I3586
aI1477
aI2652
aI2347
aI3749
aI3036
aI1599
aa(lp616
a(lp617
a(lp618
I3586
aI2347
aI1477
aa(lp619
a(lp620
a(lp621
a(lp622
a(lp623
I2208
aI2676
aI3586
aI412
aa(lp624
a(lp625
I1658
aI2387
aI1276
aI1494
aI1230
aa(lp626
a(lp627
a(lp628
a(lp629
a(lp630
a(lp631
a(lp632
I4273
aI724
aa(lp633
I569
aI2083
aa(lp634
a(lp635
a(lp636
a(lp637
a(lp638
I1034
aI835
aI1658
aa(lp639
I2760
aI2081
aa(lp640
I3328
aI1172
aI131
aI2134
aI1926
aI141
aI270
aI1552
aI273
aI2196
aI3389
aI4245
aI3997
aI2490
aI1925
aI3365
aI2324
aI1704
aI3497
aI3378
aI413
aI287
aI4402
aI2487
aI440
aI3129
aI3898
aI2335
aI2236
aI1098
aI3785
aI1354
aI823
aI979
aI1494
aI2652
aI221
aI1893
aI4329
aI1515
aI1773
aI3823
aI2930
aI2932
aI758
aI3369
aI1785
aI1405
aI1919
aa(lp641
I3974
aI2186
aI3982
aI1637
aI152
aI2329
aI1436
aI420
aI3749
aI3623
aI3036
aI42
aI2546
aI2990
aI3509
aI4278
aI2527
aI830
aI758
aI1994
aI1230
aI1618
aI2647
aI3033
aI2395
aI2652
aI1759
aI2405
aI3816
aI873
aI485
aI4205
aI1522
aI246
aI3967
aa(lp642
a(lp643
a(lp644
a(lp645
a(lp646
a(lp647
a(lp648
I3033
aI1230
aa(lp649
I2760
aI1426
aI2652
aI1606
aa(lp650
I835
aI1034
aI4273
aI2932
aI3989
aI569
aI1658
aa(lp651
I3633
aI2083
aa(lp652
a(lp653
a(lp654
I1034
aI3749
aa(lp655
a(lp656
a(lp657
a(lp658
I3888
aI1218
aI547
aI1733
aI2928
aI2227
aI151
aI1977
aI3355
aa(lp659
I3586
aI2347
aa(lp660
I3586
aI2347
aa(lp661
a(lp662
a(lp663
a(lp664
a(lp665
I4280
aI1390
aI3326
aa(lp666
a(lp667
a(lp668
a(lp669
a(lp670
a(lp671
I4280
aI1642
aa(lp672
I2256
aI1430
aa(lp673
I1576
aI3176
aI323
aI2636
aa(lp674
a(lp675
I3033
aI1230
aa(lp676
I1393
aI1974
aa(lp677
a(lp678
a(lp679
a(lp680
a(lp681
a(lp682
I1784
aI3269
aa(lp683
a(lp684
I4280
aI377
aI3586
aI3430
aa(lp685
a(lp686
a(lp687
I355
aI878
aa(lp688
I1784
aI3269
aa(lp689
a(lp690
a(lp691
I4273
aI1606
aa(lp692
a(lp693
a(lp694
I2652
aI2932
aI3749
aI246
aa(lp695
a(lp696
a(lp697
a(lp698
a(lp699
a(lp700
a(lp701
a(lp702
a(lp703
a(lp704
a(lp705
I1658
aI3749
aa(lp706
I835
aI374
aI1116
aI1034
aI2044
aI1230
aI758
aI3033
aI377
aI3548
aI1477
aa(lp707
a(lp708
a(lp709
I936
aI937
aI3470
aI309
aI4310
aI3543
aa(lp710
a(lp711
a(lp712
a(lp713
a(lp714
I4273
aI758
aa(lp715
a(lp716
a(lp717
a(lp718
a(lp719
I1658
aI1034
aI3749
aa(lp720
a(lp721
a(lp722
a(lp723
I1276
aI1974
aa(lp724
I2387
aI1276
aa(lp725
I4273
aI631
aa(lp726
a(lp727
a(lp728
a(lp729
a(lp730
a(lp731
a(lp732
a(lp733
a(lp734
a(lp735
I4429
aI3999
aa(lp736
a(lp737
a(lp738
I2928
aI1393
aI1974
aa(lp739
a(lp740
a(lp741
a(lp742
a(lp743
I1034
aI1606
aa(lp744
a(lp745
a(lp746
a(lp747
a(lp748
a(lp749
I1426
aI878
aa(lp750
a(lp751
a(lp752
a(lp753
a(lp754
a(lp755
a(lp756
a(lp757
a(lp758
a(lp759
I1029
aI2054
aI1552
aI1557
aI26
aI2589
aI4130
aI2595
aI1576
aI556
aI2093
aI3121
aI2610
aI1587
aI564
aI2102
aI1595
aI2622
aI65
aI2634
aI75
aI4173
aI2640
aI604
aI2143
aI1633
aI2662
aI3345
aI2154
aI4203
aI2165
aI3702
aI3711
aI640
aI3776
aI132
aI1674
aI141
aI1169
aI3224
aI3229
aI1696
aI3233
aI369
aI4273
aI713
aI187
aI1728
aI705
aI4291
aI2757
aI1225
aI2252
aI1230
aI2255
aI1744
aI376
aI3795
aI3800
aI1244
aI224
aI2789
aI1254
aI639
aI3307
aI3820
aI3824
aI251
aI4360
aI4363
aI273
aI786
aI1811
aI2329
aI3365
aI3366
aI4145
aI4394
aI3883
aI3887
aI2358
aI4414
aI2879
aI4417
aI4418
aI4420
aI326
aI4424
aI4429
aI2894
aI3411
aI3925
aI2020
aI1370
aI2395
aI2908
aI1253
aI3938
aI2408
aI2928
aI1393
aI2930
aI2424
aI3476
aI3452
aI4161
aI1417
aI2964
aI1946
aI413
aI929
aI4012
aI944
aI2488
aI4027
aI4031
aI3018
aI1996
aI3021
aI4054
aI4058
aI3551
aI3044
aI3557
aI2537
aI3050
aI4078
aI2036
aI1533
aI510
aa(lp760
a(lp761
a(lp762
a(lp763
a(lp764
a(lp765
a(lp766
a(lp767
a(lp768
a(lp769
I2040
aI3368
aI2760
aa(lp770
a(lp771
a(lp772
a(lp773
a(lp774
a(lp775
a(lp776
a(lp777
a(lp778
a(lp779
a(lp780
a(lp781
I3586
aI2347
aI1477
aa(lp782
a(lp783
a(lp784
a(lp785
a(lp786
I3586
aI2347
aI1477
aI1494
aI1295
aa(lp787
I3749
aI1606
aI3176
aI1642
aI1230
aI400
aI758
aI4280
aI3033
aI1599
aa(lp788
a(lp789
a(lp790
I2208
aI1276
aa(lp791
a(lp792
a(lp793
a(lp794
a(lp795
a(lp796
a(lp797
I3746
aI835
aI3749
aI1034
aI1494
aI1658
aa(lp798
a(lp799
a(lp800
a(lp801
a(lp802
a(lp803
a(lp804
a(lp805
a(lp806
a(lp807
a(lp808
a(lp809
a(lp810
a(lp811
I2347
aI3060
aa(lp812
a(lp813
a(lp814
a(lp815
I3033
aI1230
aa(lp816
a(lp817
a(lp818
a(lp819
a(lp820
a(lp821
a(lp822
a(lp823
a(lp824
I1477
aI316
aI2347
aI844
aI2652
aI639
aa(lp825
a(lp826
a(lp827
a(lp828
a(lp829
a(lp830
a(lp831
I640
aI3269
aI1034
aI1784
aI1658
aI1436
aa(lp832
a(lp833
I2040
aI2387
aa(lp834
I569
aI1034
aI2932
aI1658
aa(lp835
I1426
aI4429
aa(lp836
I2056
aI4105
aI1034
aI1548
aI3598
aI1554
aI2888
aI2584
aI2079
aI3617
aI3623
aI4137
aI1588
aI3086
aI569
aI58
aI63
aI2630
aI1976
aI526
aI1115
aI1120
aI610
aI4203
aI2170
aI637
aI3711
aI1153
aI1658
aI649
aI3233
aI3749
aI1709
aI3246
aI2229
aI1720
aI2932
aI1212
aI705
aI198
aI2255
aI2768
aI4305
aI4309
aI217
aI1244
aI4218
aI1247
aI2796
aI246
aI3831
aI4345
aI3325
aI3456
aI1797
aI3336
aI4362
aI1294
aI3801
aI280
aI796
aI1822
aI1823
aI896
aI3364
aI2341
aI295
aI4402
aI4404
aI3400
aI1367
aI1889
aI3945
aI3444
aI3957
aI1914
aI1920
aI3308
aI1428
aI4054
aI413
aI416
aI4002
aI2993
aI2484
aI2488
aI4031
aI1477
aI1479
aI1480
aI1271
aI1484
aI1494
aI3548
aI3551
aI3050
aI2036
aI3069
aa(lp837
I1589
aI374
aa(lp838
a(lp839
a(lp840
a(lp841
a(lp842
a(lp843
I1784
aI3269
aa(lp844
a(lp845
I1925
aI2118
aI205
aI400
aI3858
aI979
aI2645
aI823
aI3320
aI2490
aI2395
aI316
aI2334
aa(lp846
a(lp847
a(lp848
a(lp849
a(lp850
a(lp851
a(lp852
a(lp853
I1658
aI1034
aa(lp854
a(lp855
a(lp856
a(lp857
a(lp858
I4280
aI1642
aa(lp859
a(lp860
a(lp861
a(lp862
I3033
aI1606
aI1230
aa(lp863
a(lp864
I1034
aI3749
aa(lp865
a(lp866
a(lp867
a(lp868
a(lp869
I2044
aI1116
aa(lp870
a(lp871
a(lp872
a(lp873
a(lp874
I640
aI2932
aI246
aa(lp875
a(lp876
a(lp877
a(lp878
a(lp879
I2183
aI3308
aI2007
aI528
aI1426
aI21
aI1430
aI3436
aI1697
aI4130
aI1445
aI3883
aI686
aI2909
aI1587
aI1205
aI4279
aI4280
aI1140
aI2108
aI1738
aI325
aI3912
aI2634
aI1996
aI1524
aI465
aI4436
aI4182
aI3543
aI3800
aI3033
aI748
aI1116
aI2013
aI2786
aI355
aI3793
aI1642
aI236
aI4205
aI1518
aI2932
aI374
aI1656
aI1785
aa(lp880
a(lp881
I4429
aI3902
aa(lp882
a(lp883
a(lp884
a(lp885
a(lp886
a(lp887
a(lp888
I3633
aI2083
aa(lp889
a(lp890
a(lp891
a(lp892
a(lp893
a(lp894
a(lp895
a(lp896
a(lp897
I3746
aI835
aI1606
aI1034
aI2083
aI1974
aI569
aI2652
aa(lp898
I2786
aI3332
aI501
aI1974
aI377
aI1082
aa(lp899
a(lp900
a(lp901
a(lp902
a(lp903
a(lp904
a(lp905
a(lp906
a(lp907
a(lp908
I2760
aI3586
aI1276
aI2623
aa(lp909
a(lp910
I2083
aI1606
aI400
aI2932
aI569
aI3999
aI2652
aI1599
aa(lp911
a(lp912
a(lp913
a(lp914
a(lp915
a(lp916
I1785
aI2347
aI270
aa(lp917
a(lp918
I1784
aI3269
aa(lp919
a(lp920
a(lp921
a(lp922
a(lp923
I2083
aI420
aI1637
aI3050
aI413
aI1599
aI2652
aI573
aI4031
aa(lp924
a(lp925
I3033
aI1230
aa(lp926
I3586
aI2347
aI1477
aI1494
aa(lp927
a(lp928
a(lp929
a(lp930
I1230
aI4273
aI2516
aI758
aI3033
aI1599
aa(lp931
a(lp932
I4273
aI1230
aa(lp933
a(lp934
I3586
aI1276
aI3749
aI1477
aa(lp935
a(lp936
a(lp937
I708
aI3543
aa(lp938
I708
aI3543
aa(lp939
a(lp940
a(lp941
a(lp942
a(lp943
a(lp944
a(lp945
I3033
aI1230
aI758
aa(lp946
a(lp947
a(lp948
a(lp949
I1412
aI1317
aI3368
aI3664
aI1521
aI4054
aI3195
aI3336
aI3237
aa(lp950
a(lp951
I1576
aI1393
aI1974
aI1599
aa(lp952
a(lp953
I569
aI2083
aI2652
aI1606
aa(lp954
a(lp955
I2083
aI2516
aI1589
aI377
aI4280
aI569
aa(lp956
I3033
aI1599
aa(lp957
a(lp958
a(lp959
a(lp960
a(lp961
a(lp962
a(lp963
a(lp964
a(lp965
a(lp966
a(lp967
a(lp968
a(lp969
a(lp970
I1589
aI374
aa(lp971
a(lp972
a(lp973
a(lp974
a(lp975
a(lp976
a(lp977
a(lp978
a(lp979
I4017
aI2387
aI1276
aa(lp980
I1477
aI316
aI2347
aI844
aI2652
aI639
aa(lp981
a(lp982
I400
aI4273
aI1116
aI1606
aI4105
aa(lp983
a(lp984
a(lp985
a(lp986
a(lp987
a(lp988
I3033
aI1230
aa(lp989
a(lp990
a(lp991
a(lp992
a(lp993
a(lp994
a(lp995
a(lp996
I2347
aI1477
aa(lp997
a(lp998
a(lp999
a(lp1000
a(lp1001
a(lp1002
a(lp1003
a(lp1004
a(lp1005
I2760
aI1116
aI2623
aa(lp1006
a(lp1007
a(lp1008
a(lp1009
a(lp1010
I2760
aI2081
aa(lp1011
I3036
aI3999
aa(lp1012
a(lp1013
a(lp1014
a(lp1015
a(lp1016
a(lp1017
a(lp1018
a(lp1019
a(lp1020
a(lp1021
a(lp1022
a(lp1023
a(lp1024
I4280
aI1589
aI374
aa(lp1025
a(lp1026
a(lp1027
a(lp1028
a(lp1029
a(lp1030
I377
aI1230
aI758
aI1761
aa(lp1031
a(lp1032
a(lp1033
a(lp1034
I2760
aI1116
aa(lp1035
I2049
aI2305
aI2056
aI1545
aI523
aI1548
aI3598
aI528
aI1554
aI3604
aI2584
aI2079
aI4131
aI3669
aI4140
aI3121
aI1587
aI1588
aI1599
aI576
aI2626
aI2630
aI1889
aI588
aI1619
aI2830
aI1111
aI1115
aI613
aI109
aI110
aI1658
aI2171
aI637
aI2686
aI3711
aI1665
aI131
aI4289
aI649
aI653
aI3278
aI146
aI4245
aI3749
aI2215
aI2332
aI1194
aI2219
aI4302
aI2737
aI2738
aI2739
aI4276
aI1212
aI705
aI2754
aI4293
aI198
aI203
aI718
aI207
aI2768
aI4305
aI210
aI4309
aI1238
aI3801
aI2783
aI1248
aI2262
aI742
aI4329
aI3306
aI3819
aI3309
aI1265
aI1267
aI1271
aI1785
aI2301
aI3326
aI3328
aI3456
aI1494
aI1294
aI3855
aI273
aI2842
aI1819
aI796
aI287
aI2338
aI3876
aI3366
aI4145
aI3931
aI4398
aI4402
aI4407
aI313
aI4412
aI3389
aI830
aI833
aI835
aI3400
aI3915
aI1874
aI852
aI1878
aI1367
aI3419
aI2910
aI863
aI352
aI353
aI1766
aI2518
aI2932
aI3817
aI1914
aI3451
aI1919
aI896
aI1410
aI4424
aI3978
aI4162
aI1424
aI3986
aI1428
aI3989
aI3480
aI3482
aI1948
aI1606
aI2985
aI2986
aI2990
aI2991
aI2993
aI2485
aI4022
aI440
aI1468
aI1480
aI3425
aI2515
aI4054
aI2519
aI3036
aI3067
aI2020
aI486
aI487
aI1519
aI497
aI3570
aI3060
aI2038
aI4265
aI2555
aI4187
aI3069
aI2559
aa(lp1036
I1912
aI2208
aI1276
aI1359
aa(lp1037
a(lp1038
a(lp1039
a(lp1040
a(lp1041
a(lp1042
I1116
aI377
aI3548
aI374
aI2760
aa(lp1043
a(lp1044
a(lp1045
a(lp1046
a(lp1047
a(lp1048
a(lp1049
I2760
aI2623
aa(lp1050
a(lp1051
a(lp1052
a(lp1053
a(lp1054
a(lp1055
a(lp1056
a(lp1057
a(lp1058
a(lp1059
a(lp1060
a(lp1061
a(lp1062
a(lp1063
a(lp1064
a(lp1065
I3749
aI1477
aa(lp1066
a(lp1067
a(lp1068
a(lp1069
a(lp1070
a(lp1071
a(lp1072
a(lp1073
a(lp1074
I3586
aI2347
aa(lp1075
I1589
aI374
aa(lp1076
a(lp1077
a(lp1078
a(lp1079
a(lp1080
a(lp1081
a(lp1082
a(lp1083
I3176
aI897
aI2405
aI1974
aa(lp1084
a(lp1085
I3176
aI2636
aa(lp1086
a(lp1087
a(lp1088
a(lp1089
I2652
aI1606
aa(lp1090
a(lp1091
I17
aI2083
aI1589
aI374
aa(lp1092
a(lp1093
a(lp1094
a(lp1095
I4280
aI3033
aI1606
aI1230
aa(lp1096
a(lp1097
a(lp1098
a(lp1099
I2932
aI553
aI639
aI2044
aI569
aa(lp1100
a(lp1101
a(lp1102
a(lp1103
a(lp1104
a(lp1105
a(lp1106
a(lp1107
a(lp1108
a(lp1109
a(lp1110
a(lp1111
a(lp1112
I4323
aI1034
aI2256
aI1393
aI2676
aI3989
aI1974
aI377
aI1599
aa(lp1113
a(lp1114
a(lp1115
a(lp1116
I3586
aI835
aI1477
aI1034
aI2347
aI1658
aI3749
aa(lp1117
I3073
aI1282
aI1411
aI3460
aI135
aI1033
aI1924
aI4363
aI1517
aI3088
aI1041
aI531
aI21
aI2838
aI1560
aI1412
aI981
aI3232
aI3233
aI91
aI36
aI4161
aI3368
aI553
aI2090
aI3499
aI558
aI3504
aI4273
aI1205
aI3126
aI2488
aI1338
aI2620
aI4031
aI1728
aI705
aI3382
aI2118
aI3745
aI2760
aI588
aI459
aI2284
aI205
aI79
aI3664
aI1132
aI3363
aI3715
aI597
aI1622
aI3672
aI3161
aI152
aI2255
aI2752
aI1117
aI3166
aI3167
aI481
aI2530
aI868
aI2789
aI230
aI3050
aI1004
aI4205
aI878
aI3440
aI3825
aI4085
aI1372
aI1215
aI2044
aI2347
aI2581
aa(lp1118
I2044
aI1116
aa(lp1119
a(lp1120
I2652
aI1606
aI3959
aa(lp1121
I835
aI2796
aa(lp1122
a(lp1123
a(lp1124
I2040
aI3368
aa(lp1125
a(lp1126
I3586
aI2347
aa(lp1127
a(lp1128
a(lp1129
a(lp1130
a(lp1131
a(lp1132
a(lp1133
I2760
aI1116
aa(lp1134
a(lp1135
a(lp1136
a(lp1137
I1576
aI1589
aI374
aa(lp1138
a(lp1139
a(lp1140
a(lp1141
I4280
aI878
aa(lp1142
a(lp1143
a(lp1144
a(lp1145
I4280
aI1642
aI3326
aa(lp1146
a(lp1147
a(lp1148
a(lp1149
a(lp1150
a(lp1151
a(lp1152
a(lp1153
a(lp1154
I569
aI835
aI2083
aa(lp1155
a(lp1156
a(lp1157
a(lp1158
I3749
aI1477
aa(lp1159
a(lp1160
I4017
aI2387
aI1276
aa(lp1161
a(lp1162
a(lp1163
a(lp1164
a(lp1165
a(lp1166
a(lp1167
a(lp1168
a(lp1169
a(lp1170
I3033
aI2516
aI1230
aI758
aa(lp1171
a(lp1172
a(lp1173
I2676
aI2932
aI639
aa(lp1174
I1576
aI1393
aI1974
aI374
aa(lp1175
a(lp1176
a(lp1177
a(lp1178
a(lp1179
a(lp1180
a(lp1181
a(lp1182
a(lp1183
a(lp1184
I1658
aI2387
aa(lp1185
a(lp1186
I2256
aI1974
aa(lp1187
I2400
aI2347
aI3269
aI3176
aI4060
aI1867
aI1390
aI4017
aI3093
aI311
aI1784
aI1691
aI3420
aa(lp1188
a(lp1189
a(lp1190
a(lp1191
a(lp1192
I569
aI374
aa(lp1193
a(lp1194
a(lp1195
I1034
aI2347
aI3060
aI1658
aa(lp1196
I4280
aI1430
aI3543
aa(lp1197
a(lp1198
a(lp1199
a(lp1200
a(lp1201
a(lp1202
a(lp1203
I2760
aI1393
aa(lp1204
a(lp1205
a(lp1206
I1116
aI878
aa(lp1207
a(lp1208
I2083
aI3749
aI1606
aI2932
aI374
aI4280
aI377
aI3548
aa(lp1209
a(lp1210
a(lp1211
a(lp1212
a(lp1213
I835
aI1477
aI1034
aI2347
aI211
aI569
aI3548
aa(lp1214
a(lp1215
a(lp1216
I3368
aI1116
aa(lp1217
I2760
aI412
aa(lp1218
a(lp1219
I2928
aI657
aa(lp1220
a(lp1221
a(lp1222
a(lp1223
a(lp1224
a(lp1225
a(lp1226
I246
aI374
aI1642
aI1230
aI2040
aI2387
aI1589
aI758
aI4280
aI3033
aI3749
aI1599
aa(lp1227
a(lp1228
I569
aI3586
aI323
aI378
aI1606
aa(lp1229
a(lp1230
a(lp1231
I4352
aI1029
aI2054
aI519
aI4104
aI2569
aI1552
aI2579
aI1557
aI1560
aI26
aI2588
aI2589
aI2079
aI3623
aI1576
aI2604
aI2093
aI2094
aI3121
aI2098
aI3633
aI2102
aI59
aI1599
aI3652
aI1606
aI2657
aI2634
aI4173
aI2640
aI2644
aI2656
aI1633
aI2662
aI3176
aI2154
aI4203
aI3180
aI4205
aI624
aI531
aI2165
aI3702
aI1656
aI2684
aI1402
aI3711
aI640
aI3715
aI132
aI134
aI647
aI2697
aI2186
aI4237
aI1169
aI1684
aI3224
aI3229
aI158
aI1696
aI674
aI1393
aI174
aI4273
aI2226
aI3251
aI2229
aI2234
aI705
aI4291
aI2757
aI3271
aI1225
aI2252
aI376
aI3800
aI1244
aI3805
aI1759
aI3296
aI240
aI2789
aI1254
aI3307
aI3820
aI1508
aI3823
aI3824
aI3827
aI3828
aI2805
aI246
aI251
aI1276
aI2301
aI2304
aI4353
aI1796
aI4360
aI2532
aI2605
aI3345
aI786
aI1811
aI2329
aI3874
aI987
aI4145
aI4394
aI814
aI4402
aI4414
aI2879
aI4418
aI3395
aI4420
aI4424
aI2894
aI2386
aI3411
aI2020
aI1370
aI2908
aI861
aI2398
aI1253
aI3938
aI2790
aI1387
aI2928
aI369
aI2424
aI3476
aI378
aI3452
aI382
aI3967
aI1416
aI1417
aI395
aI3982
aI2964
aI3993
aI1946
aI924
aI413
aI929
aI931
aI1094
aI426
aI944
aI447
aI758
aI3018
aI3021
aI2516
aI2382
aI3033
aI4058
aI3035
aI3551
aI1507
aI3044
aI3557
aI4078
aI253
aI1522
aI2387
aI4086
aI1533
aI510
aI2581
aa(lp1232
a(lp1233
a(lp1234
a(lp1235
a(lp1236
a(lp1237
a(lp1238
I3176
aI4017
aI1494
aI1295
aa(lp1239
I377
aI1034
aI4323
aI1599
aa(lp1240
a(lp1241
I3586
aI2347
aI1477
aa(lp1242
a(lp1243
a(lp1244
a(lp1245
I835
aI758
aI1230
aI3221
aI374
aI3033
aI377
aI3548
aI1477
aa(lp1246
a(lp1247
a(lp1248
I3746
aI835
aI246
aa(lp1249
I1658
aI1034
aa(lp1250
a(lp1251
I2347
aI1477
aa(lp1252
a(lp1253
a(lp1254
I3033
aI1230
aI758
aa(lp1255
I3033
aI1230
aI758
aa(lp1256
a(lp1257
a(lp1258
a(lp1259
a(lp1260
I569
aI2932
aa(lp1261
a(lp1262
a(lp1263
a(lp1264
a(lp1265
a(lp1266
I1034
aI3326
aa(lp1267
a(lp1268
I1658
aI2347
aI1034
aI1477
aa(lp1269
a(lp1270
a(lp1271
a(lp1272
I3746
aI835
aI3749
aI1034
aI246
aI1658
aa(lp1273
I3176
aI2636
aa(lp1274
a(lp1275
a(lp1276
a(lp1277
I3586
aI2055
aI1035
aI525
aI531
aI2580
aI1557
aI603
aI2596
aI2600
aI559
aI4144
aI2104
aI2059
aI77
aI593
aI3667
aI2139
aI2667
aI624
aI3702
aI2679
aI1658
aI3195
aI789
aI1159
aI3217
aI4250
aI1691
aI156
aI3229
aI3231
aI2208
aI2726
aI3761
aI201
aI4281
aI1737
aI2581
aI1230
aI1744
aI722
aI723
aI2774
aI3292
aI2270
aI3814
aI2514
aI240
aI40
aI211
aI2297
aI1281
aI277
aI3119
aI285
aI3895
aI1338
aI315
aI2879
aI907
aI1871
aI339
aI2902
aI1370
aI347
aI1381
aI2918
aI362
aI1391
aI1393
aI370
aI1912
aI2438
aI1931
aI1945
aI3997
aI2464
aI2715
aI933
aI1451
aI1965
aI4017
aI3506
aI1974
aI4027
aI4035
aI4038
aI1483
aI978
aI1494
aI3035
aI421
aI2017
aI2022
aI4072
aI3565
aI3566
aI1521
aI2387
aI3064
aa(lp1278
a(lp1279
a(lp1280
a(lp1281
I1393
aI1974
aa(lp1282
I2387
aI1276
aI1494
aa(lp1283
I2760
aI1116
aa(lp1284
a(lp1285
a(lp1286
a(lp1287
a(lp1288
a(lp1289
a(lp1290
a(lp1291
a(lp1292
a(lp1293
a(lp1294
I569
aI2083
aa(lp1295
I835
aI3749
aI1034
aI246
aI1658
aI1599
aa(lp1296
I1802
aI785
aI3092
aI3097
aI3482
aI3234
aI2723
aI3761
aI2856
aI2733
aI4017
aI3639
aI2111
aI202
aI4386
aI2387
aI1237
aI1494
aI1367
aI1758
aI1634
aI2405
aI3176
aI3818
aI1516
aI498
aI247
aI2559
aa(lp1297
a(lp1298
I1589
aI374
aa(lp1299
a(lp1300
a(lp1301
a(lp1302
a(lp1303
a(lp1304
a(lp1305
I3548
aI1589
aI374
aa(lp1306
a(lp1307
I2676
aI1599
aa(lp1308
a(lp1309
a(lp1310
I377
aI1426
aI1589
aa(lp1311
a(lp1312
a(lp1313
a(lp1314
a(lp1315
a(lp1316
a(lp1317
a(lp1318
I3368
aI948
aa(lp1319
a(lp1320
a(lp1321
a(lp1322
I4280
aI1589
aI1430
aa(lp1323
a(lp1324
a(lp1325
a(lp1326
a(lp1327
a(lp1328
a(lp1329
a(lp1330
a(lp1331
I569
aI2083
aa(lp1332
a(lp1333
I2928
aI1393
aa(lp1334
a(lp1335
a(lp1336
a(lp1337
a(lp1338
a(lp1339
I2044
aI3586
aI1116
aI1276
aa(lp1340
I2760
aI1393
aa(lp1341
a(lp1342
a(lp1343
a(lp1344
a(lp1345
a(lp1346
a(lp1347
a(lp1348
a(lp1349
a(lp1350
a(lp1351
I1658
aI3749
aa(lp1352
a(lp1353
I4280
aI1430
aa(lp1354
a(lp1355
I2676
aI2652
aI639
aa(lp1356
a(lp1357
a(lp1358
a(lp1359
a(lp1360
I1569
aI514
aI3779
aI3176
aI1035
aI429
aI339
aI2774
aI1912
aI3034
aI3773
aa(lp1361
a(lp1362
a(lp1363
a(lp1364
a(lp1365
a(lp1366
a(lp1367
a(lp1368
I3176
aI1034
aI835
aI1658
aI1295
aa(lp1369
a(lp1370
a(lp1371
I1276
aI1230
aI758
aI4429
aa(lp1372
a(lp1373
I2347
aI3363
aI1116
aI1477
aa(lp1374
a(lp1375
a(lp1376
a(lp1377
a(lp1378
a(lp1379
a(lp1380
a(lp1381
a(lp1382
I1393
aI1276
aa(lp1383
a(lp1384
a(lp1385
I3586
aI2347
aI1477
aa(lp1386
a(lp1387
a(lp1388
I3586
aI1477
aI1606
aI2347
aI1230
aI246
aI2652
aa(lp1389
a(lp1390
a(lp1391
I2400
aI3137
aI1186
aI1412
aI3176
aI4060
aI1867
aI3093
aI311
aI664
aI3420
aI3326
aa(lp1392
I2387
aI1276
aa(lp1393
I2932
aI2083
aI3749
aI1606
aI2855
aI2652
aI3959
aI3036
aI4105
aI400
aI2676
aI3033
aI569
aI3999
aI1436
aI1599
aa(lp1394
I2304
aI256
aI1666
aI4245
aI2899
aI3718
aI1672
aI2698
aI2059
aI1426
aI2580
aI1173
aI1686
aI537
aI3736
aI25
aI3610
aI2715
aI3997
aI1822
aI3013
aI675
aI2212
aI421
aI406
aI4137
aI427
aI428
aI1714
aI1280
aI3326
aI1202
aI1332
aI1589
aI1974
aI2746
aI1339
aI4029
aI3774
aI3903
aI4288
aI65
aI758
aI279
aI737
aI2760
aI201
aI3914
aI1230
aI1871
aI2432
aI339
aI950
aI1111
aI1418
aI4086
aI474
aI3033
aI3417
aI2272
aI2017
aI2530
aI1381
aI489
aI3946
aI3436
aI2798
aI2928
aI3667
aI2409
aI3582
aI374
aI2025
aI2298
aI1276
aI2302
aI1919
aa(lp1395
a(lp1396
a(lp1397
a(lp1398
a(lp1399
a(lp1400
a(lp1401
a(lp1402
a(lp1403
I3033
aI1230
aa(lp1404
a(lp1405
a(lp1406
I2487
aI639
aa(lp1407
I4280
aI1642
aa(lp1408
a(lp1409
a(lp1410
a(lp1411
I1658
aI1034
aa(lp1412
I2760
aI3368
aI1116
aa(lp1413
I3368
aI3176
aI948
aI1116
aI1390
aa(lp1414
I2083
aI3749
aI1606
aI2855
aI4105
aI2676
aI2932
aI3959
aI569
aI2652
aa(lp1415
a(lp1416
a(lp1417
I4280
aI3033
aI1642
aI1230
aa(lp1418
I1230
aI1589
aI758
aI3033
aI377
aI3548
aa(lp1419
I2928
aI1393
aa(lp1420
I569
aI2932
aa(lp1421
a(lp1422
a(lp1423
I3586
aI2347
aI1477
aa(lp1424
I4017
aI3326
aI1494
aa(lp1425
I1658
aI1034
aa(lp1426
a(lp1427
I1920
aI3883
aI2822
aI648
aI2697
aI2698
aI395
aI3162
aI1518
aI537
aI1309
aI3013
aI1697
aI1445
aI1959
aI427
aI1838
aI2013
aI1587
aI3892
aI1589
aI441
aI3487
aI4029
aI1728
aI4161
aI834
aI523
aI374
aI1990
aI1441
aI2760
aI2786
aI4174
aI4429
aI3793
aI2387
aI3926
aI474
aI2909
aI4001
aI3938
aI2314
aI2918
aI489
aI748
aI878
aI3695
aI1393
aI1524
aI1654
aI2025
aI4218
aa(lp1428
a(lp1429
I1658
aI835
aI1034
aI246
aI3749
aa(lp1430
a(lp1431
I3267
aI4323
aI1352
aI553
aI266
aI1195
aI878
aI2256
aI4035
aI2410
aI3726
aI3286
aI3543
aI4280
aI2676
aI1582
aI1321
aI3326
aI671
aa(lp1432
a(lp1433
a(lp1434
a(lp1435
a(lp1436
I4273
aI1942
aa(lp1437
I640
aI2657
aI1922
aI3715
aI42
aI2255
aI1392
aI830
aI1599
aa(lp1438
I2516
aI3548
aI374
aa(lp1439
a(lp1440
a(lp1441
a(lp1442
I2760
aI1426
aa(lp1443
a(lp1444
a(lp1445
a(lp1446
I1426
aI878
aa(lp1447
I569
aI2083
aa(lp1448
a(lp1449
a(lp1450
a(lp1451
a(lp1452
I2208
aI1276
aa(lp1453
a(lp1454
a(lp1455
a(lp1456
a(lp1457
I3033
aI1599
aa(lp1458
a(lp1459
a(lp1460
I3633
aI1838
aa(lp1461
a(lp1462
I2208
aI412
aa(lp1463
a(lp1464
a(lp1465
a(lp1466
a(lp1467
I1784
aI2256
aI3269
aa(lp1468
a(lp1469
I1784
aI1658
aI1034
aI3269
aa(lp1470
a(lp1471
a(lp1472
a(lp1473
a(lp1474
a(lp1475
a(lp1476
a(lp1477
a(lp1478
I3456
aI3328
aI1899
aI1157
aI3974
aI193
aI780
aI3982
aI400
aI785
aI3395
aI3476
aI4245
aI3609
aI3097
aI413
aI2334
aI160
aI3617
aI4002
aI2395
aI548
aI3749
aI1064
aI1250
aI2347
aI1709
aI925
aI3504
aI1267
aI823
aI2490
aI1212
aI3390
aI3136
aI705
aI835
aI2118
aI1633
aI205
aI2709
aI979
aI2645
aI1422
aI1240
aI4412
aI1115
aI1244
aI4061
aI933
aI3551
aI2262
aI2064
aI610
aI995
aI3430
aI614
aI3217
aI1384
aI617
aI1387
aI2156
aI109
aI3567
aI3816
aI3827
aI3831
aI1372
aI1785
aI3499
aI382
aI1919
aa(lp1479
a(lp1480
I3746
aI835
aI4273
aI3033
aI1658
aI2652
aa(lp1481
I3586
aI2083
aI1606
aI2760
aI1034
aI835
aI374
aI569
aI1658
aI3036
aI3999
aa(lp1482
a(lp1483
a(lp1484
I2208
aI1276
aa(lp1485
I835
aI246
aa(lp1486
a(lp1487
a(lp1488
a(lp1489
a(lp1490
I2928
aI3033
aI1658
aI3749
aa(lp1491
a(lp1492
a(lp1493
a(lp1494
a(lp1495
I1281
aI3586
aI2053
aI2055
aI1034
aI1931
aI4365
aI1295
aI785
aI2196
aI2584
aI3097
aI796
aI925
aI1823
aI3234
aI4017
aI2729
aI2733
aI3761
aI2740
aI437
aI3639
aI3898
aI4027
aI2111
aI835
aI2939
aI3746
aI4430
aI1744
aI1237
aI1423
aI221
aI1758
aI2171
aI1637
aI639
aI3945
aI362
aI2667
aI1516
aI1773
aI624
aI1521
aI4023
aI4329
aI1785
aI3195
aI1276
aI2559
aa(lp1496
I1784
aI3269
aa(lp1497
a(lp1498
a(lp1499
a(lp1500
a(lp1501
a(lp1502
a(lp1503
a(lp1504
a(lp1505
I2928
aI3036
aI3749
aI1606
aI1599
aa(lp1506
I2760
aI412
aa(lp1507
a(lp1508
I2083
aI2855
aI1230
aI2932
aI569
aI2652
aI1599
aa(lp1509
I4280
aI3033
aI1606
aI1230
aa(lp1510
a(lp1511
a(lp1512
a(lp1513
a(lp1514
a(lp1515
a(lp1516
I2932
aI553
aI639
aI2044
aI569
aa(lp1517
I1494
aI1295
aa(lp1518
I3368
aI2040
aI1116
aI3326
aa(lp1519
I2760
aI1426
aI878
aa(lp1520
I1658
aI1034
aa(lp1521
a(lp1522
I3368
aI948
aI211
aI1276
aI1494
aa(lp1523
I640
aI2083
aI1606
aI2855
aI4105
aI1230
aI2932
aI569
aI2652
aa(lp1524
a(lp1525
I1426
aI878
aa(lp1526
a(lp1527
I1784
aI3269
aa(lp1528
a(lp1529
a(lp1530
a(lp1531
a(lp1532
a(lp1533
a(lp1534
I374
aI1606
aI1230
aI2516
aI1589
aI758
aI3033
aI1599
aa(lp1535
a(lp1536
a(lp1537
a(lp1538
a(lp1539
a(lp1540
a(lp1541
a(lp1542
a(lp1543
a(lp1544
a(lp1545
a(lp1546
I3368
aI1658
aI2044
aI1034
aa(lp1547
a(lp1548
a(lp1549
I835
aI3749
aI1034
aI400
aI2083
aI569
aI1658
aa(lp1550
a(lp1551
a(lp1552
a(lp1553
I3033
aI1230
aI758
aI639
aa(lp1554
a(lp1555
I2208
aI835
aI1034
aI2932
aI3221
aI569
aI377
aI412
aa(lp1556
a(lp1557
a(lp1558
I1642
aI1230
aI758
aI4280
aI3033
aI1276
aa(lp1559
a(lp1560
a(lp1561
I3749
aI2855
aI3368
aI1230
aI2928
aI374
aI2040
aI1116
aa(lp1562
a(lp1563
a(lp1564
a(lp1565
a(lp1566
a(lp1567
a(lp1568
a(lp1569
a(lp1570
I3176
aI2760
aI2208
aI1359
aa(lp1571
a(lp1572
a(lp1573
a(lp1574
a(lp1575
a(lp1576
a(lp1577
I256
aI3457
aI3462
aI129
aI3468
aI2575
aI2196
aI1173
aI279
aI3033
aI672
aI2763
aI1704
aI4394
aI428
aI48
aI2610
aI1843
aI1589
aI2358
aI187
aI1599
aI2798
aI323
aI374
aI1606
aI75
aI1230
aI2986
aI4178
aI2516
aI3925
aI3286
aI3417
aI4329
aI95
aI2408
aI2409
aI491
aI494
aI1136
aI758
aI950
aI1789
aa(lp1578
a(lp1579
a(lp1580
a(lp1581
a(lp1582
a(lp1583
I2066
aI4229
aI1430
aI3543
aa(lp1584
a(lp1585
a(lp1586
I1589
aI374
aa(lp1587
a(lp1588
I1606
aI1034
aI878
aI2928
aI1426
aI758
aI1658
aa(lp1589
I1034
aI835
aI1606
aa(lp1590
I4100
aI4102
aI2057
aI25
aI26
aI2589
aI2086
aI3623
aI1576
aI3116
aI4145
aI1074
aI2102
aI3649
aI1090
aI3652
aI4173
aI4174
aI2644
aI1632
aI1633
aI2660
aI2152
aI110
aI1136
aI3699
aI3706
aI1660
aI2691
aI2183
aI4292
aI174
aI1309
aI2229
aI3254
aI4280
aI4288
aI1732
aI1225
aI1738
aI3307
aI236
aI2855
aI2298
aI251
aI258
aI2314
aI1297
aI1304
aI4381
aI1828
aI3121
aI1321
aI302
aI3385
aI836
aI1861
aI344
aI2912
aI3946
aI1393
aI374
aI377
aI1417
aI3468
aI1426
aI3476
aI3487
aI3492
aI423
aI441
aI954
aI969
aI1995
aI4049
aI3548
aI477
aI3038
aI2020
aI1959
aI1533
aI499
aI1585
aI2552
aI2557
aI1023
aa(lp1591
a(lp1592
a(lp1593
a(lp1594
a(lp1595
a(lp1596
I2928
aI758
aa(lp1597
a(lp1598
a(lp1599
I2676
aI1599
aa(lp1600
I3591
aI8
aI1034
aI3604
aI26
aI1576
aI42
aI3762
aI48
aI3633
aI569
aI570
aI573
aI1598
aI1606
aI1614
aI1618
aI1111
aI2652
aI3166
aI95
aI2656
aI2657
aI1637
aI614
aI2676
aI20
aI4224
aI129
aI3715
aI136
aI2697
aI2196
aI4245
aI1686
aI152
aI4249
aI3233
aI3749
aI2215
aI1704
aI2226
aI3785
aI4293
aI2246
aI1225
aI2763
aI2338
aI1230
aI2255
aI3280
aI1238
aI3805
aI4322
aI2789
aI4329
aI2798
aI3823
aI3824
aI3827
aI3317
aI1785
aI251
aI256
aI4353
aI2307
aI4362
aI1294
aI786
aI1811
aI279
aI1306
aI2334
aI3874
aI293
aI3369
aI3883
aI2351
aI1843
aI4404
aI2869
aI2738
aI2888
aI2382
aI3417
aI2409
aI1392
aI2932
aI3960
aI2940
aI382
aI1919
aI1922
aI390
aI3978
aI395
aI909
aI3982
aI922
aI3483
aI1436
aI415
aI416
aI929
aI420
aI428
aI1456
aI2993
aI1971
aI950
aI2488
aI955
aI4031
aI2811
aI3024
aI3033
aI3036
aI2527
aI1504
aI1507
aI3560
aI3050
aI4178
aI2546
aI4094
aI3062
aI1533
aI3070
aa(lp1601
a(lp1602
a(lp1603
a(lp1604
I316
aI2855
aa(lp1605
a(lp1606
a(lp1607
I8
aI1034
aI3598
aI2063
aI2579
aI3332
aI2079
aI2083
aI1576
aI2226
aI3633
aI1587
aI1588
aI569
aI1119
aI1599
aI576
aI1094
aI2126
aI1618
aI2651
aI2652
aI95
aI2656
aI2657
aI2658
aI1637
aI108
aI2676
aI2165
aI4224
aI1665
aI3715
aI136
aI2697
aI2186
aI1686
aI3224
aI158
aI1696
aI1392
aI4273
aI3762
aI2739
aI1207
aI4280
aI3772
aI4293
aI2760
aI1227
aI1230
aI3280
aI4131
aI2254
aI4315
aI3805
aI1759
aI2272
aI4304
aI742
aI3820
aI240
aI690
aI2811
aI4352
aI4353
aI2307
aI1796
aI648
aI3345
aI786
aI1819
aI2855
aI3369
aI3883
aI2351
aI3208
aI4402
aI2869
aI3395
aI861
aI2790
aI1387
aI2928
aI369
aI3959
aI2424
aI378
aI896
aI1088
aI1413
aI390
aI395
aI909
aI3982
aI400
aI1946
aI2972
aI1952
aI420
aI1522
aI2481
aI1971
aI1974
aI952
aI2550
aI1480
aI2003
aI981
aI2527
aI1504
aI1508
aI3560
aI3564
aI2546
aI3060
aI4094
aI3062
aI1533
aI3070
aa(lp1608
a(lp1609
a(lp1610
a(lp1611
a(lp1612
a(lp1613
a(lp1614
a(lp1615
I2652
aI1599
aa(lp1616
a(lp1617
a(lp1618
a(lp1619
I640
aI3749
aI1606
aI2855
aI3036
aI400
aI2932
aI4105
aI569
aI3999
aI2652
aI1599
aa(lp1620
I1658
aI1034
aa(lp1621
a(lp1622
a(lp1623
I2044
aI1116
aa(lp1624
a(lp1625
a(lp1626
a(lp1627
a(lp1628
a(lp1629
I2208
aI569
aI412
aI2932
aI4105
aa(lp1630
a(lp1631
a(lp1632
a(lp1633
I1589
aI374
aa(lp1634
I374
aI1477
aI4429
aI1230
aI1589
aI758
aI3033
aI3749
aa(lp1635
I3176
aI1295
aa(lp1636
a(lp1637
a(lp1638
I640
aI3586
aI3269
aI1606
aI2855
aI2932
aI1494
aI1784
aI569
aI922
aI3999
aI2652
aI1599
aa(lp1639
a(lp1640
a(lp1641
a(lp1642
a(lp1643
I3968
aI131
aI3702
aI1416
aI1801
aI395
aI2189
aI4055
aI2063
aI3600
aI786
aI2501
aI3092
aI1557
aI2329
aI409
aI3385
aI2334
aI287
aI2594
aI2260
aI2758
aI3623
aI2088
aI3929
aI2604
aI2605
aI2478
aI2184
aI670
aI2614
aI2697
aI4280
aI1144
aI4414
aI192
aI4086
aI3211
aI325
aI2118
aI3912
aI1225
aI205
aI440
aI4436
aI3158
aI505
aI3928
aI857
aI3599
aI2656
aI3939
aI486
aI487
aI2680
aI106
aI2343
aI2825
aI878
aI2791
aI3441
aI2165
aI246
aI2921
aI1656
aI1785
aI250
aI251
aI1406
aa(lp1644
a(lp1645
a(lp1646
a(lp1647
a(lp1648
a(lp1649
a(lp1650
a(lp1651
I2213
aI2439
aI4429
aI4369
aI3260
aI2045
aa(lp1652
a(lp1653
a(lp1654
a(lp1655
I1426
aI374
aa(lp1656
a(lp1657
I1642
aI1230
aI2516
aI878
aI374
aI4280
aa(lp1658
a(lp1659
I2049
aI2056
aI1545
aI1034
aI1548
aI13
aI528
aI3604
aI4118
aI2584
aI2079
aI4187
aI4137
aI3669
aI4140
aI3121
aI1587
aI3633
aI2626
aI1889
aI588
aI1619
aI2644
aI2830
aI2650
aI1115
aI613
aI2697
aI109
aI110
aI624
aI2171
aI637
aI2686
aI4233
aI3278
aI146
aI1183
aI3749
aI2215
aI2332
aI1194
aI2219
aI174
aI2737
aI4276
aI704
aI4289
aI2754
aI198
aI203
aI3789
aI718
aI2768
aI4305
aI210
aI3283
aI4309
aI2262
aI3801
aI2783
aI1248
aI1766
aI2280
aI3817
aI3306
aI3819
aI3309
aI1267
aI246
aI1271
aI1276
aI2301
aI2305
aI2518
aI4407
aI1294
aI3855
aI2842
aI796
aI1822
aI3876
aI3366
aI4145
aI4398
aI4402
aI649
aI313
aI4412
aI830
aI833
aI835
aI1350
aI3400
aI3915
aI1874
aI2387
aI852
aI1878
aI1367
aI2532
aI3419
aI2910
aI352
aI353
aI1899
aI1904
aI1914
aI3456
aI1410
aI395
aI4162
aI1424
aI3986
aI403
aI1428
aI3480
aI3482
aI3567
aI1948
aI4002
aI2985
aI2986
aI2990
aI2993
aI2485
aI4022
aI4084
aI1468
aI1479
aI1480
aI3425
aI1489
aI2515
aI4054
aI2519
aI3036
aI3067
aI2020
aI486
aI487
aI1519
aI497
aI3060
aI2038
aI4265
aI2555
aI3069
aI2559
aa(lp1660
a(lp1661
I1589
aI374
aa(lp1662
a(lp1663
a(lp1664
a(lp1665
a(lp1666
I1034
aI1606
aa(lp1667
I2928
aI1393
aI1974
aa(lp1668
I4017
aI377
aa(lp1669
a(lp1670
a(lp1671
a(lp1672
a(lp1673
I2928
aI1393
aa(lp1674
a(lp1675
I4273
aI758
aa(lp1676
a(lp1677
a(lp1678
a(lp1679
a(lp1680
a(lp1681
a(lp1682
a(lp1683
a(lp1684
a(lp1685
I2928
aI1230
aa(lp1686
a(lp1687
I1393
aI4273
aI1606
aI374
aI1599
aa(lp1688
a(lp1689
a(lp1690
a(lp1691
a(lp1692
I3176
aI4017
aI1186
aI4035
aI1276
aa(lp1693
a(lp1694
a(lp1695
I2347
aI3060
aa(lp1696
a(lp1697
I3749
aI1606
aI1230
aI400
aI758
aI4280
aI3033
aa(lp1698
I1426
aI878
aa(lp1699
I3586
aI2347
aa(lp1700
a(lp1701
a(lp1702
a(lp1703
a(lp1704
a(lp1705
I4035
aI4273
aI1576
aI553
aI2256
aI2676
aI2932
aI1974
aI569
aI639
aI3774
aI1599
aa(lp1706
a(lp1707
a(lp1708
a(lp1709
a(lp1710
I2347
aI3586
aI835
aI1477
aa(lp1711
a(lp1712
a(lp1713
a(lp1714
a(lp1715
I2760
aI1393
aa(lp1716
a(lp1717
a(lp1718
a(lp1719
a(lp1720
a(lp1721
I835
aI246
aa(lp1722
a(lp1723
I2208
aI2760
aI412
aI2623
aa(lp1724
a(lp1725
a(lp1726
a(lp1727
a(lp1728
a(lp1729
I2760
aI2928
aI3368
aI1426
aI758
aI569
aI1116
aI3326
aI3999
aa(lp1730
a(lp1731
a(lp1732
I569
aI2932
aa(lp1733
I1589
aI374
aa(lp1734
I2928
aI657
aa(lp1735
a(lp1736
a(lp1737
a(lp1738
I2387
aI1276
aa(lp1739
I4280
aI1589
aI878
aa(lp1740
a(lp1741
a(lp1742
a(lp1743
a(lp1744
a(lp1745
I4035
aI758
aI2928
aI1494
aI3033
aI1276
aa(lp1746
a(lp1747
a(lp1748
a(lp1749
a(lp1750
a(lp1751
a(lp1752
a(lp1753
a(lp1754
a(lp1755
a(lp1756
a(lp1757
a(lp1758
a(lp1759
I1494
aI1295
aa(lp1760
I640
aI2083
aI1606
aI2855
aI4105
aI1230
aI17
aI2932
aI4280
aI569
aI2652
aa(lp1761
a(lp1762
I4353
aI132
aI1029
aI2634
aI4205
aI4078
aI2226
aI3671
aI377
aI26
aI3963
aI3548
aI2238
aI3967
aa(lp1763
a(lp1764
a(lp1765
a(lp1766
a(lp1767
I1658
aI1034
aa(lp1768
a(lp1769
a(lp1770
a(lp1771
a(lp1772
a(lp1773
a(lp1774
I569
aI2932
aI1494
aI639
aa(lp1775
a(lp1776
a(lp1777
a(lp1778
a(lp1779
a(lp1780
a(lp1781
a(lp1782
a(lp1783
a(lp1784
a(lp1785
I4098
aI3332
aI3845
aI917
aI2840
aI3076
aI1186
aI681
aI3243
aI429
aI687
aI306
aI311
aI1466
aI1468
aI830
aI3269
aI842
aI2255
aI2256
aI1495
aI1637
aI3560
aI3564
aI238
aI3698
aI2676
aI1526
aI377
aa(lp1786
I2256
aI1494
aI4273
aI553
aI1642
aI2347
aI878
aI400
aI2676
aI915
aI2932
aI3989
aI246
aI1974
aI569
aI1477
aI639
aI2044
aI1034
aI2238
aI1599
aa(lp1787
a(lp1788
a(lp1789
a(lp1790
I1576
aI374
aa(lp1791
a(lp1792
a(lp1793
I569
aI2932
aa(lp1794
a(lp1795
a(lp1796
a(lp1797
I569
aI2083
aI1230
aI1606
aa(lp1798
I3746
aI835
aI246
aa(lp1799
a(lp1800
a(lp1801
a(lp1802
I4280
aI1642
aa(lp1803
I3176
aI1295
aa(lp1804
a(lp1805
a(lp1806
I3176
aI4126
aa(lp1807
a(lp1808
a(lp1809
a(lp1810
a(lp1811
a(lp1812
I3749
aI1230
aI2387
aI2676
aI758
aI2040
aI3033
aI2652
aI1599
aa(lp1813
a(lp1814
a(lp1815
a(lp1816
a(lp1817
a(lp1818
a(lp1819
I2760
aI2623
aa(lp1820
I1034
aI2676
aI1606
aa(lp1821
a(lp1822
a(lp1823
I1393
aI1658
aI835
aI3749
aI3774
aa(lp1824
I3746
aI835
aI3548
aI1494
aa(lp1825
a(lp1826
a(lp1827
a(lp1828
a(lp1829
I1589
aI374
aa(lp1830
a(lp1831
a(lp1832
a(lp1833
a(lp1834
a(lp1835
a(lp1836
a(lp1837
a(lp1838
a(lp1839
I3715
aI3588
aI3060
aI2760
aI4205
aI400
aI3633
aI1426
aI2083
aI3956
aI1459
aI152
aI569
aI3548
aI2301
aI3684
aI3967
aa(lp1840
a(lp1841
a(lp1842
a(lp1843
a(lp1844
I1576
aI2516
aI1599
aa(lp1845
a(lp1846
a(lp1847
a(lp1848
a(lp1849
a(lp1850
a(lp1851
a(lp1852
a(lp1853
a(lp1854
a(lp1855
a(lp1856
a(lp1857
a(lp1858
a(lp1859
a(lp1860
a(lp1861
a(lp1862
I4280
aI1589
aa(lp1863
a(lp1864
a(lp1865
a(lp1866
a(lp1867
a(lp1868
I1186
aI1390
aa(lp1869
a(lp1870
a(lp1871
a(lp1872
I2928
aI1393
aI1276
aa(lp1873
a(lp1874
I4280
aI377
aI413
aI3221
aa(lp1875
I1658
aI1034
aa(lp1876
a(lp1877
a(lp1878
a(lp1879
I1658
aI1034
aa(lp1880
a(lp1881
a(lp1882
a(lp1883
I2760
aI2623
aa(lp1884
I2652
aI3749
aa(lp1885
a(lp1886
a(lp1887
a(lp1888
a(lp1889
a(lp1890
I17
aI1034
aI835
aI1658
aI4429
aa(lp1891
a(lp1892
I3586
aI2347
aa(lp1893
a(lp1894
I2487
aI639
aa(lp1895
a(lp1896
I2256
aI306
aI429
aI2421
aa(lp1897
a(lp1898
I2932
aI3749
aa(lp1899
a(lp1900
I3586
aI3749
aI2347
aI246
aI1658
aI1477
aa(lp1901
a(lp1902
a(lp1903
a(lp1904
a(lp1905
I1658
aI246
aa(lp1906
a(lp1907
a(lp1908
a(lp1909
I3548
aI377
aI2516
aa(lp1910
I2928
aI3840
aI2066
aI4182
aI4231
aa(lp1911
a(lp1912
I569
aI211
aa(lp1913
I2208
aI514
aI2134
aI1035
aI1359
aI339
aI2774
aI3034
aI1276
aI3773
aa(lp1914
a(lp1915
I1034
aI835
aI1658
aI3326
aI3749
aa(lp1916
a(lp1917
a(lp1918
a(lp1919
a(lp1920
I2256
aI1477
aI1393
aI2928
aI553
aI1034
aI400
aI2676
aI2932
aI3326
aI246
aI1974
aI569
aI639
aI2044
aI2238
aI1599
aa(lp1921
I2760
aI3746
aI835
aI1426
aI246
aa(lp1922
a(lp1923
I1436
aI1599
aa(lp1924
a(lp1925
I4273
aI1116
aa(lp1926
I2652
aI844
aI316
aI639
aa(lp1927
I2932
aI639
aa(lp1928
a(lp1929
a(lp1930
a(lp1931
a(lp1932
I3746
aI2387
aI1276
aI1494
aa(lp1933
a(lp1934
a(lp1935
a(lp1936
a(lp1937
a(lp1938
a(lp1939
a(lp1940
a(lp1941
a(lp1942
a(lp1943
I4273
aI1435
aa(lp1944
a(lp1945
a(lp1946
I2387
aI1276
aa(lp1947
I3033
aI1606
aI1230
aI758
aa(lp1948
a(lp1949
I1658
aI1034
aa(lp1950
a(lp1951
a(lp1952
a(lp1953
I2652
aI1606
aI3959
aa(lp1954
a(lp1955
a(lp1956
a(lp1957
a(lp1958
a(lp1959
a(lp1960
I377
aI1426
aI1589
aa(lp1961
a(lp1962
a(lp1963
a(lp1964
a(lp1965
I569
aI2083
aI2652
aa(lp1966
I2387
aI1276
aa(lp1967
a(lp1968
a(lp1969
a(lp1970
a(lp1971
a(lp1972
I2928
aI2083
aI1606
aI400
aI569
aI2652
aI1599
aa(lp1973
a(lp1974
a(lp1975
I896
aI897
aI1666
aI270
aI2302
aI2196
aI4245
aI279
aI2432
aI1173
aI1185
aI675
aI2623
aI1704
aI553
aI428
aI1280
aI950
aI3582
aI1082
aI2877
aI2421
aI576
aI65
aI2521
aI3013
aI1606
aI256
aI2763
aI77
aI4304
aI722
aI2899
aI1111
aI3417
aI474
aI2256
aI737
aI2786
aI4329
aI2514
aI1393
aI501
aI4086
aI2409
aI1785
aI2811
aI1276
aI4094
aI1919
aa(lp1976
a(lp1977
I835
aI3548
aa(lp1978
I2928
aI657
aa(lp1979
a(lp1980
a(lp1981
a(lp1982
a(lp1983
a(lp1984
a(lp1985
a(lp1986
a(lp1987
a(lp1988
a(lp1989
a(lp1990
a(lp1991
I2083
aI2760
aI400
aI1426
aI569
aI3548
aa(lp1992
a(lp1993
a(lp1994
a(lp1995
I640
aI2405
aa(lp1996
I1589
aI374
aa(lp1997
I758
aI878
aI2928
aI374
aI4280
aI3033
aa(lp1998
a(lp1999
a(lp2000
a(lp2001
a(lp2002
a(lp2003
a(lp2004
I569
aI2083
aI2676
aI1606
aa(lp2005
a(lp2006
a(lp2007
a(lp2008
I2760
aI412
aI2083
aI2932
aI878
aa(lp2009
a(lp2010
a(lp2011
I2760
aI3060
aa(lp2012
a(lp2013
a(lp2014
I2760
aI1426
aI878
aa(lp2015
a(lp2016
a(lp2017
a(lp2018
I1393
aI1276
aa(lp2019
a(lp2020
I3368
aI3746
aI4054
aa(lp2021
I1034
aI1230
aI1589
aI758
aI3033
aI1658
aI3548
aa(lp2022
a(lp2023
I2387
aI1276
aa(lp2024
a(lp2025
a(lp2026
I2928
aI1393
aI1426
aa(lp2027
a(lp2028
a(lp2029
a(lp2030
a(lp2031
a(lp2032
a(lp2033
a(lp2034
a(lp2035
a(lp2036
a(lp2037
I3746
aI835
aI374
aI3368
aI2796
aI2928
aI758
aI569
aI2652
aa(lp2038
a(lp2039
I1658
aI1034
aa(lp2040
a(lp2041
I768
aI2051
aI2697
aI395
aI399
aI528
aI1811
aI2838
aI1560
aI3363
aI36
aI2341
aI3623
aI3368
aI2995
aI3384
aI569
aI2620
aI832
aI1225
aI4429
aI2254
aI3664
aI3281
aI2387
aI217
aI91
aI2526
aI3088
aI2530
aI1123
aI1517
aI3694
aI3825
aI2170
aI251
aa(lp2042
a(lp2043
a(lp2044
a(lp2045
I3328
aI3073
aI4054
aI2182
aI1545
aI270
aI3088
aI2196
aI4245
aI2838
aI3232
aI3745
aI36
aI2064
aI3368
aI553
aI2090
aI558
aI3247
aI3129
aI2490
aI3389
aI705
aI2118
aI1098
aI1622
aI205
aI79
aI4310
aI3449
aI3419
aI1116
aI1117
aI528
aI2530
aI868
aI613
aI4329
aI1515
aI497
aI3817
aI1785
aI1338
aI1919
aa(lp2046
I2760
aI4429
aI400
aI1650
aI2932
aI2623
aa(lp2047
a(lp2048
a(lp2049
a(lp2050
I3176
aI3368
aI1658
aI1034
aa(lp2051
a(lp2052
I2040
aI3368
aI553
aa(lp2053
a(lp2054
I4017
aI1494
aa(lp2055
I3033
aI1230
aI758
aa(lp2056
I3746
aI2387
aI1276
aI1494
aa(lp2057
I1034
aI835
aI1658
aa(lp2058
I4280
aI1589
aa(lp2059
I400
aI3749
aa(lp2060
I2928
aI1393
aI1276
aa(lp2061
a(lp2062
a(lp2063
a(lp2064
I4280
aI1642
aI1606
aa(lp2065
I3368
aI2347
aI2044
aI1477
aa(lp2066
a(lp2067
I4229
aI3623
aI1582
aI3730
aI1909
aI4182
aI4280
aa(lp2068
a(lp2069
a(lp2070
a(lp2071
I528
aI2614
aa(lp2072
a(lp2073
I2760
aI2081
aa(lp2074
a(lp2075
a(lp2076
a(lp2077
a(lp2078
I2760
aI412
aI2623
aa(lp2079
a(lp2080
I3746
aI835
aI1606
aI3548
aI1034
aI1230
aI1658
aI2652
aa(lp2081
a(lp2082
I2760
aI1009
aI638
aI2072
aa(lp2083
I377
aI3221
aa(lp2084
I512
aI3590
aI7
aI8
aI3086
aI1548
aI526
aI528
aI17
aI531
aI2581
aI3332
aI548
aI3623
aI42
aI3633
aI3634
aI569
aI1090
aI1606
aI2126
aI2128
aI3598
aI2652
aI95
aI2657
aI113
aI2676
aI2678
aI632
aI2170
aI1153
aI136
aI2186
aI3734
aI152
aI3526
aI3246
aI3762
aI2229
aI1207
aI2236
aI198
aI4309
aI217
aI4315
aI3805
aI2341
aI3827
aI3325
aI2307
aI1796
aI3336
aI4362
aI1293
aI2515
aI4373
aI2337
aI3874
aI293
aI3366
aI3369
aI3883
aI1838
aI3208
aI1330
aI4404
aI2869
aI3385
aI1759
aI650
aI2888
aI2387
aI348
aI354
aI1392
aI2932
aI887
aI382
aI896
aI1413
aI909
aI3982
aI922
aI2972
aI3482
aI416
aI4001
aI4002
aI420
aI1446
aI1964
aI1522
aI2990
aI2479
aI2993
aI1971
aI952
aI954
aI3003
aI4000
aI1990
aI1480
aI2003
aI2007
aI1507
aI4071
aI3568
aI4082
aI3062
aI3580
aI3069
aI3070
aa(lp2085
a(lp2086
a(lp2087
I1589
aI374
aa(lp2088
a(lp2089
I4280
aI1642
aI2387
aa(lp2090
a(lp2091
I2044
aI1116
aa(lp2092
a(lp2093
a(lp2094
I3033
aI1230
aI758
aa(lp2095
I2676
aI2387
aI2652
aI1230
aI3033
aa(lp2096
a(lp2097
a(lp2098
a(lp2099
I3033
aI1230
aa(lp2100
a(lp2101
a(lp2102
a(lp2103
I1230
aI758
aI1589
aI374
aI3033
aa(lp2104
a(lp2105
I2387
aI1276
aa(lp2106
a(lp2107
a(lp2108
a(lp2109
I2760
aI355
aI878
aa(lp2110
a(lp2111
a(lp2112
I3176
aI1494
aI1295
aa(lp2113
a(lp2114
a(lp2115
a(lp2116
a(lp2117
a(lp2118
a(lp2119
I3363
aI1477
aI553
aI1642
aI844
aI400
aI1116
aI246
aI2044
aa(lp2120
a(lp2121
a(lp2122
I4017
aI3326
aa(lp2123
a(lp2124
a(lp2125
a(lp2126
a(lp2127
I400
aI569
aI2083
aI2652
aI1606
aa(lp2128
a(lp2129
I2083
aI2652
aa(lp2130
a(lp2131
a(lp2132
a(lp2133
a(lp2134
a(lp2135
I1912
aI2930
aI141
aI2774
aI639
aa(lp2136
a(lp2137
a(lp2138
a(lp2139
a(lp2140
I2208
aI1276
aa(lp2141
a(lp2142
a(lp2143
a(lp2144
I4273
aI758
aa(lp2145
a(lp2146
a(lp2147
a(lp2148
a(lp2149
a(lp2150
I569
aI2932
aa(lp2151
a(lp2152
a(lp2153
I1589
aI374
aa(lp2154
a(lp2155
I4035
aI1230
aI758
aI3774
aa(lp2156
a(lp2157
I3586
aI2347
aI1477
aa(lp2158
a(lp2159
a(lp2160
a(lp2161
a(lp2162
a(lp2163
a(lp2164
a(lp2165
a(lp2166
I1606
aI1642
aI1230
aI2516
aI758
aI4280
aI3033
aa(lp2167
a(lp2168
a(lp2169
a(lp2170
a(lp2171
I835
aI3749
aI2083
aI2040
aI569
aI2652
aa(lp2172
I1494
aI1658
aI1034
aI246
aI3749
aa(lp2173
a(lp2174
a(lp2175
a(lp2176
a(lp2177
a(lp2178
a(lp2179
a(lp2180
a(lp2181
a(lp2182
a(lp2183
I553
aI2044
aa(lp2184
I878
aI1589
aI374
aa(lp2185
I4280
aI1642
aI3902
aa(lp2186
a(lp2187
I640
aI2083
aI1606
aI2855
aI4105
aI1230
aI2932
aI4280
aI569
aI2652
aa(lp2188
a(lp2189
a(lp2190
I4280
aI1642
aa(lp2191
a(lp2192
a(lp2193
a(lp2194
a(lp2195
a(lp2196
a(lp2197
I1494
aI4273
aI1576
aI553
aI400
aI2676
aI2932
aI246
aI1974
aI569
aI639
aI2044
aI2238
aI1599
aa(lp2198
a(lp2199
a(lp2200
I4280
aI3326
aa(lp2201
I2676
aI3749
aa(lp2202
a(lp2203
a(lp2204
a(lp2205
a(lp2206
a(lp2207
I3036
aI3999
aa(lp2208
a(lp2209
I1035
aI1554
aI622
aI412
aI1569
aI40
aI4009
aI1451
aI559
aI1461
aI1722
aI2760
aI1483
aI339
aI2774
aI3034
aI2139
aI1628
aI3814
aI3566
aI2600
aI1912
aI2297
aI1276
aI789
aa(lp2210
I3746
aI2932
aI246
aa(lp2211
a(lp2212
a(lp2213
I4280
aI1393
aI3326
aI374
aa(lp2214
I1650
aI4429
aI2614
aa(lp2215
a(lp2216
I1034
aI1658
aI1599
aa(lp2217
a(lp2218
a(lp2219
a(lp2220
I1658
aI1034
aa(lp2221
a(lp2222
a(lp2223
a(lp2224
a(lp2225
I569
aI2652
aa(lp2226
a(lp2227
I1761
aI3749
aI1606
aI3548
aI1230
aI374
aI3033
aI2652
aI1599
aa(lp2228
I2928
aI657
aa(lp2229
a(lp2230
I835
aI3749
aI2516
aI1230
aI2083
aI2932
aI1589
aI374
aI3033
aI569
aI2652
aa(lp2231
a(lp2232
a(lp2233
a(lp2234
a(lp2235
I2516
aI1230
aa(lp2236
a(lp2237
I2083
aI400
aI2932
aI2487
aI569
aI3999
aI2652
aI639
aa(lp2238
a(lp2239
I3328
aI1761
aI131
aI3611
aI4245
aI4329
aI3963
aI205
aI270
aI400
aI1919
aI2196
aI3982
aI440
aI1785
aI26
aI123
aI3999
aI287
aa(lp2240
a(lp2241
a(lp2242
a(lp2243
a(lp2244
a(lp2245
I569
aI211
aI2652
aa(lp2246
a(lp2247
I569
aI2932
aI1599
aa(lp2248
a(lp2249
a(lp2250
a(lp2251
a(lp2252
a(lp2253
I3033
aI2516
aI1230
aI758
aa(lp2254
a(lp2255
I2040
aI569
aI1606
aa(lp2256
I2652
aI3746
aI835
aI3269
aI3368
aI553
aI2796
aI2928
aI758
aI1784
aI569
aI1436
aI1116
aI1599
aa(lp2257
I3076
aI1111
aI4245
aI1430
aI2840
aI671
aI1185
aI1704
aI429
aI306
aI1974
aI1466
aI2877
aI3269
aI2763
aI3543
aI2521
aI1895
aI4329
aI2421
aI1784
aI1785
aI1919
aa(lp2258
a(lp2259
a(lp2260
a(lp2261
I4280
aI1642
aa(lp2262
a(lp2263
I3746
aI3749
aI1034
aI1658
aI2652
aI1477
aa(lp2264
a(lp2265
a(lp2266
a(lp2267
a(lp2268
a(lp2269
a(lp2270
a(lp2271
I2387
aI1276
aa(lp2272
a(lp2273
I2928
aI1393
aI1606
aa(lp2274
a(lp2275
a(lp2276
I4280
aI377
aa(lp2277
a(lp2278
a(lp2279
a(lp2280
a(lp2281
I1658
aI246
aa(lp2282
I569
aI2676
aI3749
aa(lp2283
a(lp2284
a(lp2285
I2760
aI3586
aI1116
aI2623
aa(lp2286
I377
aI2516
aa(lp2287
a(lp2288
a(lp2289
a(lp2290
a(lp2291
a(lp2292
a(lp2293
a(lp2294
a(lp2295
a(lp2296
a(lp2297
a(lp2298
I2208
aI3586
aI1276
aa(lp2299
I1393
aI1589
aa(lp2300
a(lp2301
a(lp2302
I1034
aI1838
aI3633
aI1230
aI3033
aI1658
aa(lp2303
I2928
aI1393
aI1974
aa(lp2304
a(lp2305
I1393
aI1230
aa(lp2306
I1658
aI1034
aa(lp2307
a(lp2308
I2083
aI3749
aI1606
aI2855
aI4273
aI2932
aI3959
aI569
aI2652
aI1599
aa(lp2309
a(lp2310
a(lp2311
a(lp2312
a(lp2313
a(lp2314
a(lp2315
I1426
aI1589
aa(lp2316
a(lp2317
a(lp2318
a(lp2319
a(lp2320
a(lp2321
a(lp2322
I3548
aI374
aa(lp2323
a(lp2324
a(lp2325
I2932
aI639
aa(lp2326
a(lp2327
a(lp2328
a(lp2329
a(lp2330
I640
aI1642
aI1230
aI758
aI4280
aI3033
aa(lp2331
a(lp2332
a(lp2333
I1658
aI1034
aI3989
aa(lp2334
a(lp2335
I2594
aI1477
aI1642
aI2347
aI844
aI3586
aI400
aI3633
aI211
aI2932
aI569
aI3999
aI2652
aI1599
aa(lp2336
I3548
aI377
aI2652
aI3221
aI639
aa(lp2337
a(lp2338
I569
aI2083
aa(lp2339
I377
aI1034
aI4323
aI2676
aI1599
aa(lp2340
a(lp2341
a(lp2342
I835
aI3749
aI2083
aI2040
aI569
aI2652
aa(lp2343
a(lp2344
I4280
aI1642
aa(lp2345
a(lp2346
a(lp2347
a(lp2348
I3969
aI3586
aI1899
aI2941
aI2826
aI780
aI1422
aI2064
aI785
aI658
aI915
aI404
aI2709
aI3862
aI3609
aI3097
aI283
aI925
aI2334
aI3525
aI4384
aI3617
aI1186
aI2395
aI548
aI659
aI1116
aI810
aI3499
aI1709
aI3504
aI1073
aI4211
aI181
aI2755
aI823
aI1694
aI2490
aI2619
aI1212
aI3390
aI3136
aI193
aI194
aI3395
aI1477
aI1891
aI2722
aI979
aI3715
aI270
aI2518
aI1240
aI1115
aI1372
aI4061
aI1125
aI4315
aI528
aI1250
aI995
aI3430
aI614
aI4071
aI1384
aI617
aI1698
aI1387
aI2156
aI365
aI3567
aI1267
aI3060
aI3831
aI4412
aI1785
aI1194
aI2523
aI3093
aa(lp2349
a(lp2350
a(lp2351
a(lp2352
I1606
aI1599
aa(lp2353
a(lp2354
a(lp2355
a(lp2356
a(lp2357
a(lp2358
a(lp2359
I1576
aI3033
aI758
aa(lp2360
I3176
aI2405
aa(lp2361
a(lp2362
a(lp2363
a(lp2364
a(lp2365
a(lp2366
a(lp2367
a(lp2368
a(lp2369
a(lp2370
a(lp2371
a(lp2372
a(lp2373
a(lp2374
a(lp2375
a(lp2376
a(lp2377
a(lp2378
a(lp2379
a(lp2380
a(lp2381
a(lp2382
a(lp2383
I3749
aI3036
aI1230
aI374
aI3033
aI3548
aI1599
aa(lp2384
a(lp2385
a(lp2386
a(lp2387
I2516
aI1230
aa(lp2388
I1281
aI3586
aI2438
aI1159
aI1931
aI3599
aI3565
aI528
aI1426
aI1811
aI1945
aI4250
aI4280
aI156
aI285
aI1183
aI2464
aI347
aI2596
aI2088
aI3113
aI2055
aI2817
aI1965
aI2094
aI3119
aI3506
aI1737
aI2104
aI315
aI832
aI2884
aI4038
aI1225
aI247
aI77
aI1230
aI4335
aI593
aI978
aI339
aI2040
aI3600
aI4055
aI3033
aI603
aI3292
aI2270
aI2083
aI2918
aI2022
aI1295
aI3436
aI2514
aI1391
aI624
aI370
aI723
aI4084
aI3326
aI2678
aI2679
aI3064
aI1658
aI251
aI1276
aI3482
aa(lp2389
a(lp2390
a(lp2391
a(lp2392
a(lp2393
a(lp2394
a(lp2395
a(lp2396
I640
aI4035
aI1477
aI2347
aI844
aI758
aI316
aI3774
aa(lp2397
a(lp2398
a(lp2399
I246
aI1230
aa(lp2400
a(lp2401
I3176
aI569
aI1186
aI2652
aI1390
aa(lp2402
a(lp2403
a(lp2404
a(lp2405
a(lp2406
I640
aI3332
aI4294
aI3176
aI3818
aI1295
aI530
aI3509
aI2359
aI377
aI1082
aI3935
aI1994
aI2655
aa(lp2407
a(lp2408
a(lp2409
I1576
aI758
aa(lp2410
I1576
aI1393
aI2928
aI1974
aI1599
aa(lp2411
I4280
aI1430
aa(lp2412
a(lp2413
a(lp2414
a(lp2415
a(lp2416
a(lp2417
a(lp2418
a(lp2419
a(lp2420
a(lp2421
a(lp2422
I2256
aI1974
aI1895
aa(lp2423
a(lp2424
a(lp2425
I1606
aI2760
aI1230
aI758
aI3033
aI3548
aa(lp2426
a(lp2427
a(lp2428
a(lp2429
I3586
aI4429
aa(lp2430
a(lp2431
a(lp2432
a(lp2433
I2928
aI1393
aI1974
aa(lp2434
a(lp2435
a(lp2436
a(lp2437
I569
aI2676
aI3749
aa(lp2438
a(lp2439
I2387
aI1276
aa(lp2440
I1650
aI4429
aa(lp2441
a(lp2442
a(lp2443
a(lp2444
a(lp2445
a(lp2446
a(lp2447
a(lp2448
a(lp2449
a(lp2450
a(lp2451
a(lp2452
a(lp2453
a(lp2454
a(lp2455
a(lp2456
a(lp2457
I3746
aI246
aa(lp2458
a(lp2459
a(lp2460
I2760
aI412
aa(lp2461
a(lp2462
a(lp2463
a(lp2464
a(lp2465
I2387
aI1276
aa(lp2466
I4280
aI3902
aa(lp2467
a(lp2468
a(lp2469
a(lp2470
a(lp2471
a(lp2472
a(lp2473
I2676
aI3749
aa(lp2474
I2986
aI4310
aI3247
aa(lp2475
a(lp2476
a(lp2477
a(lp2478
a(lp2479
I4280
aI1642
aa(lp2480
I569
aI2083
aa(lp2481
I4280
aI3326
aa(lp2482
I569
aI2652
aI1606
aI3633
aa(lp2483
a(lp2484
a(lp2485
I835
aI2796
aa(lp2486
I1658
aI1034
aa(lp2487
a(lp2488
I1893
aI3369
aI3785
aI4402
aI3997
aI3378
aI3497
aI2236
aI1405
aI639
aa(lp2489
I2652
aI3746
aI835
aI3368
aI553
aI2796
aI2928
aI758
aI569
aI1116
aI1599
aa(lp2490
a(lp2491
I2652
aI3586
aI1477
aI553
aI2347
aI844
aI400
aI3633
aI211
aI2932
aI569
aI2044
aI639
aa(lp2492
a(lp2493
a(lp2494
a(lp2495
a(lp2496
a(lp2497
a(lp2498
a(lp2499
a(lp2500
a(lp2501
a(lp2502
I4280
aI1642
aa(lp2503
a(lp2504
a(lp2505
a(lp2506
a(lp2507
a(lp2508
a(lp2509
a(lp2510
a(lp2511
a(lp2512
a(lp2513
a(lp2514
a(lp2515
I2387
aI1276
aI1974
aa(lp2516
I1658
aI2083
aI2652
aI1034
aa(lp2517
I132
aI3462
aI4205
aI1169
aI3229
aI4126
aI929
aI3877
aI3623
aI1576
aI2605
aI1437
aI2610
aI1843
aI2229
aI3385
aI2234
aI3644
aI4418
aI3652
aI2252
aI1230
aI2386
aI3286
aI2575
aI3548
aI954
aI2656
aI3425
aI2812
aI491
aI2285
aI494
aI240
aI1908
aI2165
aI1656
aI377
aI3963
aI3452
aI1533
aI3967
aa(lp2518
a(lp2519
I1034
aI2347
aI3060
aI1658
aa(lp2520
I1658
aI1034
aa(lp2521
a(lp2522
I2256
aI1974
aa(lp2523
a(lp2524
I3586
aI2347
aa(lp2525
a(lp2526
a(lp2527
I2040
aI4429
aI2614
aa(lp2528
I640
aI3269
aI1606
aI2855
aI4105
aI4273
aI2932
aI569
aI3999
aI2652
aI1599
aa(lp2529
a(lp2530
a(lp2531
I3363
aI553
aI2044
aI2928
aI1393
aI2040
aI1116
aa(lp2532
a(lp2533
I4280
aI3033
aI1658
aI3036
aI1230
aa(lp2534
a(lp2535
a(lp2536
a(lp2537
a(lp2538
I2928
aI758
aa(lp2539
a(lp2540
a(lp2541
a(lp2542
a(lp2543
a(lp2544
a(lp2545
a(lp2546
a(lp2547
I640
aI1606
aI2855
aI400
aI2932
aI569
aI2652
aI1599
aa(lp2548
a(lp2549
a(lp2550
a(lp2551
I569
aI1606
aa(lp2552
a(lp2553
I1589
aI374
aa(lp2554
a(lp2555
a(lp2556
I1658
aI1034
aI3749
aa(lp2557
a(lp2558
I1589
aI374
aa(lp2559
a(lp2560
I1034
aI1658
aI1494
aI1295
aa(lp2561
a(lp2562
a(lp2563
a(lp2564
a(lp2565
a(lp2566
a(lp2567
a(lp2568
a(lp2569
a(lp2570
I3033
aI4429
aI1230
aa(lp2571
a(lp2572
a(lp2573
a(lp2574
a(lp2575
a(lp2576
I1576
aI2516
aa(lp2577
a(lp2578
a(lp2579
a(lp2580
I2760
aI1606
aI1230
aa(lp2581
I1393
aI1276
aa(lp2582
I2083
aI2760
aI2652
aI1230
aI1116
aI3176
aI1276
aI2623
aa(lp2583
a(lp2584
a(lp2585
I835
aI3749
aI2760
aI1034
aI1494
aI1658
aI2623
aa(lp2586
a(lp2587
a(lp2588
a(lp2589
I3033
aI1230
aa(lp2590
I3033
aI3548
aI1230
aI758
aI1589
aa(lp2591
a(lp2592
a(lp2593
a(lp2594
a(lp2595
I4280
aI1642
aI250
aI2334
aa(lp2596
I4273
aI758
aI3033
aa(lp2597
I2387
aI1276
aa(lp2598
a(lp2599
a(lp2600
a(lp2601
I2208
aI2760
aI1276
aa(lp2602
a(lp2603
a(lp2604
a(lp2605
I4280
aI3033
aI1642
aI1230
aa(lp2606
I1642
aI1230
aI4273
aI2516
aI4280
aI3033
aa(lp2607
a(lp2608
a(lp2609
a(lp2610
a(lp2611
I1576
aI2516
aI758
aa(lp2612
a(lp2613
a(lp2614
a(lp2615
I608
aI2213
aI486
aI487
aI1642
aI4429
aI528
aI2070
aI2526
aa(lp2616
a(lp2617
a(lp2618
a(lp2619
a(lp2620
I3586
aI2347
aa(lp2621
I3368
aI2760
aI374
aI2040
aI1116
aI2623
aa(lp2622
I4017
aI3326
aa(lp2623
I4429
aI758
aa(lp2624
I3974
aI135
aI1004
aI907
aI3341
aI1048
aI531
aI2581
aI2584
aI1818
aI2077
aI3231
aI4009
aI2733
aI1974
aI1722
aI2620
aI3126
aI2760
aI3664
aI4054
aI3672
aI3161
aI1882
aI91
aI2786
aI358
aI2790
aI4369
aI3816
aI3946
aI2284
aI3821
aI3060
aI3317
aI2045
aa(lp2625
a(lp2626
a(lp2627
I1658
aI1034
aa(lp2628
a(lp2629
a(lp2630
a(lp2631
I1034
aI835
aa(lp2632
a(lp2633
a(lp2634
a(lp2635
I1761
aI878
aI1230
aI758
aI3033
aI4280
aI377
aa(lp2636
a(lp2637
I672
aI3779
aI3176
aI429
aI2702
aI1272
aI1084
aa(lp2638
a(lp2639
a(lp2640
I2760
aI3060
aa(lp2641
I2928
aI3033
aI1230
aI758
aa(lp2642
a(lp2643
a(lp2644
a(lp2645
I3746
aI246
aI1230
aI1589
aI374
aI3033
aI1658
aa(lp2646
I400
aI844
aI1477
aa(lp2647
a(lp2648
I640
aI2652
aa(lp2649
a(lp2650
a(lp2651
I1658
aI3749
aa(lp2652
I2760
aI412
aI1606
aa(lp2653
I512
aI4267
aI7
aI8
aI528
aI531
aI2581
aI2079
aI2083
aI548
aI3623
aI42
aI519
aI2226
aI2094
aI3633
aI3637
aI569
aI1119
aI573
aI1599
aI1088
aI1606
aI2126
aI2128
aI2488
aI1618
aI84
aI2647
aI605
aI95
aI2656
aI2657
aI2658
aI1637
aI614
aI3772
aI108
aI109
aI110
aI113
aI2676
aI2678
aI2170
aI2684
aI639
aI640
aI3201
aI3715
aI648
aI2697
aI2186
aI2709
aI152
aI3746
aI3749
aI3243
aI2224
aI3762
aI2229
aI2236
aI3266
aI2244
aI198
aI3785
aI2255
aI2262
aI217
aI4315
aI1759
aI2789
aI2790
aI3823
aI242
aI3827
aI4353
aI4354
aI2307
aI4363
aI2515
aI1952
aI1811
aI2334
aI2335
aI3874
aI2341
aI3369
aI3883
aI3208
aI4402
aI823
aI3395
aI1354
aI693
aI1883
aI2400
aI1387
aI1392
aI2940
aI382
aI896
aI1413
aI395
aI909
aI3982
aI400
aI922
aI413
aI415
aI416
aI420
aI1964
aI2546
aI2991
aI2481
aI1971
aI952
aI2490
aI4031
aI4000
aI3526
aI1479
aI979
aI1614
aI1925
aI2527
aI1507
aI485
aI4071
aI3560
aI3050
aI3564
aI1522
aI2036
aI3062
aI3580
aI3070
aa(lp2654
a(lp2655
a(lp2656
I3176
aI377
aI2405
aI3326
aI4017
aa(lp2657
I1606
aI2855
aI1642
aI2516
aI1230
aI2932
aI3033
aI4280
aI569
aI2652
aI1599
aa(lp2658
I2083
aI3749
aI1606
aI2652
aI1230
aI4273
aI2932
aI4105
aI569
aI1436
aI1599
aa(lp2659
I2932
aI2652
aI3749
aI1606
aI3036
aa(lp2660
a(lp2661
I3548
aI1589
aI374
aa(lp2662
a(lp2663
I2928
aI3033
aI1230
aI758
aa(lp2664
a(lp2665
a(lp2666
a(lp2667
a(lp2668
I1276
aI1494
aa(lp2669
I377
aI4323
aa(lp2670
a(lp2671
I4280
aI377
aa(lp2672
a(lp2673
a(lp2674
I2676
aI3749
aa(lp2675
a(lp2676
a(lp2677
I3328
aI3586
aI131
aI2436
aI1413
aI4363
aI1172
aI141
aI270
aI2472
aI1811
aI2196
aI4245
aI1430
aI2200
aI1306
aI3483
aI287
aI4131
aI2338
aI2083
aI3749
aI166
aI2673
aI1704
aI3036
aI2094
aI440
aI569
aI3389
aI1598
aI1599
aI320
aI3543
aI3269
aI1606
aI72
aI1354
aI2763
aI4047
aI2003
aI142
aI1111
aI2652
aI4322
aI1819
aI2281
aI622
aI1392
aI296
aI2930
aI2932
aI4329
aI1784
aI1785
aI1919
aa(lp2678
a(lp2679
I569
aI2387
aI2083
aI2652
aa(lp2680
I2387
aI1276
aa(lp2681
I4280
aI1642
aa(lp2682
a(lp2683
I2932
aI246
aa(lp2684
a(lp2685
I2928
aI2652
aI3749
aI1230
aa(lp2686
a(lp2687
I1658
aI1034
aa(lp2688
a(lp2689
a(lp2690
a(lp2691
a(lp2692
I4280
aI1589
aa(lp2693
a(lp2694
a(lp2695
a(lp2696
a(lp2697
a(lp2698
I3749
aI1606
aI2760
aI3036
aI1642
aI1230
aI4280
aI1426
aI2932
aI3033
aI2040
aI569
aI1658
aI3999
aI2652
aI1599
aa(lp2699
I1393
aI1426
aI3326
aa(lp2700
a(lp2701
a(lp2702
a(lp2703
I3176
aI2636
aa(lp2704
a(lp2705
a(lp2706
a(lp2707
a(lp2708
a(lp2709
a(lp2710
I569
aI3586
aI2347
aI2652
aI1477
aa(lp2711
a(lp2712
a(lp2713
a(lp2714
a(lp2715
a(lp2716
I1393
aI1276
aa(lp2717
a(lp2718
a(lp2719
a(lp2720
a(lp2721
a(lp2722
a(lp2723
I2347
aI3060
aa(lp2724
I3176
aI1295
aa(lp2725
a(lp2726
a(lp2727
I3586
aI1276
aa(lp2728
a(lp2729
a(lp2730
I4017
aI3326
aI1494
aa(lp2731
a(lp2732
a(lp2733
a(lp2734
I2760
aI2623
aI1494
aI1295
aa(lp2735
a(lp2736
a(lp2737
a(lp2738
I1658
aI1034
aa(lp2739
I1034
aI1599
aa(lp2740
I569
aI1034
aI1606
aa(lp2741
I4017
aI1494
aa(lp2742
a(lp2743
a(lp2744
a(lp2745
a(lp2746
a(lp2747
I256
aI1393
aI3903
aa(lp2748
a(lp2749
a(lp2750
a(lp2751
I400
aI569
aI211
aI2932
aa(lp2752
a(lp2753
I2760
aI1116
aa(lp2754
a(lp2755
I1658
aI1034
aa(lp2756
I2347
aI3430
aa(lp2757
a(lp2758
I3033
aI1230
aI758
aa(lp2759
I4280
aI1642
aa(lp2760
a(lp2761
I768
aI3586
aI1033
aI3088
aI1041
aI531
aI2581
aI2072
aI3610
aI2077
aI2081
aI91
aI2600
aI1202
aI3126
aI569
aI2620
aI2623
aI4161
aI1606
aI4171
aI2639
aI3664
aI3672
aI3161
aI2651
aI1116
aI3167
aI103
aI1132
aI2579
aI4218
aI638
aI1216
aI3718
aI135
aI648
aI2697
aI24
aI158
aI3231
aI2208
aI2733
aI1714
aI4279
aI1722
aI1728
aI2752
aI1569
aI202
aI2774
aI2790
aI3816
aI2284
aI3821
aI3317
aI1048
aI4352
aI1282
aI3333
aI3341
aI4369
aI1818
aI3363
aI2584
aI3368
aI1838
aI3382
aI3384
aI1339
aI907
aI1882
aI355
aI230
aI358
aI2108
aI3946
aI3440
aI1393
aI2424
aI378
aI1920
aI1411
aI3974
aI395
aI399
aI1426
aI405
aI2459
aI412
aI3999
aI4001
aI4009
aI3499
aI1990
aI1441
aI1480
aI459
aI4054
aI2007
aI2010
aI3548
aI2013
aI1505
aI1004
aI1518
aI1009
aI3060
aI2045
aa(lp2762
a(lp2763
a(lp2764
I4035
aI1576
aI2256
aI2676
aI1974
aI3774
aI1599
aa(lp2765
a(lp2766
a(lp2767
a(lp2768
a(lp2769
I1034
aI835
aI1658
aa(lp2770
a(lp2771
a(lp2772
a(lp2773
a(lp2774
a(lp2775
I2208
aI2760
aI1359
aI2134
aI1912
aI1276
aa(lp2776
I3176
aI3221
aa(lp2777
a(lp2778
a(lp2779
a(lp2780
a(lp2781
a(lp2782
a(lp2783
a(lp2784
I3633
aI1658
aI1034
aa(lp2785
a(lp2786
a(lp2787
I897
aI1426
aI1974
aI878
aI2623
aa(lp2788
a(lp2789
a(lp2790
I2652
aI1230
aI2928
aI4273
aI758
aI3033
aI1116
aI1599
aa(lp2791
I1606
aI2760
aI1230
aI3033
aI2652
aI2623
aa(lp2792
I4280
aI1642
aa(lp2793
a(lp2794
a(lp2795
a(lp2796
I4273
aI2932
aI3999
aa(lp2797
I1120
aI3233
aI835
aI4054
aI3444
aI3050
aI4363
aI2255
aI2488
aI2036
aI246
aI280
aI2484
aI4031
aa(lp2798
a(lp2799
I1576
aI2928
aI1393
aI4280
aI377
aI1599
aa(lp2800
a(lp2801
a(lp2802
a(lp2803
a(lp2804
a(lp2805
a(lp2806
I3033
aI1230
aa(lp2807
a(lp2808
a(lp2809
a(lp2810
a(lp2811
a(lp2812
I1974
aI1606
aI1599
aa(lp2813
I2516
aI4126
aa(lp2814
a(lp2815
a(lp2816
a(lp2817
a(lp2818
I2387
aI3326
aa(lp2819
a(lp2820
a(lp2821
a(lp2822
a(lp2823
I1426
aI4429
aa(lp2824
a(lp2825
a(lp2826
I4280
aI1642
aa(lp2827
I3586
aI2347
aa(lp2828
a(lp2829
a(lp2830
I2932
aI246
aa(lp2831
I1658
aI1034
aa(lp2832
a(lp2833
I377
aI4323
aa(lp2834
a(lp2835
a(lp2836
a(lp2837
a(lp2838
a(lp2839
I3363
aI3368
aI1116
aI4273
aI2040
aI2044
aa(lp2840
a(lp2841
I1784
aI2256
aa(lp2842
a(lp2843
I1658
aI1034
aa(lp2844
a(lp2845
a(lp2846
a(lp2847
a(lp2848
a(lp2849
a(lp2850
a(lp2851
a(lp2852
a(lp2853
a(lp2854
a(lp2855
a(lp2856
I2307
aI1413
aI2186
aI3982
aI400
aI152
aI1603
aI20
aI1560
aI420
aI42
aI2546
aI1589
aI4280
aI569
aI2527
aI316
aI573
aI3907
aI1606
aI1618
aI3036
aI1759
aI2656
aI1507
aI1637
aI1392
aI1522
aI3827
aI3317
aI374
aI2937
aI382
aa(lp2857
I3176
aI1295
aa(lp2858
a(lp2859
a(lp2860
a(lp2861
a(lp2862
a(lp2863
a(lp2864
a(lp2865
a(lp2866
a(lp2867
a(lp2868
a(lp2869
a(lp2870
I3999
aI2083
aI3036
aI1606
aI1599
aa(lp2871
a(lp2872
a(lp2873
I4280
aI3326
aa(lp2874
a(lp2875
a(lp2876
a(lp2877
a(lp2878
I2256
aI1974
aa(lp2879
a(lp2880
I1276
aI1230
aI758
aI4429
aa(lp2881
a(lp2882
a(lp2883
a(lp2884
a(lp2885
I2387
aI3326
aa(lp2886
a(lp2887
a(lp2888
a(lp2889
I569
aI835
aI2083
aI1599
aa(lp2890
a(lp2891
a(lp2892
a(lp2893
a(lp2894
a(lp2895
I3033
aI1230
aI758
aa(lp2896
a(lp2897
a(lp2898
a(lp2899
a(lp2900
I2928
aI1393
aI1974
aa(lp2901
I400
aI569
aa(lp2902
I4017
aI3326
aa(lp2903
I3586
aI1276
aa(lp2904
a(lp2905
a(lp2906
a(lp2907
a(lp2908
a(lp2909
I3033
aI1230
aI758
aa(lp2910
I1426
aI878
aa(lp2911
I1658
aI1034
aa(lp2912
a(lp2913
I4280
aI1589
aI374
aa(lp2914
a(lp2915
a(lp2916
a(lp2917
a(lp2918
a(lp2919
I1426
aI2387
aI1276
aa(lp2920
a(lp2921
a(lp2922
I4280
aI1642
aa(lp2923
a(lp2924
a(lp2925
a(lp2926
a(lp2927
a(lp2928
a(lp2929
I3840
aI519
aI8
aI2059
aI1560
aI4130
aI547
aI42
aI556
aI1587
aI1595
aI4161
aI1606
aI2640
aI4182
aI2662
aI4205
aI2684
aI4288
aI1666
aI4231
aI1672
aI657
aI1684
aI4245
aI151
aI3233
aI2227
aI1728
aI3776
aI1218
aI1733
aI3789
aI1230
aI2255
aI1744
aI2272
aI737
aI2789
aI3307
aI2798
aI3828
aI758
aI3967
aI2302
aI256
aI4363
aI3355
aI3366
aI3883
aI3887
aI3888
aI1332
aI224
aI3914
aI1871
aI2899
aI3417
aI3938
aI489
aI2409
aI1393
aI1909
aI2537
aI1919
aI2432
aI1418
aI406
aI413
aI428
aI1971
aI2488
aI1977
aI4027
aI4029
aI4031
aI1996
aI1489
aI4054
aI3033
aI3036
aI1504
aI2530
aI2025
aI3050
aI2036
aa(lp2930
a(lp2931
I2676
aI2932
aI2134
aI758
aI639
aa(lp2932
a(lp2933
I1792
aI1034
aI526
aI528
aI1554
aI20
aI534
aI2083
aI3623
aI42
aI557
aI498
aI3129
aI570
aI573
aI693
aI256
aI3144
aI1098
aI1618
aI4182
aI1628
aI1637
aI2656
aI2657
aI2658
aI2149
aI113
aI2676
aI1897
aI2682
aI1419
aI639
aI131
aI136
aI649
aI2186
aI141
aI3217
aI2196
aI4245
aI152
aI2209
aI3749
aI1704
aI4273
aI2229
aI1207
aI364
aI2236
aI2750
aI1731
aI2246
aI4315
aI1759
aI4329
aI1259
aI3308
aI1773
aI3827
aI246
aI1785
aI3328
aI2307
aI2007
aI2829
aI270
aI4369
aI3715
aI2324
aI2334
aI287
aI3364
aI3369
aI3720
aI2697
aI3898
aI3389
aI833
aI835
aI3406
aI569
aI3429
aI873
aI3436
aI878
aI1392
aI2930
aI1172
aI1599
aI382
aI1919
aI3970
aI2795
aI1413
aI1926
aI395
aI909
aI3982
aI400
aI3483
aI3999
aI420
aI1522
aI2993
aI440
aI2490
aI4345
aI3036
aI2527
aI1507
aI1515
aI2546
aI2045
aa(lp2934
a(lp2935
a(lp2936
a(lp2937
a(lp2938
I316
aI2855
aa(lp2939
a(lp2940
I4017
aI1494
aa(lp2941
I2652
aI1599
aa(lp2942
I2347
aI3060
aa(lp2943
a(lp2944
a(lp2945
a(lp2946
a(lp2947
a(lp2948
a(lp2949
a(lp2950
a(lp2951
a(lp2952
a(lp2953
a(lp2954
a(lp2955
a(lp2956
a(lp2957
a(lp2958
a(lp2959
a(lp2960
a(lp2961
a(lp2962
a(lp2963
a(lp2964
a(lp2965
I1230
aI758
aa(lp2966
a(lp2967
a(lp2968
a(lp2969
a(lp2970
a(lp2971
a(lp2972
a(lp2973
I4273
aI2083
aI1606
aa(lp2974
a(lp2975
a(lp2976
a(lp2977
a(lp2978
a(lp2979
a(lp2980
a(lp2981
a(lp2982
a(lp2983
a(lp2984
a(lp2985
a(lp2986
I3633
aI1658
aI1034
aa(lp2987
I4310
aI1576
aI553
aI1034
aI3247
aI3368
aI309
aI3286
aI2473
aI1658
aI3989
aa(lp2988
a(lp2989
a(lp2990
a(lp2991
I640
aI2083
aI3749
aI1034
aI400
aI374
aI569
aI1658
aa(lp2992
I1034
aI2652
aI3749
aa(lp2993
a(lp2994
I835
aI1034
aI2083
aI2932
aI569
aI1658
aI1599
aa(lp2995
a(lp2996
I2040
aI3363
aa(lp2997
a(lp2998
a(lp2999
a(lp3000
a(lp3001
a(lp3002
a(lp3003
a(lp3004
I569
aI2083
aa(lp3005
a(lp3006
a(lp3007
a(lp3008
a(lp3009
a(lp3010
a(lp3011
a(lp3012
a(lp3013
a(lp3014
I1393
aI1426
aI3326
aI1974
aa(lp3015
a(lp3016
a(lp3017
a(lp3018
a(lp3019
I3033
aI1230
aI758
aa(lp3020
a(lp3021
a(lp3022
I3033
aI1230
aI758
aa(lp3023
a(lp3024
a(lp3025
I3960
aI1599
aa(lp3026
a(lp3027
a(lp3028
a(lp3029
a(lp3030
a(lp3031
a(lp3032
a(lp3033
a(lp3034
I2054
aI4104
aI2569
aI1552
aI21
aI26
aI2588
aI2589
aI1456
aI4130
aI2595
aI3623
aI1576
aI2604
aI2605
aI2094
aI3121
aI2098
aI2102
aI59
aI1599
aI3652
aI1094
aI2634
aI75
aI4173
aI2640
aI2644
aI2656
aI1633
aI4027
aI2662
aI273
aI4203
aI3180
aI4205
aI2165
aI3702
aI1557
aI640
aI3715
aI132
aI134
aI647
aI2697
aI4237
aI1169
aI3224
aI4249
aI3229
aI1696
aI1392
aI674
aI369
aI174
aI4273
aI2226
aI3251
aI2229
aI3776
aI705
aI4291
aI2757
aI3271
aI1225
aI2252
aI3789
aI1230
aI1744
aI3800
aI1244
aI3296
aI2789
aI2790
aI3820
aI1508
aI240
aI2805
aI251
aI2301
aI4353
aI4360
aI556
aI2093
aI3345
aI786
aI1811
aI3824
aI2329
aI3044
aI4145
aI814
aI2358
aI4414
aI4418
aI4420
aI4424
aI4429
aI2894
aI2387
aI2020
aI3711
aI2908
aI861
aI1253
aI3938
aI1254
aI878
aI2928
aI1393
aI2424
aI1402
aI3452
aI3967
aI1416
aI1417
aI395
aI3476
aI3993
aI1946
aI924
aI413
aI929
aI944
aI955
aI447
aI1479
aI3018
aI1996
aI3021
aI1489
aI2382
aI4058
aI987
aI3551
aI2532
aI3557
aI253
aI3411
aI4086
aI1533
aI510
aa(lp3035
I1912
aI2208
aI1359
aa(lp3036
I4273
aI1276
aI1230
aa(lp3037
I640
aI3329
aI3591
aI2697
aI1034
aI4363
aI3597
aI3982
aI3217
aI152
aI2206
aI3999
aI1392
aI3317
aI420
aI2855
aI42
aI3883
aI3633
aI563
aI2869
aI4280
aI2676
aI573
aI1599
aI395
aI1480
aI588
aI2382
aI3280
aI1618
aI3805
aI1504
aI2658
aI2532
aI614
aI3560
aI364
aI2928
aI1010
aI3827
aI2932
aI3070
aI374
aI1658
aI382
aa(lp3038
a(lp3039
I1589
aI374
aa(lp3040
a(lp3041
a(lp3042
a(lp3043
a(lp3044
a(lp3045
I246
aI1230
aI758
aI3033
aa(lp3046
a(lp3047
a(lp3048
a(lp3049
a(lp3050
a(lp3051
I2652
aI3746
aI835
aI3749
aI3368
aI553
aI2796
aI2928
aI4273
aI3363
aI758
aI569
aI922
aI1116
aI1599
aa(lp3052
a(lp3053
a(lp3054
a(lp3055
a(lp3056
a(lp3057
a(lp3058
a(lp3059
a(lp3060
a(lp3061
I3969
aI3586
aI1034
aI404
aI3093
aI1194
aI1694
aI2722
aI3749
aI3368
aI810
aI2347
aI1838
aI181
aI2623
aI3525
aI1606
aI2760
aI4171
aI2639
aI2518
aI2010
aI1658
aI2941
aI3989
aa(lp3062
a(lp3063
I569
aI2083
aI2652
aI1606
aI1599
aa(lp3064
a(lp3065
I2387
aI1276
aa(lp3066
a(lp3067
a(lp3068
I1658
aI1034
aa(lp3069
a(lp3070
I835
aI3749
aI1034
aI400
aI2083
aI569
aI1658
aa(lp3071
I2083
aI1606
aI3036
aI400
aI569
aI3999
aI2652
aI1599
aa(lp3072
a(lp3073
a(lp3074
I2044
aI1116
aa(lp3075
a(lp3076
a(lp3077
I1784
aI2256
aa(lp3078
a(lp3079
a(lp3080
a(lp3081
a(lp3082
a(lp3083
a(lp3084
a(lp3085
a(lp3086
a(lp3087
I2083
aI569
aI835
aI3749
aI246
aa(lp3088
a(lp3089
I2760
aI2044
aI1116
aI2040
aI3368
aa(lp3090
a(lp3091
a(lp3092
a(lp3093
I4280
aI4017
aI1642
aI1295
aa(lp3094
I1186
aI2347
aI3060
aI1390
aa(lp3095
a(lp3096
a(lp3097
a(lp3098
I3586
aI2347
aI1477
aI1494
aI1295
aa(lp3099
a(lp3100
a(lp3101
a(lp3102
a(lp3103
a(lp3104
a(lp3105
I3548
aI374
aa(lp3106
a(lp3107
a(lp3108
a(lp3109
a(lp3110
a(lp3111
a(lp3112
a(lp3113
a(lp3114
I4280
aI2387
aa(lp3115
a(lp3116
a(lp3117
I1589
aI374
aa(lp3118
a(lp3119
a(lp3120
I2387
aI1276
aa(lp3121
a(lp3122
I1034
aI1230
aI1589
aI758
aI3033
aI1658
aI3548
aa(lp3123
a(lp3124
a(lp3125
a(lp3126
a(lp3127
I2760
aI1116
aI2623
aa(lp3128
a(lp3129
a(lp3130
I2932
aI553
aI639
aI2044
aI569
aa(lp3131
a(lp3132
a(lp3133
a(lp3134
a(lp3135
a(lp3136
a(lp3137
I3586
aI2347
aI1477
aa(lp3138
I4280
aI1390
aI3326
aa(lp3139
a(lp3140
a(lp3141
a(lp3142
a(lp3143
a(lp3144
a(lp3145
I569
aI211
aI2932
aa(lp3146
a(lp3147
a(lp3148
a(lp3149
a(lp3150
a(lp3151
a(lp3152
a(lp3153
a(lp3154
a(lp3155
a(lp3156
a(lp3157
a(lp3158
a(lp3159
I1642
aI3623
aa(lp3160
a(lp3161
a(lp3162
I2760
aI3586
aI1116
aI2623
aa(lp3163
I1426
aI4429
aa(lp3164
a(lp3165
a(lp3166
a(lp3167
I3368
aI553
aI4105
aI569
aI1116
aI1599
aa(lp3168
I2760
aI1116
aa(lp3169
a(lp3170
a(lp3171
a(lp3172
a(lp3173
a(lp3174
a(lp3175
a(lp3176
a(lp3177
I4352
aI2049
aI1412
aI1802
aI2775
aI1805
aI2702
aI1295
aI786
aI531
aI4116
aI2581
aI1691
aI3229
aI4126
aI672
aI1569
aI1186
aI2723
aI2856
aI429
aI3935
aI413
aI2359
aI1082
aI2655
aI1084
aI2111
aI3779
aI4294
aI202
aI2636
aI3234
aI1230
aI1359
aI1237
aI1367
aI95
aI2400
aI1634
aI2405
aI3818
aI3180
aI1390
aI3368
aI1272
aI378
aI3221
aa(lp3178
a(lp3179
a(lp3180
a(lp3181
I3176
aI1230
aI374
aI3033
aI377
aI3548
aa(lp3182
a(lp3183
a(lp3184
a(lp3185
a(lp3186
a(lp3187
a(lp3188
a(lp3189
a(lp3190
a(lp3191
a(lp3192
a(lp3193
a(lp3194
a(lp3195
a(lp3196
I3368
aI948
aI211
aI1276
aI1494
aa(lp3197
a(lp3198
a(lp3199
a(lp3200
a(lp3201
a(lp3202
I2652
aI3749
aa(lp3203
a(lp3204
a(lp3205
a(lp3206
a(lp3207
a(lp3208
a(lp3209
I2083
aI2652
aI3749
aI1606
aa(lp3210
a(lp3211
a(lp3212
I4280
aI1642
aa(lp3213
a(lp3214
a(lp3215
a(lp3216
a(lp3217
a(lp3218
I3586
aI3749
aI3036
aI2932
aI246
aI1276
aI1477
aa(lp3219
a(lp3220
a(lp3221
a(lp3222
I2082
aI295
aI3176
aI3548
aI95
aI4203
aI3823
aI273
aI1554
aI2775
aI377
aI3551
aI1244
aI413
aI1873
aI2335
aa(lp3223
a(lp3224
a(lp3225
I3033
aI1606
aI1230
aI758
aa(lp3226
a(lp3227
a(lp3228
a(lp3229
a(lp3230
I3176
aI1230
aI2516
aI758
aI3033
aI1276
aa(lp3231
a(lp3232
I2760
aI3586
aI1276
aI2623
aa(lp3233
I2044
aI1116
aa(lp3234
I835
aI3368
aI553
aI2796
aI2928
aI3363
aI758
aI569
aI1116
aI1599
aa(lp3235
I3176
aI1494
aI1295
aa(lp3236
a(lp3237
a(lp3238
I3368
aI948
aa(lp3239
a(lp3240
a(lp3241
a(lp3242
a(lp3243
a(lp3244
I1784
aI2652
aI3269
aI3749
aa(lp3245
a(lp3246
a(lp3247
I569
aI835
aI2083
aa(lp3248
I553
aI2986
aI2044
aI2473
aa(lp3249
a(lp3250
a(lp3251
a(lp3252
I3033
aI1230
aa(lp3253
a(lp3254
a(lp3255
I1589
aI374
aa(lp3256
a(lp3257
a(lp3258
a(lp3259
a(lp3260
a(lp3261
I1650
aI4429
aa(lp3262
a(lp3263
a(lp3264
a(lp3265
a(lp3266
a(lp3267
I2652
aI3749
aa(lp3268
I1430
aI3543
aa(lp3269
a(lp3270
I256
aI4098
aI3332
aI3845
aI917
aI1186
aI681
aI3243
aI429
aI687
aI4273
aI306
aI311
aI1466
aI1468
aI830
aI842
aI2255
aI2256
aI1495
aI2527
aI1637
aI3560
aI3564
aI238
aI3698
aI2676
aI1526
aI1784
aI377
aa(lp3271
a(lp3272
I3033
aI1230
aa(lp3273
a(lp3274
a(lp3275
a(lp3276
a(lp3277
a(lp3278
a(lp3279
I1658
aI1034
aa(lp3280
a(lp3281
I3036
aI1606
aI1599
aa(lp3282
I2040
aI3368
aa(lp3283
a(lp3284
I1658
aI3749
aa(lp3285
a(lp3286
a(lp3287
I4280
aI1576
aI2986
aI2516
aI1430
aa(lp3288
a(lp3289
a(lp3290
a(lp3291
a(lp3292
a(lp3293
I2387
aI1276
aa(lp3294
a(lp3295
a(lp3296
a(lp3297
I3033
aI1230
aa(lp3298
a(lp3299
a(lp3300
a(lp3301
a(lp3302
a(lp3303
a(lp3304
a(lp3305
a(lp3306
a(lp3307
I1658
aI1034
aa(lp3308
I374
aI1230
aI2928
aI1589
aI758
aI3548
aa(lp3309
I835
aI2932
aI878
aa(lp3310
I1658
aI1034
aa(lp3311
a(lp3312
a(lp3313
a(lp3314
a(lp3315
a(lp3316
a(lp3317
a(lp3318
I2855
aI2760
aI400
aI2623
aI3036
aI1599
aa(lp3319
a(lp3320
a(lp3321
I400
aI844
aI3548
aI374
aa(lp3322
a(lp3323
a(lp3324
a(lp3325
a(lp3326
I569
aI835
aI2083
aa(lp3327
I2817
aI131
aI4161
aI2698
aI523
aI1423
aI4245
aI1430
aI2199
aI664
aI537
aI287
aI2212
aI1265
aI3368
aI2729
aI2872
aI3441
aI2480
aI4017
aI437
aI440
aI1034
aI1728
aI3137
aI66
aI2884
aI3013
aI2121
aI586
aI4428
aI4280
aI2387
aI2901
aI3543
aI474
aI2655
aI4329
aI3436
aI1517
aI1390
aI2621
aI1393
aI3570
aI500
aI247
aI1144
aI1914
aI3451
aI1919
aa(lp3328
a(lp3329
I4035
aI1477
aI553
aI1034
aI400
aI2676
aI2932
aI3774
aI246
aI569
aI2044
aI2238
aI639
aa(lp3330
I569
aI3036
aI374
aa(lp3331
a(lp3332
a(lp3333
I897
aI2083
aI2405
aI1606
aI1784
aI377
aI3269
aa(lp3334
I2760
aI412
aa(lp3335
a(lp3336
a(lp3337
I3368
aI569
aI835
aI2083
aI948
aa(lp3338
a(lp3339
a(lp3340
a(lp3341
a(lp3342
I2760
aI2623
aa(lp3343
a(lp3344
a(lp3345
a(lp3346
I3749
aI1606
aI1230
aI400
aI758
aI4280
aI3033
aa(lp3347
a(lp3348
a(lp3349
a(lp3350
a(lp3351
a(lp3352
a(lp3353
a(lp3354
a(lp3355
a(lp3356
I2928
aI657
aa(lp3357
a(lp3358
a(lp3359
a(lp3360
a(lp3361
a(lp3362
a(lp3363
a(lp3364
I3233
aI2530
aI36
aI4054
aI2118
aI2760
aI1116
aI3050
aI4363
aI205
aI3504
aI2995
aI2838
aI2040
aI3460
aI1372
aI4031
aa(lp3365
I835
aI2932
aa(lp3366
I4035
aI3774
aI758
aI639
aa(lp3367
I2083
aI1034
aI2928
aI3989
aI758
aI569
aI1658
aa(lp3368
a(lp3369
I768
aI2049
aI1411
aI1412
aI3336
aI1545
aI4363
aI528
aI399
aI3088
aI2051
aI2838
aI1560
aI3749
aI3233
aI3419
aI1317
aI2064
aI1521
aI1116
aI2986
aI948
aI2488
aI3060
aI2620
aI1215
aI1728
aI4161
aI2760
aI588
aI2255
aI3664
aI3281
aI3195
aI4054
aI91
aI3548
aI2019
aI3166
aI3237
aI481
aI1123
aI613
aI3176
aI3817
aI3050
aI1517
aI3825
aI2036
aI4085
aI374
aI553
aI2040
aI377
aI4031
aI2044
aI3326
aI3384
aa(lp3370
I2083
aI3999
aI1606
aI400
aI2932
aI2487
aI569
aI639
aI2652
aI1599
aa(lp3371
a(lp3372
a(lp3373
a(lp3374
a(lp3375
a(lp3376
a(lp3377
a(lp3378
a(lp3379
I2487
aI639
aa(lp3380
a(lp3381
a(lp3382
a(lp3383
I2760
aI1116
aa(lp3384
a(lp3385
I2040
aI3368
aI2760
aa(lp3386
I2083
aI1642
aI2516
aI1589
aI377
aI4280
aI569
aa(lp3387
a(lp3388
a(lp3389
a(lp3390
I2932
aI4323
aI553
aI1034
aI2676
aI569
aI377
aI2044
aI639
aa(lp3391
I3586
aI2347
aI1477
aa(lp3392
a(lp3393
a(lp3394
a(lp3395
a(lp3396
I3586
aI1477
aI1606
aI2347
aI1230
aI246
aI2652
aa(lp3397
a(lp3398
a(lp3399
a(lp3400
a(lp3401
I3746
aI835
aI3749
aI1034
aI246
aI1658
aa(lp3402
a(lp3403
a(lp3404
a(lp3405
a(lp3406
a(lp3407
I569
aI2932
aa(lp3408
a(lp3409
a(lp3410
a(lp3411
a(lp3412
I3033
aI1230
aI758
aa(lp3413
a(lp3414
a(lp3415
a(lp3416
a(lp3417
a(lp3418
I1576
aI1393
aI2928
aI1974
aI1599
aa(lp3419
a(lp3420
I3368
aI3633
aI1658
aI2044
aI1034
aa(lp3421
I1186
aI1390
aa(lp3422
a(lp3423
a(lp3424
a(lp3425
a(lp3426
I4280
aI377
aI1658
aI2516
aI1034
aa(lp3427
a(lp3428
a(lp3429
a(lp3430
I2932
aI3749
aa(lp3431
I683
aI3586
aI2347
aI1477
aI2755
aa(lp3432
a(lp3433
a(lp3434
a(lp3435
a(lp3436
a(lp3437
I4017
aI878
aI1393
aI2387
aI2932
aI3326
aa(lp3438
a(lp3439
a(lp3440
a(lp3441
I2760
aI4273
aI1116
aa(lp3442
I4280
aI1642
aI3326
aa(lp3443
a(lp3444
a(lp3445
I835
aI2796
aa(lp3446
a(lp3447
a(lp3448
a(lp3449
a(lp3450
I2044
aI4310
aa(lp3451
a(lp3452
I1034
aI3326
aa(lp3453
I3033
aI2516
aI1230
aI758
aa(lp3454
a(lp3455
a(lp3456
a(lp3457
I3746
aI835
aI1477
aI1034
aI246
aI1658
aa(lp3458
I1576
aI323
aa(lp3459
a(lp3460
a(lp3461
I3363
aI1116
aa(lp3462
a(lp3463
I1576
aI2516
aI374
aa(lp3464
a(lp3465
a(lp3466
a(lp3467
a(lp3468
a(lp3469
I1576
aI1589
aI374
aa(lp3470
a(lp3471
I708
aI3543
aa(lp3472
a(lp3473
a(lp3474
a(lp3475
a(lp3476
a(lp3477
I374
aI1477
aI4429
aI1230
aI1589
aI758
aI3033
aI3749
aa(lp3478
a(lp3479
a(lp3480
a(lp3481
I1658
aI1034
aa(lp3482
a(lp3483
I2083
aI1658
aI2387
aI1034
aI1295
aa(lp3484
I2676
aI2932
aI246
aI1599
aa(lp3485
a(lp3486
a(lp3487
a(lp3488
I377
aI1426
aI1589
aa(lp3489
a(lp3490
a(lp3491
a(lp3492
a(lp3493
I4280
aI377
aI3548
aI1589
aa(lp3494
a(lp3495
a(lp3496
a(lp3497
a(lp3498
I2487
aI639
aa(lp3499
a(lp3500
I2760
aI2347
aI1116
aI1477
aa(lp3501
a(lp3502
a(lp3503
a(lp3504
a(lp3505
I2347
aI3363
aI1116
aI1477
aa(lp3506
a(lp3507
I2387
aI1276
aa(lp3508
a(lp3509
a(lp3510
I640
aI2405
aa(lp3511
a(lp3512
a(lp3513
a(lp3514
a(lp3515
a(lp3516
a(lp3517
a(lp3518
a(lp3519
a(lp3520
a(lp3521
a(lp3522
a(lp3523
a(lp3524
a(lp3525
a(lp3526
I2347
aI3060
aa(lp3527
I2083
aI2652
aa(lp3528
a(lp3529
a(lp3530
a(lp3531
a(lp3532
a(lp3533
a(lp3534
a(lp3535
a(lp3536
a(lp3537
a(lp3538
a(lp3539
a(lp3540
a(lp3541
a(lp3542
a(lp3543
a(lp3544
I3267
aI708
aI878
aI4323
aI936
aI553
aI266
aI1195
aI3470
aI2256
aI3326
aI4035
aI2676
aI309
aI1430
aI937
aI1582
aI3726
aa(lp3545
a(lp3546
a(lp3547
a(lp3548
a(lp3549
I4353
aI4203
aI132
aI1417
aI396
aI2321
aI3858
aI3221
aI1304
aI1437
aI1823
aI3104
aI4001
aI3492
aI4145
aI3368
aI4402
aI1838
aI2589
aI3121
aI2226
aI1589
aI1207
aI1976
aI2079
aI3644
aI273
aI413
aI705
aI835
aI1990
aI2760
aI2382
aI2424
aI2516
aI344
aI2020
aI1244
aI3551
aI1761
aI2660
aI1041
aI1212
aI3307
aI3180
aI4205
aI3823
aI2335
aI1908
aI374
aI3945
aI3320
aI3967
aI3711
aa(lp3550
a(lp3551
a(lp3552
I835
aI758
aI1230
aI3221
aI374
aI3033
aI377
aI3548
aI1477
aa(lp3553
a(lp3554
a(lp3555
a(lp3556
a(lp3557
a(lp3558
I3033
aI1230
aI758
aa(lp3559
a(lp3560
a(lp3561
I3269
aI1606
aI2652
aI1784
aI3036
aI1599
aa(lp3562
a(lp3563
a(lp3564
a(lp3565
I1784
aI2652
aI3269
aI1606
aa(lp3566
I2387
aI1276
aa(lp3567
I2208
aI1276
aa(lp3568
I3586
aI3749
aI2347
aI246
aI1658
aI1477
aa(lp3569
I569
aI2083
aa(lp3570
a(lp3571
I1034
aI3326
aa(lp3572
a(lp3573
a(lp3574
a(lp3575
a(lp3576
a(lp3577
a(lp3578
a(lp3579
a(lp3580
a(lp3581
I569
aI2083
aI2652
aa(lp3582
a(lp3583
I1393
aI1974
aa(lp3584
a(lp3585
a(lp3586
a(lp3587
I4096
aI1899
aI1494
aI3974
aI135
aI2156
aI2826
aI907
aI780
aI525
aI1422
aI683
aI785
aI658
aI659
aI2709
aI3609
aI3097
aI283
aI925
aI2334
aI3231
aI4384
aI3617
aI1698
aI2523
aI548
aI933
aI2726
aI1073
aI2347
aI1709
aI4061
aI4144
aI1480
aI4071
aI3060
aI1338
aI2619
aI3390
aI3136
aI193
aI194
aI323
aI3595
aI2428
aI2760
aI3395
aI1227
aI4410
aI4429
aI2387
aI3715
aI2902
aI1240
aI3161
aI1115
aI2490
aI1125
aI4315
aI1891
aI1637
aI614
aI3217
aI3816
aI617
aI1387
aI2284
aI365
aI622
aI3567
aI1384
aI4211
aI2676
aI3831
aI2297
aI1276
aI3430
aa(lp3588
a(lp3589
I3633
aI1838
aa(lp3590
a(lp3591
I3633
aI2083
aa(lp3592
I4280
aI3036
aI1599
aa(lp3593
a(lp3594
a(lp3595
a(lp3596
I3586
aI4429
aa(lp3597
a(lp3598
I3036
aI3999
aa(lp3599
I569
aI835
aI2083
aI1034
aI1606
aa(lp3600
I4280
aI1642
aI2387
aa(lp3601
I4280
aI1642
aI2387
aa(lp3602
a(lp3603
a(lp3604
a(lp3605
I1034
aI1658
aI1599
aa(lp3606
a(lp3607
a(lp3608
a(lp3609
a(lp3610
I3586
aI2347
aI1477
aa(lp3611
I2760
aI1393
aa(lp3612
I400
aI2238
aa(lp3613
a(lp3614
a(lp3615
a(lp3616
a(lp3617
a(lp3618
I2347
aI3586
aI835
aI1477
aa(lp3619
a(lp3620
a(lp3621
a(lp3622
a(lp3623
a(lp3624
I640
aI2083
aI3158
aI1642
aI2516
aI1230
aI3633
aI2066
aI835
aI2932
aI1589
aI374
aI3033
aI2040
aI569
aI4280
aI2652
aI3749
aa(lp3625
a(lp3626
a(lp3627
a(lp3628
a(lp3629
a(lp3630
a(lp3631
a(lp3632
a(lp3633
a(lp3634
I3588
aI3590
aI650
aI400
aI2334
aI3999
aI2083
aI3749
aI3623
aI2985
aI3036
aI1838
aI2481
aI1459
aI569
aI2490
aI1599
aI1606
aI1230
aI3419
aI2652
aI2783
aI3684
aI613
aI3819
aI3956
aI887
aI1658
aI2301
aa(lp3635
I569
aI2083
aa(lp3636
a(lp3637
a(lp3638
I2652
aI3749
aa(lp3639
a(lp3640
I1494
aI1295
aa(lp3641
a(lp3642
a(lp3643
a(lp3644
a(lp3645
I3548
aI377
aI2516
aa(lp3646
a(lp3647
a(lp3648
a(lp3649
a(lp3650
I1589
aI374
aa(lp3651
a(lp3652
a(lp3653
I1230
aI3033
aI2516
aI1589
aI374
aa(lp3654
a(lp3655
I378
aI246
aa(lp3656
a(lp3657
a(lp3658
a(lp3659
a(lp3660
a(lp3661
a(lp3662
a(lp3663
a(lp3664
a(lp3665
I2760
aI3368
aI948
aI2040
aI1116
aI2623
aa(lp3666
a(lp3667
a(lp3668
I1393
aI1276
aa(lp3669
a(lp3670
I1658
aI1034
aa(lp3671
a(lp3672
I377
aI1761
aa(lp3673
I2760
aI1116
aI2623
aa(lp3674
a(lp3675
a(lp3676
a(lp3677
a(lp3678
a(lp3679
a(lp3680
a(lp3681
a(lp3682
a(lp3683
a(lp3684
a(lp3685
I3633
aI1838
aa(lp3686
a(lp3687
a(lp3688
a(lp3689
a(lp3690
a(lp3691
a(lp3692
a(lp3693
I3746
aI246
aa(lp3694
a(lp3695
I2040
aI4429
aa(lp3696
I1426
aI4429
aa(lp3697
a(lp3698
a(lp3699
I1784
aI3269
aa(lp3700
I1589
aI374
aa(lp3701
a(lp3702
a(lp3703
I1642
aI1230
aI758
aI4280
aI3033
aI1276
aa(lp3704
a(lp3705
a(lp3706
a(lp3707
I1589
aI374
aa(lp3708
a(lp3709
a(lp3710
a(lp3711
a(lp3712
I835
aI374
aI1034
aI1230
aI758
aI3033
aI377
aI3548
aa(lp3713
a(lp3714
a(lp3715
a(lp3716
I2652
aI3586
aI3749
aI1606
aI1116
aI2347
aI1230
aI2932
aI1838
aI3033
aI569
aI3999
aI1436
aI1599
aa(lp3717
a(lp3718
a(lp3719
I2760
aI1393
aa(lp3720
a(lp3721
I569
aI2932
aa(lp3722
a(lp3723
a(lp3724
a(lp3725
a(lp3726
a(lp3727
I4280
aI1430
aI3543
aa(lp3728
a(lp3729
a(lp3730
a(lp3731
I4280
aI2066
aa(lp3732
a(lp3733
a(lp3734
a(lp3735
I569
aI2083
aa(lp3736
a(lp3737
I1393
aI374
aa(lp3738
a(lp3739
a(lp3740
a(lp3741
a(lp3742
a(lp3743
a(lp3744
a(lp3745
a(lp3746
I2044
aI1116
aa(lp3747
I1920
aI896
aI1797
aI2055
aI1931
aI528
aI1494
aI4118
aI2456
aI796
aI2079
aI416
aI2209
aI174
aI4402
aI2488
aI1823
aI4031
aI1479
aI3400
aI2255
aI2644
aI2262
aI2652
aI1247
aI2019
aI3945
aI3050
aI3692
aI109
aI3456
aI2036
aI3957
aI246
aI1271
aI4218
aI4054
aa(lp3748
a(lp3749
a(lp3750
I4267
aI519
aI2058
aI1548
aI3086
aI4118
aI2584
aI26
aI3623
aI1064
aI4137
aI3633
aI3637
aI58
aI1034
aI1599
aI1633
aI72
aI1618
aI2650
aI1115
aI2652
aI605
aI2657
aI2658
aI614
aI273
aI109
aI110
aI2673
aI2676
aI2170
aI2171
aI2684
aI640
aI3201
aI3715
aI1157
aI136
aI2697
aI653
aI142
aI4205
aI3217
aI152
aI1658
aI1696
aI166
aI3243
aI2226
aI2229
aI1207
aI704
aI3266
aI1225
aI3789
aI4302
aI3283
aI718
aI2262
aI3801
aI3805
aI3816
aI2281
aI3820
aI4334
aI3368
aI3827
aI1271
aI251
aI4309
aI4353
aI2307
aI1560
aI1294
aI3345
aI786
aI1811
aI217
aI796
aI1822
aI3874
aI2341
aI296
aI3883
aI3208
aI835
aI1350
aI4424
aI2382
aI693
aI1883
aI863
aI3429
aI1897
aI1899
aI1392
aI2932
aI3476
aI1914
aI382
aI3967
aI2436
aI1413
aI3974
aI395
aI400
aI2200
aI403
aI1428
aI416
aI933
aI2472
aI2990
aI2991
aI3400
aI4031
aI160
aI1477
aI4047
aI1489
aI1504
aI3050
aI3567
aI498
aI3060
aI2555
aI3069
aa(lp3751
a(lp3752
a(lp3753
a(lp3754
a(lp3755
a(lp3756
a(lp3757
a(lp3758
a(lp3759
a(lp3760
a(lp3761
a(lp3762
I1276
aI1494
aI1295
aa(lp3763
I569
aI2083
aI2652
aI1606
aI1599
aa(lp3764
a(lp3765
a(lp3766
a(lp3767
a(lp3768
a(lp3769
a(lp3770
a(lp3771
a(lp3772
a(lp3773
I569
aI2652
aI1606
aa(lp3774
I1912
aI1359
aa(lp3775
I3328
aI4035
aI3365
aI1704
aI4137
aI2154
aI2763
aI1393
aI2395
aI1822
aa(lp3776
a(lp3777
I2928
aI3033
aI758
aa(lp3778
a(lp3779
a(lp3780
I3176
aI2636
aI4126
aI1359
aa(lp3781
a(lp3782
a(lp3783
a(lp3784
a(lp3785
a(lp3786
I1599
aI2487
aI2652
aI639
aa(lp3787
a(lp3788
a(lp3789
a(lp3790
I2928
aI3033
aI1658
aI3749
aa(lp3791
a(lp3792
a(lp3793
a(lp3794
I1426
aI878
aa(lp3795
a(lp3796
I4273
aI758
aa(lp3797
a(lp3798
a(lp3799
a(lp3800
a(lp3801
I3033
aI878
aI374
aI1230
aI758
aa(lp3802
I1034
aI835
aI1658
aI3749
aa(lp3803
a(lp3804
a(lp3805
a(lp3806
I2083
aI3749
aI1606
aI1230
aI4280
aI569
aI3036
aI1599
aa(lp3807
a(lp3808
a(lp3809
a(lp3810
a(lp3811
a(lp3812
I377
aI4323
aa(lp3813
a(lp3814
a(lp3815
I2208
aI1276
aa(lp3816
a(lp3817
I640
aI3586
aI1477
aI2760
aI2623
aI3749
aa(lp3818
I3368
aI1658
aI2044
aI1034
aa(lp3819
I3176
aI2405
aI1295
aa(lp3820
I3633
aI1658
aI1034
aa(lp3821
I3749
aI1606
aI1230
aI400
aI758
aI4280
aI3033
aa(lp3822
I2760
aI2623
aa(lp3823
a(lp3824
I3548
aI1230
aI3221
aI377
aI1599
aI2652
aI639
aa(lp3825
I3033
aI1230
aI758
aI1599
aa(lp3826
I3368
aI2040
aI1116
aa(lp3827
a(lp3828
I2083
aI1477
aI2855
aI3036
aI1230
aI400
aI3749
aI2932
aI569
aI3999
aI2652
aI1599
aa(lp3829
I2928
aI1230
aa(lp3830
a(lp3831
a(lp3832
I2347
aI3586
aI835
aI1477
aa(lp3833
a(lp3834
a(lp3835
a(lp3836
a(lp3837
a(lp3838
a(lp3839
a(lp3840
a(lp3841
I2928
aI1909
aa(lp3842
a(lp3843
a(lp3844
a(lp3845
a(lp3846
I1784
aI3269
aa(lp3847
a(lp3848
a(lp3849
a(lp3850
a(lp3851
a(lp3852
a(lp3853
a(lp3854
a(lp3855
a(lp3856
I1658
aI1034
aa(lp3857
a(lp3858
a(lp3859
I400
aI844
aI3548
aI374
aa(lp3860
a(lp3861
a(lp3862
a(lp3863
I528
aI2347
aa(lp3864
a(lp3865
a(lp3866
a(lp3867
a(lp3868
a(lp3869
a(lp3870
a(lp3871
a(lp3872
a(lp3873
I569
aI211
aa(lp3874
a(lp3875
I2083
aI3749
aI1230
aI400
aI569
aI2652
aI1599
aa(lp3876
a(lp3877
I1658
aI1034
aI246
aa(lp3878
I2516
aI4126
aa(lp3879
a(lp3880
a(lp3881
a(lp3882
a(lp3883
a(lp3884
I2083
aI3749
aI1606
aI3036
aI878
aI2928
aI1426
aI758
aI569
aI378
aI3999
aI2652
aI1599
aa(lp3885
a(lp3886
a(lp3887
a(lp3888
I2928
aI758
aa(lp3889
I2928
aI657
aa(lp3890
a(lp3891
a(lp3892
a(lp3893
I1426
aI4429
aa(lp3894
a(lp3895
a(lp3896
I4017
aI1276
aa(lp3897
a(lp3898
a(lp3899
I569
aI2932
aI1494
aI639
aa(lp3900
a(lp3901
a(lp3902
a(lp3903
I96
aI2465
aI2184
aI4429
aI880
aI4280
aI223
aa(lp3904
I1393
aI2746
aa(lp3905
a(lp3906
a(lp3907
a(lp3908
I316
aI2855
aa(lp3909
a(lp3910
a(lp3911
a(lp3912
a(lp3913
I4280
aI1642
aI878
aa(lp3914
a(lp3915
I2928
aI1393
aa(lp3916
I1658
aI1034
aa(lp3917
a(lp3918
a(lp3919
a(lp3920
a(lp3921
a(lp3922
a(lp3923
a(lp3924
a(lp3925
a(lp3926
I1576
aI758
aa(lp3927
I1426
aI374
aa(lp3928
a(lp3929
I4280
aI1642
aa(lp3930
I4280
aI1642
aa(lp3931
a(lp3932
I1034
aI3989
aa(lp3933
a(lp3934
a(lp3935
a(lp3936
I3176
aI2405
aa(lp3937
a(lp3938
a(lp3939
I758
aI1230
aI2928
aI1426
aI374
aI3033
aa(lp3940
I4280
aI1642
aa(lp3941
a(lp3942
a(lp3943
a(lp3944
a(lp3945
a(lp3946
I3746
aI835
aI3548
aI1494
aa(lp3947
I2760
aI1393
aI1589
aI374
aI2623
aa(lp3948
a(lp3949
a(lp3950
a(lp3951
a(lp3952
a(lp3953
a(lp3954
a(lp3955
a(lp3956
a(lp3957
I3633
aI1838
aa(lp3958
I3746
aI835
aI246
aa(lp3959
a(lp3960
I1952
aI2307
aI1413
aI1606
aI1392
aI1119
aa(lp3961
I3024
aI1599
aa(lp3962
a(lp3963
a(lp3964
I377
aI2516
aI2238
aI1761
aa(lp3965
a(lp3966
a(lp3967
a(lp3968
I640
aI2928
aI246
aI1761
aI1838
aI400
aI2516
aI1230
aI374
aI3033
aI3548
aI3749
aa(lp3969
I4280
aI1642
aa(lp3970
I2347
aI3060
aa(lp3971
I4273
aI2932
aa(lp3972
a(lp3973
a(lp3974
a(lp3975
I640
aI3586
aI1477
aI2760
aI2623
aI3749
aa(lp3976
a(lp3977
a(lp3978
a(lp3979
I1034
aI1599
aa(lp3980
a(lp3981
a(lp3982
a(lp3983
I640
aI2083
aI1477
aI1606
aI2855
aI3036
aI1230
aI400
aI2932
aI4105
aI569
aI3999
aI2652
aI2238
aI1599
aa(lp3984
I4017
aI377
aa(lp3985
a(lp3986
a(lp3987
I1658
aI1034
aa(lp3988
a(lp3989
a(lp3990
I352
aI3366
aI486
aI487
aI4329
aI649
aI1034
aI588
aI207
aI528
aI210
aI3060
aI4054
aI1111
aI1785
aI3931
aI2332
aI2986
aa(lp3991
a(lp3992
a(lp3993
a(lp3994
I3033
aI1230
aa(lp3995
a(lp3996
a(lp3997
a(lp3998
I1393
aI2487
aI1276
aI639
aa(lp3999
I377
aI4323
aa(lp4000
I3715
aI2697
aI395
aI3597
aI3982
aI152
aI2334
aI2206
aI420
aI3369
aI3883
aI3633
aI2869
aI1480
aI2236
aI573
aI2238
aI1728
aI4161
aI4363
aI2760
aI4429
aI909
aI1618
aI4054
aI4315
aI3036
aI734
aI2527
aI1637
aI2795
aI1392
aI113
aI1010
aI3827
aI2932
aI382
aI3070
aa(lp4001
I400
aI2083
aI2652
aa(lp4002
I2083
aI2760
aI400
aI1426
aI569
aI3548
aa(lp4003
I1658
aI569
aI835
aI2083
aI1477
aa(lp4004
a(lp4005
a(lp4006
a(lp4007
a(lp4008
a(lp4009
a(lp4010
I2208
aI2760
aI412
aI2623
aa(lp4011
a(lp4012
a(lp4013
I4429
aI758
aa(lp4014
a(lp4015
a(lp4016
a(lp4017
a(lp4018
I1667
aI2053
aI1159
aI4365
aI1423
aI3092
aI277
aI1691
aI4386
aI2729
aI2740
aI437
aI4023
aI2621
aI66
aI3983
aI2121
aI3895
aI1186
aI4430
aI978
aI1237
aI1494
aI1295
aI2655
aI4072
aI3436
aI498
aI500
aI377
aI2939
aI1276
aI3326
aI2901
aa(lp4019
a(lp4020
a(lp4021
a(lp4022
a(lp4023
I1658
aI1034
aa(lp4024
I4017
aI1494
aa(lp4025
a(lp4026
a(lp4027
a(lp4028
I4035
aI758
aI2928
aI1494
aI3033
aI1276
aa(lp4029
a(lp4030
I2928
aI1393
aI1426
aa(lp4031
a(lp4032
I2652
aI3746
aI835
aI3749
aI3368
aI553
aI2796
aI2928
aI4273
aI3363
aI758
aI569
aI922
aI1116
aI1599
aa(lp4033
a(lp4034
a(lp4035
a(lp4036
I3328
aI4027
aI3365
aI1704
aI2154
aI2763
aI1744
aI1430
aI3543
aI4281
aI2395
aI1691
aI1276
aI3774
aa(lp4037
a(lp4038
a(lp4039
I2387
aI1276
aa(lp4040
a(lp4041
a(lp4042
a(lp4043
a(lp4044
a(lp4045
a(lp4046
a(lp4047
a(lp4048
I2676
aI3749
aa(lp4049
a(lp4050
I1589
aI374
aa(lp4051
a(lp4052
a(lp4053
a(lp4054
a(lp4055
I3746
aI835
aI2760
aI553
aI1034
aI2796
aI3363
aI2928
aI3368
aI211
aI948
aI3989
aI758
aI569
aI1658
aI3999
aI2044
aI2019
aI2623
aa(lp4056
I4280
aI1642
aI2387
aa(lp4057
a(lp4058
a(lp4059
I3033
aI1230
aI758
aa(lp4060
a(lp4061
I1186
aI1390
aa(lp4062
I3586
aI2347
aI1477
aa(lp4063
a(lp4064
a(lp4065
a(lp4066
a(lp4067
a(lp4068
a(lp4069
a(lp4070
a(lp4071
a(lp4072
I2347
aI569
aI3586
aI2083
aI2652
aa(lp4073
I4017
aI1276
aa(lp4074
a(lp4075
a(lp4076
a(lp4077
a(lp4078
a(lp4079
I377
aI1230
aI758
aI1761
aa(lp4080
a(lp4081
a(lp4082
a(lp4083
I569
aI2083
aa(lp4084
a(lp4085
I1658
aI2387
aa(lp4086
I3368
aI553
aI1116
aa(lp4087
I1642
aI1230
aI1393
aI1974
aI377
aI4280
aI3033
aa(lp4088
a(lp4089
a(lp4090
a(lp4091
a(lp4092
a(lp4093
a(lp4094
a(lp4095
I1974
aI1606
aI1599
aa(lp4096
a(lp4097
I3586
aI4429
aa(lp4098
a(lp4099
I1784
aI3269
aa(lp4100
a(lp4101
I1589
aI374
aa(lp4102
a(lp4103
I1589
aI374
aa(lp4104
a(lp4105
I3033
aI1230
aa(lp4106
I1392
aI835
aI1413
aI2657
aI1628
aI2186
aI498
aI3982
aI400
aI1522
aI1618
aI981
aI528
aI569
aI2527
aI348
aI3166
aI1759
aa(lp4107
a(lp4108
a(lp4109
a(lp4110
a(lp4111
a(lp4112
a(lp4113
a(lp4114
a(lp4115
a(lp4116
a(lp4117
I3176
aI4126
aa(lp4118
a(lp4119
I1658
aI3746
aI246
aI3749
aa(lp4120
a(lp4121
a(lp4122
a(lp4123
a(lp4124
a(lp4125
a(lp4126
a(lp4127
I3779
aI3877
aI3176
aI1805
aI429
aI2516
aI4116
aI2812
aa(lp4128
a(lp4129
a(lp4130
a(lp4131
I758
aI878
aI2928
aI374
aI4280
aI3033
aa(lp4132
I1034
aI2676
aI1606
aa(lp4133
a(lp4134
a(lp4135
a(lp4136
a(lp4137
a(lp4138
I1393
aI1658
aI835
aI3749
aI3774
aa(lp4139
a(lp4140
a(lp4141
I1658
aI1034
aa(lp4142
a(lp4143
a(lp4144
a(lp4145
I3586
aI1276
aa(lp4146
I1034
aI1230
aI1589
aI758
aI3033
aI1658
aI3548
aa(lp4147
a(lp4148
a(lp4149
a(lp4150
a(lp4151
a(lp4152
a(lp4153
a(lp4154
a(lp4155
a(lp4156
a(lp4157
a(lp4158
a(lp4159
a(lp4160
a(lp4161
a(lp4162
I2760
aI2928
aI3368
aI1426
aI758
aI569
aI1116
aI3326
aI3999
aa(lp4163
I1658
aI1034
aa(lp4164
a(lp4165
a(lp4166
a(lp4167
a(lp4168
a(lp4169
a(lp4170
a(lp4171
a(lp4172
I2760
aI3060
aa(lp4173
a(lp4174
I1230
aI758
aI1589
aI374
aI3033
aa(lp4175
I1426
aI1589
aa(lp4176
a(lp4177
a(lp4178
a(lp4179
I1576
aI1599
aa(lp4180
a(lp4181
a(lp4182
a(lp4183
I2928
aI2066
aI2932
aI1909
aI878
aa(lp4184
a(lp4185
a(lp4186
a(lp4187
a(lp4188
I1658
aI1034
aa(lp4189
a(lp4190
a(lp4191
a(lp4192
a(lp4193
a(lp4194
a(lp4195
a(lp4196
a(lp4197
a(lp4198
a(lp4199
a(lp4200
a(lp4201
a(lp4202
a(lp4203
a(lp4204
I835
aI758
aI1230
aI3221
aI374
aI3033
aI377
aI3548
aa(lp4205
a(lp4206
I640
aI2928
aI246
aI1761
aI1116
aI1838
aI400
aI1230
aI2516
aI878
aI374
aI4280
aI3033
aI3548
aI3749
aa(lp4207
a(lp4208
a(lp4209
a(lp4210
a(lp4211
a(lp4212
I3586
aI2347
aa(lp4213
a(lp4214
a(lp4215
a(lp4216
a(lp4217
a(lp4218
a(lp4219
I2760
aI3746
aI835
aI1426
aI246
aa(lp4220
a(lp4221
a(lp4222
a(lp4223
a(lp4224
a(lp4225
I1606
aI1599
aa(lp4226
a(lp4227
a(lp4228
a(lp4229
a(lp4230
I4280
aI2066
aI1582
aa(lp4231
a(lp4232
I2928
aI1909
aa(lp4233
a(lp4234
I1658
aI246
aa(lp4235
a(lp4236
a(lp4237
a(lp4238
I3033
aI1230
aa(lp4239
a(lp4240
a(lp4241
a(lp4242
a(lp4243
a(lp4244
a(lp4245
a(lp4246
I2256
aI4323
aI1477
aI1393
aI2928
aI553
aI1034
aI400
aI2676
aI2932
aI1974
aI246
aI569
aI377
aI3326
aI639
aI2044
aI2238
aI1599
aa(lp4247
a(lp4248
a(lp4249
a(lp4250
I3033
aI1599
aa(lp4251
I2387
aI1276
aa(lp4252
a(lp4253
a(lp4254
a(lp4255
a(lp4256
a(lp4257
a(lp4258
a(lp4259
a(lp4260
a(lp4261
a(lp4262
a(lp4263
a(lp4264
a(lp4265
a(lp4266
I1658
aI1034
aa(lp4267
a(lp4268
I2652
aI3749
aa(lp4269
a(lp4270
a(lp4271
a(lp4272
a(lp4273
a(lp4274
I256
aI3970
aI2307
aI1924
aI1686
aI649
aI1674
aI273
aI2196
aI2838
aI152
aI1435
aI2972
aI929
aI2595
aI1606
aI1704
aI604
aI534
aI2605
aI690
aI2527
aI931
aI4031
aI4291
aI3269
aI326
aI1479
aI713
aI1230
aI4304
aI3795
aI724
aI597
aI1942
aI3033
aI3035
aI1116
aI2143
aI2657
aI2789
aI4329
aI3050
aI2795
aI3440
aI2932
aI758
aI631
aI1785
aI510
aI981
aa(lp4275
a(lp4276
a(lp4277
I1658
aI1034
aa(lp4278
a(lp4279
I640
aI378
aI246
aa(lp4280
I2760
aI355
aI878
aa(lp4281
I683
aI3591
aI2057
aI2063
aI3600
aI2066
aI3092
aI1557
aI3929
aI4130
aI3623
aI2088
aI3113
aI2604
aI2605
aI563
aI1589
aI1801
aI3137
aI1094
aI1656
aI2634
aI588
aI3599
aI2656
aI106
aI4205
aI2670
aI1140
aI2165
aI3702
aI1144
aI1642
aI2691
aI132
aI4229
aI2184
aI2697
aI2186
aI3211
aI2189
aI3726
aI3730
aI2199
aI664
aI670
aI1696
aI295
aI2212
aI1195
aI1207
aI192
aI2758
aI1225
aI1738
aI2594
aI2680
aI2260
aI3286
aI3805
aI1759
aI2275
aI2791
aI2855
aI3820
aI2798
aI4335
aI251
aI3326
aI256
aI2825
aI2532
aI3345
aI786
aI2329
aI2343
aI1321
aI2872
aI3385
aI4414
aI1861
aI3912
aI96
aI4428
aI1873
aI2387
aI4436
aI3928
aI857
aI2912
aI3425
aI3939
aI2921
aI2410
aI878
aI3441
aI3902
aI377
aI1406
aI3968
aI1416
aI395
aI1430
aI409
aI325
aI2465
aI3492
aI1606
aI423
aI2478
aI2480
aI1352
aI954
aI586
aI2501
aI1996
aI465
aI4055
aI3036
aI1508
aI499
aI4086
aI505
aI1023
aa(lp4282
I4035
aI1276
aa(lp4283
a(lp4284
a(lp4285
a(lp4286
a(lp4287
a(lp4288
a(lp4289
I2928
aI1393
aI1589
aa(lp4290
I1658
aI1034
aa(lp4291
a(lp4292
I4273
aI1230
aI758
aI3033
aa(lp4293
I1589
aI374
aa(lp4294
I1034
aI1606
aI1599
aa(lp4295
I3176
aI2405
aa(lp4296
a(lp4297
a(lp4298
a(lp4299
a(lp4300
a(lp4301
a(lp4302
a(lp4303
I1034
aI3749
aa(lp4304
a(lp4305
I4273
aI1974
aI1606
aa(lp4306
I1034
aI835
aI1658
aa(lp4307
a(lp4308
a(lp4309
a(lp4310
I835
aI3749
aI1034
aI400
aI2083
aI569
aI1658
aa(lp4311
I708
aI553
aI2986
aI309
aI2473
aI3449
aI2044
aa(lp4312
a(lp4313
a(lp4314
a(lp4315
a(lp4316
I3586
aI2083
aI1606
aI2347
aI2932
aI569
aI2652
aI3999
aa(lp4317
a(lp4318
a(lp4319
a(lp4320
a(lp4321
a(lp4322
a(lp4323
I2676
aI1599
aa(lp4324
I2338
aI3811
aI1430
aI551
aI3543
aI2668
aI205
aI270
aI2832
aI275
aI4245
aI1238
aI1111
aI377
aI4379
aI3389
aI3998
aa(lp4325
a(lp4326
a(lp4327
a(lp4328
a(lp4329
a(lp4330
I2256
aI1494
aI4273
aI1576
aI553
aI1034
aI400
aI2676
aI2932
aI3326
aI246
aI1974
aI3989
aI569
aI639
aI2044
aI2238
aI1599
aa(lp4331
a(lp4332
a(lp4333
a(lp4334
a(lp4335
I400
aI3749
aa(lp4336
I4280
aI2387
aa(lp4337
a(lp4338
a(lp4339
a(lp4340
a(lp4341
a(lp4342
a(lp4343
a(lp4344
a(lp4345
a(lp4346
I835
aI2932
aa(lp4347
a(lp4348
a(lp4349
a(lp4350
a(lp4351
a(lp4352
a(lp4353
I2760
aI3176
aI1606
aI1230
aa(lp4354
I1761
aI3749
aI1606
aI3548
aI1230
aI374
aI3033
aI2652
aI1599
aa(lp4355
I569
aI2652
aa(lp4356
a(lp4357
a(lp4358
a(lp4359
a(lp4360
a(lp4361
I3033
aI1230
aI758
aa(lp4362
a(lp4363
I569
aI835
aI2083
aI1599
aa(lp4364
I2652
aI3363
aI246
aI3368
aI1116
aI2796
aI2928
aI758
aI2676
aI374
aI553
aI569
aI3036
aI3999
aa(lp4365
a(lp4366
I4017
aI1494
aa(lp4367
a(lp4368
a(lp4369
a(lp4370
I2760
aI4429
aI400
aI1650
aI2932
aI2623
aa(lp4371
a(lp4372
a(lp4373
a(lp4374
I569
aI2083
aa(lp4375
a(lp4376
a(lp4377
a(lp4378
a(lp4379
a(lp4380
I377
aI4323
aa(lp4381
a(lp4382
I1589
aI374
aa(lp4383
a(lp4384
a(lp4385
I3586
aI2347
aa(lp4386
a(lp4387
I4017
aI1295
aa(lp4388
a(lp4389
a(lp4390
a(lp4391
a(lp4392
a(lp4393
a(lp4394
a(lp4395
I1576
aI1230
aI758
aa(lp4396
a(lp4397
a(lp4398
a(lp4399
I1658
aI1034
aa(lp4400
a(lp4401
a(lp4402
a(lp4403
I3746
aI835
aI1606
aI3548
aI1034
aI1230
aI2487
aI1658
aI2652
aI639
aa(lp4404
a(lp4405
I569
aI835
aI2083
aI1599
aa(lp4406
a(lp4407
a(lp4408
I1658
aI1034
aa(lp4409
a(lp4410
a(lp4411
I3586
aI4429
aa(lp4412
a(lp4413
I1658
aI2347
aI1034
aI1477
aa(lp4414
a(lp4415
I4280
aI3033
aI1642
aI1230
aI758
aa(lp4416
a(lp4417
a(lp4418
I4429
aI758
aa(lp4419
I3033
aI2516
aI1230
aI758
aa(lp4420
a(lp4421
I3033
aI1230
aI758
aa(lp4422
a(lp4423
a(lp4424
a(lp4425
I3033
aI1034
aI1230
aI758
aI3749
aa(lp4426
a(lp4427
a(lp4428
a(lp4429
I4280
aI3326
aa(lp4430
I4096
aI3586
aI2822
aI2439
aI2569
aI523
aI17
aI1426
aI3476
aI1370
aI3999
aI134
aI4012
aI3892
aI734
aI2614
aI564
aI4410
aI223
aI3260
aI2622
aI2879
aI4417
aI834
aI3595
aI1889
aI3033
aI3162
aI2526
aI2213
aI608
aI1633
aI4369
aI3694
aI3695
aI880
aI1650
aI3902
aI758
aI2040
aI2428
aI2045
aa(lp4431
I4017
aI1494
aa(lp4432
a(lp4433
a(lp4434
a(lp4435
a(lp4436
a(lp4437
I4280
aI1642
aI878
aa(lp4438
a(lp4439
a(lp4440
a(lp4441
a.