(dp0
I0
(lp1
I227
aI228
aI229
aI230
aI231
aI232
aI233
aI234
aI235
aI236
aI237
aI238
aI239
aI240
aI241
asI1
(lp2
I228
aI231
aI235
aI237
aI239
aI241
asI2
(lp3
I227
aI233
aI234
aI236
aI239
aI240
asI3
(lp4
I229
aI230
aI234
aI237
aI238
aI240
asI4
(lp5
I227
aI233
aI234
aI236
aI238
aI240
aI241
asI5
(lp6
I228
aI232
aI235
aI238
aI241
as.