(lp0
(lp1
(I2179
I5918
tp2
a(I2668
I4134
tp3
a(I2269
I4493
tp4
aa(lp5
g2
a(I2298
I4907
tp6
a(I3652
I4221
tp7
aa(lp8
g2
a(I2526
I3974
tp9
aa(lp10
g2
ag9
aa(lp11
g2
ag6
aa(lp12
g2
ag7
aa(lp13
g2
ag3
ag4
aa(lp14
g2
ag4
ag3
ag9
aa(lp15
g2
ag6
ag7
ag7
aa(lp16
g2
ag4
ag3
aa(lp17
g2
ag9
ag6
aa(lp18
g2
ag9
ag3
ag7
aa(lp19
g2
ag6
ag4
aa(lp20
g2
ag4
ag9
ag3
aa(lp21
g2
ag6
ag7
ag3
aa.