(dp0
I227
(lp1
I0
aI4
aI2
asI228
(lp2
I0
aI1
aI5
asI229
(lp3
I0
aI3
asI230
(lp4
I0
aI3
asI231
(lp5
I0
aI1
asI232
(lp6
I0
aI5
asI233
(lp7
I0
aI4
aI2
asI234
(lp8
I0
aI2
aI4
aI3
asI235
(lp9
I0
aI1
aI5
aI5
asI236
(lp10
I0
aI2
aI4
asI237
(lp11
I0
aI3
aI1
asI238
(lp12
I0
aI3
aI4
aI5
asI239
(lp13
I0
aI1
aI2
asI240
(lp14
I0
aI2
aI3
aI4
asI241
(lp15
I0
aI1
aI5
aI4
as.