(lp0
(I2275
I4860
tp1
a(I2326
I4795
tp2
a(I2270
I4971
tp3
a(I2260
I4908
tp4
a(I2292
I4867
tp5
a(I2169
I4931
tp6
a(I2305
I4886
tp7
a(I2323
I4909
tp8
a(I2298
I4907
tp9
a(I2299
I4812
tp10
a(I2406
I5011
tp11
a(I2332
I4875
tp12
a(I2391
I4962
tp13
a(I2312
I4834
tp14
a(I2207
I4759
tp15
a(I2356
I4940
tp16
a(I2262
I4906
tp17
a(I2226
I4902
tp18
a(I2319
I4970
tp19
a(I2290
I4976
tp20
a(I2312
I4867
tp21
a(I2300
I4903
tp22
a(I2298
I4904
tp23
a(I2367
I4854
tp24
a(I2303
I5005
tp25
a(I2341
I5008
tp26
a(I2271
I4838
tp27
a(I2299
I4907
tp28
a(I2109
I4870
tp29
a(I2143
I4928
tp30
a(I2275
I4897
tp31
a(I2257
I4775
tp32
a(I2383
I4908
tp33
a(I2220
I4767
tp34
a(I2313
I4468
tp35
a(I2269
I4469
tp36
a(I2403
I4568
tp37
a(I2310
I4388
tp38
a(I2255
I4477
tp39
a(I2277
I4473
tp40
a(I2175
I4596
tp41
a(I2239
I4501
tp42
a(I2232
I4404
tp43
a(I2236
I4595
tp44
a(I2292
I4570
tp45
a(I2281
I4405
tp46
a(I2265
I4540
tp47
a(I2128
I4484
tp48
a(I2306
I4562
tp49
a(I2268
I4499
tp50
a(I2229
I4488
tp51
a(I2230
I4623
tp52
a(I2152
I4406
tp53
a(I2328
I4545
tp54
a(I2259
I4509
tp55
a(I2245
I4522
tp56
a(I2284
I4421
tp57
a(I2271
I4491
tp58
a(I2275
I4468
tp59
a(I2156
I4510
tp60
a(I2262
I4626
tp61
a(I2298
I4304
tp62
a(I2278
I4498
tp63
a(I2226
I4487
tp64
a(I2293
I4507
tp65
a(I2160
I4493
tp66
a(I2408
I4512
tp67
a(I2248
I4392
tp68
a(I2224
I4567
tp69
a(I2154
I4555
tp70
a(I2268
I4515
tp71
a(I2267
I4538
tp72
a(I2395
I4410
tp73
a(I2164
I4466
tp74
a(I2268
I4450
tp75
a(I2239
I4560
tp76
a(I2277
I4476
tp77
a(I2533
I3970
tp78
a(I2404
I4026
tp79
a(I2567
I3964
tp80
a(I2399
I3842
tp81
a(I2573
I4113
tp82
a(I2529
I3973
tp83
a(I2525
I3980
tp84
a(I2641
I3804
tp85
a(I2483
I3902
tp86
a(I2557
I4086
tp87
a(I2524
I3989
tp88
a(I2491
I3998
tp89
a(I2564
I3982
tp90
a(I2525
I3956
tp91
a(I2607
I3798
tp92
a(I2573
I3973
tp93
a(I2679
I3961
tp94
a(I2599
I3930
tp95
a(I2750
I3946
tp96
a(I2521
I3971
tp97
a(I2620
I3988
tp98
a(I2430
I3803
tp99
a(I2445
I4088
tp100
a(I2624
I4105
tp101
a(I2602
I4065
tp102
a(I2620
I4027
tp103
a(I2658
I3914
tp104
a(I2524
I3977
tp105
a(I2720
I3992
tp106
a(I2468
I4011
tp107
a(I2573
I3994
tp108
a(I2515
I3915
tp109
a(I2503
I4015
tp110
a(I2536
I3961
tp111
a(I2500
I3766
tp112
a(I2516
I3902
tp113
a(I2617
I4053
tp114
a(I2663
I4105
tp115
a(I2523
I3968
tp116
a(I2651
I4225
tp117
a(I2688
I3863
tp118
a(I2511
I3975
tp119
a(I2504
I4013
tp120
a(I2324
I4101
tp121
a(I2774
I4012
tp122
a(I2686
I4138
tp123
a(I2821
I4369
tp124
a(I2534
I4215
tp125
a(I2762
I4139
tp126
a(I2525
I4082
tp127
a(I2598
I4095
tp128
a(I2647
I4095
tp129
a(I2607
I4178
tp130
a(I2797
I4195
tp131
a(I2686
I4287
tp132
a(I2631
I4139
tp133
a(I2700
I4024
tp134
a(I2662
I3966
tp135
a(I2705
I4109
tp136
a(I2633
I4192
tp137
a(I2638
I4173
tp138
a(I2583
I4181
tp139
a(I2961
I4139
tp140
a(I2663
I4231
tp141
a(I2633
I4208
tp142
a(I2762
I4178
tp143
a(I2408
I4323
tp144
a(I2576
I4148
tp145
a(I2550
I4099
tp146
a(I2743
I4108
tp147
a(I2708
I4105
tp148
a(I2700
I4154
tp149
a(I2673
I4126
tp150
a(I2632
I4104
tp151
a(I2843
I4087
tp152
a(I2639
I4034
tp153
a(I2647
I4076
tp154
a(I2741
I4089
tp155
a(I2666
I4131
tp156
a(I2667
I4135
tp157
a(I2676
I4143
tp158
a(I2506
I4248
tp159
a(I2661
I4062
tp160
a(I2725
I4238
tp161
a(I3550
I4016
tp162
a(I3494
I4028
tp163
a(I3557
I4302
tp164
a(I3471
I4081
tp165
a(I3535
I4136
tp166
a(I3538
I4402
tp167
a(I3763
I4110
tp168
a(I3786
I4341
tp169
a(I3654
I4221
tp170
a(I3843
I4204
tp171
a(I3632
I4297
tp172
a(I3785
I4156
tp173
a(I3745
I3990
tp174
a(I3659
I4180
tp175
a(I3747
I4202
tp176
a(I3627
I4154
tp177
a(I3573
I4215
tp178
a(I3738
I4189
tp179
a(I3806
I3988
tp180
a(I3652
I4219
tp181
a(I3663
I4179
tp182
a(I3622
I4338
tp183
a(I3540
I4056
tp184
a(I3643
I4241
tp185
a(I3552
I4114
tp186
a(I3926
I4132
tp187
a(I3431
I4213
tp188
a(I3870
I4193
tp189
a(I3793
I4276
tp190
a(I3904
I4205
tp191
a(I3667
I4064
tp192
a(I3723
I4146
tp193
a(I3563
I4478
tp194
a(I3500
I4462
tp195
a(I3644
I4246
tp196
a(I3801
I4241
tp197
a(I3702
I4261
tp198
a(I3630
I4245
tp199
a(I3655
I4269
tp200
a(I3635
I4273
tp201
a(I3707
I4281
tp202
a(I3631
I4241
tp203
a(I3545
I4412
tp204
a(I3746
I4365
tp205
a(I3615
I4216
tp206
a(I3819
I4254
tp207
a(I3651
I4077
tp208
a(I3675
I4122
tp209
a(I3752
I3995
tp210
a(I3743
I4073
tp211
a.