(lp0
(I1736
I5305
tp1
a(I1714
I5098
tp2
a(I1870
I5250
tp3
a(I2056
I5268
tp4
a(I1928
I5044
tp5
a(I1992
I5045
tp6
a(I1555
I5248
tp7
a(I1893
I5395
tp8
a(I1598
I5219
tp9
a(I1974
I5199
tp10
a(I1788
I5436
tp11
a(I1656
I5207
tp12
a(I1821
I5068
tp13
a(I1932
I5283
tp14
a(I1793
I5093
tp15
a(I1567
I5118
tp16
a(I1542
I5239
tp17
a(I1846
I5162
tp18
a(I1583
I5305
tp19
a(I1737
I4973
tp20
a(I1751
I5287
tp21
a(I1792
I5109
tp22
a(I2044
I5147
tp23
a(I1628
I5338
tp24
a(I1979
I5426
tp25
a(I2015
I5285
tp26
a(I1503
I3682
tp27
a(I1223
I3567
tp28
a(I1470
I3720
tp29
a(I1369
I3559
tp30
a(I1663
I3530
tp31
a(I1430
I3650
tp32
a(I1564
I3463
tp33
a(I1451
I3393
tp34
a(I1269
I3412
tp35
a(I1551
I3706
tp36
a(I1356
I3676
tp37
a(I1319
I3419
tp38
a(I1512
I3710
tp39
a(I1544
I3729
tp40
a(I1335
I3396
tp41
a(I1581
I3541
tp42
a(I1414
I3605
tp43
a(I1288
I3662
tp44
a(I1364
I3708
tp45
a(I1561
I3382
tp46
a(I1392
I3680
tp47
a(I1311
I3625
tp48
a(I1462
I3738
tp49
a(I1408
I3400
tp50
a(I1473
I3495
tp51
a(I1519
I3297
tp52
a(I3535
I5069
tp53
a(I3292
I5262
tp54
a(I3527
I5153
tp55
a(I3254
I4984
tp56
a(I3444
I5237
tp57
a(I3366
I5035
tp58
a(I3340
I4959
tp59
a(I3182
I5070
tp60
a(I3484
I5236
tp61
a(I3252
I5021
tp62
a(I3451
I5178
tp63
a(I3229
I5135
tp64
a(I3503
I5067
tp65
a(I3454
I5322
tp66
a(I3375
I5266
tp67
a(I3459
I5057
tp68
a(I3455
I4948
tp69
a(I3349
I5257
tp70
a(I3497
I5006
tp71
a(I3507
I5165
tp72
a(I3372
I5184
tp73
a(I3310
I5309
tp74
a.