(dp0
I0
(lp1
I139
aI140
aI141
aI142
aI143
aI144
aI145
aI146
aI147
aI148
aI149
aI150
aI151
aI152
aI153
aI154
aI155
aI156
aI157
aI158
asI1
(lp2
I139
aI140
aI141
aI142
aI143
aI144
aI145
aI147
aI148
aI149
aI150
aI151
aI152
aI153
aI154
aI155
aI157
aI158
asI2
(lp3
I139
aI140
aI141
aI142
aI143
aI144
aI145
aI146
aI148
aI149
aI150
aI151
aI152
aI153
aI156
aI158
asI3
(lp4
I139
aI140
aI141
aI142
aI143
aI144
aI145
aI146
aI147
aI149
aI150
aI151
aI152
aI154
aI155
aI157
aI158
as.