(dp0
I0
(lp1
I129
aI130
aI131
aI132
aI133
aI134
aI135
aI136
aI137
aI138
aI139
aI140
aI141
aI142
aI143
aI144
aI145
aI146
aI147
aI148
aI149
aI150
aI151
aI152
aI153
aI154
aI155
aI156
aI157
aI158
asI1
(lp2
I129
aI130
aI131
aI133
aI136
aI137
aI138
aI139
aI140
aI141
aI142
aI143
aI144
aI145
aI146
aI150
aI153
aI155
aI156
aI157
asI2
(lp3
I129
aI130
aI131
aI132
aI133
aI135
aI136
aI137
aI139
aI140
aI141
aI142
aI143
aI144
aI145
aI147
aI149
aI150
aI153
aI155
aI156
aI158
asI3
(lp4
I129
aI130
aI131
aI132
aI134
aI135
aI136
aI138
aI139
aI140
aI141
aI142
aI144
aI145
aI146
aI148
aI151
aI152
aI154
aI156
aI158
as.