(dp0
I129
(lp1
I0
aI1
aI3
aI2
asI130
(lp2
I0
aI3
aI1
aI2
asI131
(lp3
I0
aI2
aI1
aI3
asI132
(lp4
I0
aI2
aI3
asI133
(lp5
I0
aI1
aI2
aI1
asI134
(lp6
I0
aI3
asI135
(lp7
I0
aI3
aI2
asI136
(lp8
I0
aI1
aI2
aI3
asI137
(lp9
I0
aI1
aI2
asI138
(lp10
I0
aI1
aI3
asI139
(lp11
I0
aI1
aI3
aI2
asI140
(lp12
I0
aI1
aI3
aI2
asI141
(lp13
I0
aI1
aI2
aI3
asI142
(lp14
I0
aI1
aI2
aI3
asI143
(lp15
I0
aI2
aI1
asI144
(lp16
I0
aI3
aI2
aI1
asI145
(lp17
I0
aI3
aI2
aI1
asI146
(lp18
I0
aI3
aI3
aI1
asI147
(lp19
I0
aI2
asI148
(lp20
I0
aI3
asI149
(lp21
I0
aI2
asI150
(lp22
I0
aI1
aI2
aI1
asI151
(lp23
I0
aI3
asI152
(lp24
I0
aI3
asI153
(lp25
I0
aI2
aI1
asI154
(lp26
I0
aI3
asI155
(lp27
I0
aI2
aI1
asI156
(lp28
I0
aI1
aI3
aI2
asI157
(lp29
I0
aI1
asI158
(lp30
I0
aI3
aI2
as.