(lp0
(lp1
(I3877
I4872
tp2
a(I2753
I4995
tp3
a(I4579
I3705
tp4
aa(lp5
g2
a(I4754
I5433
tp6
ag6
aa(lp7
g2
ag3
ag4
ag6
ag3
ag4
aa(lp8
g2
ag6
ag3
ag4
ag6
aa(lp9
g2
ag3
ag4
aa(lp10
g2
ag6
ag4
ag3
ag6
ag3
aa(lp11
g2
ag4
ag4
ag6
ag3
ag3
aa(lp12
g2
ag6
ag4
ag6
ag4
ag3
aa(lp13
g2
ag3
ag6
ag4
aa(lp14
g2
ag4
ag6
ag3
ag6
aa(lp15
g2
ag4
ag3
ag6
ag4
aa(lp16
g2
ag3
ag4
ag3
ag6
aa(lp17
g2
ag4
ag6
ag3
aa(lp18
g2
ag4
ag3
ag6
ag3
aa(lp19
g2
ag6
ag4
ag3
ag4
aa(lp20
g2
ag6
ag4
ag3
ag6
ag6
aa(lp21
g2
ag4
ag3
ag3
ag4
aa(lp22
g2
ag6
ag3
ag6
ag4
aa(lp23
g2
ag6
ag4
ag3
aa(lp24
g2
ag3
ag6
aa(lp25
g2
ag4
ag3
ag6
aa(lp26
g2
ag4
ag3
ag6
ag4
aa(lp27
g2
ag3
ag6
ag4
ag6
aa(lp28
g2
ag4
ag3
ag3
aa(lp29
g2
ag6
ag4
aa(lp30
g2
ag3
ag6
aa(lp31
g2
ag4
ag3
aa(lp32
g2
ag4
ag6
ag4
ag3
ag6
aa(lp33
g2
ag3
ag6
aa(lp34
g2
ag4
ag4
ag6
ag3
aa.