(lp0
(lp1
(I2934
I4438
tp2
a(I2406
I5157
tp3
a(I3324
I5121
tp4
a(I1919
I5467
tp5
ag5
ag4
aa(lp6
g2
ag3
ag5
ag4
ag3
aa(lp7
g2
ag5
ag4
ag3
aa(lp8
g2
ag3
ag4
ag5
aa(lp9
g2
ag5
ag3
ag4
aa(lp10
g2
ag4
ag5
ag3
aa(lp11
g2
ag5
ag3
ag4
ag3
ag5
aa(lp12
g2
ag4
ag3
ag4
aa(lp13
g2
ag5
ag3
ag5
aa(lp14
g2
ag4
ag4
ag5
aa(lp15
g2
ag3
ag3
ag5
ag4
aa(lp16
g2
ag5
ag4
ag3
ag5
aa(lp17
g2
ag3
ag4
ag3
ag4
ag5
aa(lp18
g2
ag4
ag5
ag3
ag3
aa(lp19
g2
ag4
ag5
ag4
aa(lp20
g2
ag5
ag3
aa(lp21
g2
ag3
ag5
aa(lp22
g2
ag4
ag4
aa(lp23
g2
ag3
ag5
ag5
aa(lp24
g2
ag4
ag3
ag5
ag3
aa.