(dp0
I86
(lp1
I0
aI3
aI1
asI87
(lp2
I0
aI2
aI2
asI88
(lp3
I0
aI3
aI1
aI2
aI3
aI1
asI89
(lp4
I0
aI2
aI3
aI1
aI2
asI90
(lp5
I0
aI3
aI1
asI91
(lp6
I0
aI2
aI1
aI3
aI2
aI3
asI92
(lp7
I0
aI1
aI1
aI2
aI3
aI3
asI93
(lp8
I0
aI2
aI1
aI2
aI1
aI3
asI94
(lp9
I0
aI3
aI2
aI1
asI95
(lp10
I0
aI1
aI2
aI3
aI2
asI96
(lp11
I0
aI1
aI3
aI2
aI1
asI97
(lp12
I0
aI3
aI1
aI3
aI2
asI98
(lp13
I0
aI1
aI2
aI3
asI99
(lp14
I0
aI1
aI3
aI2
aI3
asI100
(lp15
I0
aI2
aI1
aI3
aI1
asI101
(lp16
I0
aI2
aI1
aI3
aI2
aI2
asI102
(lp17
I0
aI1
aI3
aI3
aI1
asI103
(lp18
I0
aI2
aI3
aI2
aI1
asI104
(lp19
I0
aI2
aI1
aI3
asI105
(lp20
I0
aI3
aI2
asI106
(lp21
I0
aI1
aI3
aI2
asI107
(lp22
I0
aI1
aI3
aI2
aI1
asI108
(lp23
I0
aI3
aI2
aI1
aI2
asI109
(lp24
I0
aI1
aI3
aI3
asI110
(lp25
I0
aI2
aI1
asI111
(lp26
I0
aI3
aI2
asI112
(lp27
I0
aI1
aI3
asI113
(lp28
I0
aI1
aI2
aI1
aI3
aI2
asI114
(lp29
I0
aI3
aI2
asI115
(lp30
I0
aI1
aI1
aI2
aI3
as.