(dp0
I139
(lp1
I0
aI3
aI2
aI1
aI1
aI2
asI140
(lp2
I0
aI3
aI1
aI2
aI3
asI141
(lp3
I0
aI1
aI2
aI3
asI142
(lp4
I0
aI3
aI2
aI1
asI143
(lp5
I0
aI1
aI3
aI2
asI144
(lp6
I0
aI2
aI1
aI3
asI145
(lp7
I0
aI1
aI3
aI2
aI3
aI1
asI146
(lp8
I0
aI2
aI3
aI2
asI147
(lp9
I0
aI1
aI3
aI1
asI148
(lp10
I0
aI2
aI2
aI1
asI149
(lp11
I0
aI3
aI3
aI1
aI2
asI150
(lp12
I0
aI1
aI2
aI3
aI1
asI151
(lp13
I0
aI3
aI2
aI3
aI2
aI1
asI152
(lp14
I0
aI2
aI1
aI3
aI3
asI153
(lp15
I0
aI2
aI1
aI2
asI154
(lp16
I0
aI1
aI3
asI155
(lp17
I0
aI3
aI1
asI156
(lp18
I0
aI2
aI2
asI157
(lp19
I0
aI3
aI1
aI1
asI158
(lp20
I0
aI2
aI3
aI1
aI3
as.