(lp0
(I1927
I5366
tp1
a(I2163
I5497
tp2
a(I1910
I5458
tp3
a(I1869
I5615
tp4
a(I1839
I5527
tp5
a(I1910
I5473
tp6
a(I1915
I5478
tp7
a(I2013
I5583
tp8
a(I1903
I5464
tp9
a(I1930
I5566
tp10
a(I1920
I5468
tp11
a(I1935
I5433
tp12
a(I1904
I5549
tp13
a(I1908
I5474
tp14
a(I1910
I5664
tp15
a(I2087
I5279
tp16
a(I1908
I5584
tp17
a(I1746
I5364
tp18
a(I1736
I5474
tp19
a(I2093
I5520
tp20
a(I1838
I5455
tp21
a(I1839
I5464
tp22
a(I1954
I5444
tp23
a(I1944
I5500
tp24
a(I1917
I5412
tp25
a(I1850
I5470
tp26
a(I1926
I5439
tp27
a(I1932
I5490
tp28
a(I1882
I5318
tp29
a(I2080
I5633
tp30
a(I1963
I5411
tp31
a(I1782
I5426
tp32
a(I1882
I5427
tp33
a(I1926
I5309
tp34
a(I1864
I5467
tp35
a(I2005
I5437
tp36
a(I1947
I5413
tp37
a(I1906
I5426
tp38
a(I1827
I5431
tp39
a(I1813
I5587
tp40
a(I2057
I5410
tp41
a(I2008
I5532
tp42
a(I1978
I5485
tp43
a(I3326
I5125
tp44
a(I3287
I5107
tp45
a(I3314
I5078
tp46
a(I3324
I5121
tp47
a(I3513
I5095
tp48
a(I3437
I5137
tp49
a(I3426
I5132
tp50
a(I3204
I5164
tp51
a(I3301
I5116
tp52
a(I3202
I5334
tp53
a(I3223
I5114
tp54
a(I3323
I5120
tp55
a(I3284
I5143
tp56
a(I3262
I5111
tp57
a(I3387
I5096
tp58
a(I3241
I5183
tp59
a(I3329
I5120
tp60
a(I3199
I4928
tp61
a(I3298
I5067
tp62
a(I3306
I5132
tp63
a(I3284
I5048
tp64
a(I3330
I5144
tp65
a(I3324
I5121
tp66
a(I3295
I5088
tp67
a(I3300
I5146
tp68
a(I3369
I5123
tp69
a(I3368
I5105
tp70
a(I3368
I5114
tp71
a(I3293
I5076
tp72
a(I3366
I5137
tp73
a(I3291
I5264
tp74
a(I3276
I5117
tp75
a(I3313
I5029
tp76
a(I3464
I5071
tp77
a(I3447
I5074
tp78
a(I3139
I5061
tp79
a(I3442
I5006
tp80
a(I3334
I5032
tp81
a(I3290
I4945
tp82
a(I3216
I5088
tp83
a(I3453
I5030
tp84
a(I3315
I5140
tp85
a(I3277
I4932
tp86
a(I3350
I4880
tp87
a(I3354
I5146
tp88
a(I3325
I5129
tp89
a(I3382
I4978
tp90
a(I2409
I5369
tp91
a(I2582
I5297
tp92
a(I2417
I5217
tp93
a(I2512
I5307
tp94
a(I2514
I5368
tp95
a(I2261
I5154
tp96
a(I2424
I5072
tp97
a(I2618
I5343
tp98
a(I2343
I5190
tp99
a(I2438
I5298
tp100
a(I2240
I5221
tp101
a(I2245
I5185
tp102
a(I2378
I5325
tp103
a(I2395
I5119
tp104
a(I2445
I5278
tp105
a(I2534
I5025
tp106
a(I2394
I5163
tp107
a(I2409
I5169
tp108
a(I2261
I5258
tp109
a(I2437
I5426
tp110
a(I2410
I4977
tp111
a(I2356
I5169
tp112
a(I2491
I5059
tp113
a(I2379
I5195
tp114
a(I2343
I5168
tp115
a(I2559
I5086
tp116
a(I2394
I5314
tp117
a(I2438
I5155
tp118
a(I2159
I5186
tp119
a(I2348
I5180
tp120
a(I2422
I5130
tp121
a(I2502
I5043
tp122
a(I2589
I5034
tp123
a(I2422
I5211
tp124
a(I2526
I5094
tp125
a.