(lp0
(I1787
I5913
tp1
a(I2072
I5939
tp2
a(I1966
I6003
tp3
a(I2079
I5924
tp4
a(I2189
I5861
tp5
a(I2050
I5907
tp6
a(I1928
I5991
tp7
a(I2101
I5962
tp8
a(I2235
I5889
tp9
a(I2240
I5980
tp10
a(I2063
I6107
tp11
a(I2000
I5877
tp12
a(I2132
I5968
tp13
a(I2149
I5891
tp14
a(I1937
I6023
tp15
a(I2062
I5823
tp16
a(I1925
I5741
tp17
a(I1974
I6017
tp18
a(I2208
I6036
tp19
a(I1931
I5883
tp20
a(I2207
I5942
tp21
a(I1997
I5896
tp22
a(I1991
I5775
tp23
a(I1976
I5909
tp24
a(I2056
I5824
tp25
a(I2111
I5916
tp26
a(I2129
I5969
tp27
a(I1978
I5812
tp28
a(I2052
I5895
tp29
a(I2086
I5882
tp30
a(I2127
I5895
tp31
a(I2025
I5860
tp32
a(I2061
I5895
tp33
a(I2111
I6092
tp34
a(I2069
I5894
tp35
a(I2177
I5709
tp36
a(I2204
I5874
tp37
a(I2192
I6136
tp38
a(I2074
I5876
tp39
a(I2027
I6121
tp40
a(I2133
I5880
tp41
a(I2020
I5948
tp42
a(I2116
I5936
tp43
a(I1804
I6039
tp44
a(I2067
I5910
tp45
a(I2085
I5902
tp46
a(I2082
I5924
tp47
a(I1641
I4994
tp48
a(I1667
I5025
tp49
a(I1686
I4964
tp50
a(I1822
I5075
tp51
a(I1695
I5004
tp52
a(I1632
I4911
tp53
a(I1714
I4977
tp54
a(I1545
I4998
tp55
a(I1630
I5076
tp56
a(I1768
I5123
tp57
a(I1672
I5015
tp58
a(I1603
I5012
tp59
a(I1608
I5103
tp60
a(I1680
I5034
tp61
a(I1537
I4984
tp62
a(I1673
I5013
tp63
a(I1745
I4936
tp64
a(I1711
I5126
tp65
a(I1754
I5029
tp66
a(I1717
I5060
tp67
a(I1498
I5105
tp68
a(I1678
I4893
tp69
a(I1727
I5096
tp70
a(I1618
I4985
tp71
a(I1602
I4916
tp72
a(I1651
I5048
tp73
a(I1566
I4973
tp74
a(I1655
I5032
tp75
a(I1737
I5072
tp76
a(I1659
I5018
tp77
a(I1652
I5011
tp78
a(I1676
I4945
tp79
a(I1567
I4995
tp80
a(I1671
I4956
tp81
a(I1717
I5114
tp82
a(I1522
I5126
tp83
a(I1594
I5035
tp84
a(I1656
I5052
tp85
a(I1580
I4880
tp86
a(I1559
I4959
tp87
a(I1645
I5078
tp88
a(I1708
I4997
tp89
a(I1680
I5114
tp90
a(I1628
I4898
tp91
a(I1592
I4954
tp92
a(I1709
I4893
tp93
a(I1613
I4972
tp94
a(I1584
I5144
tp95
a(I3090
I5959
tp96
a(I3045
I5665
tp97
a(I3126
I5751
tp98
a(I3135
I5761
tp99
a(I3155
I5816
tp100
a(I3281
I5762
tp101
a(I3257
I5680
tp102
a(I3149
I5748
tp103
a(I3094
I5748
tp104
a(I3019
I5765
tp105
a(I3054
I5716
tp106
a(I3158
I5757
tp107
a(I3144
I5787
tp108
a(I2925
I5823
tp109
a(I3143
I5705
tp110
a(I3271
I5696
tp111
a(I3121
I5622
tp112
a(I3124
I5754
tp113
a(I3108
I5705
tp114
a(I3110
I5745
tp115
a(I3144
I5878
tp116
a(I3050
I5703
tp117
a(I2987
I5761
tp118
a(I3075
I5827
tp119
a(I3098
I5824
tp120
a(I3277
I5785
tp121
a(I3166
I5725
tp122
a(I3135
I5739
tp123
a(I3142
I5766
tp124
a(I3127
I5760
tp125
a(I3046
I5607
tp126
a(I3170
I5737
tp127
a(I3147
I5863
tp128
a(I3095
I5804
tp129
a(I3142
I5747
tp130
a(I3123
I5754
tp131
a.