(lp0
(I4376
I4866
tp1
a(I4366
I4959
tp2
a(I4277
I4947
tp3
a(I4272
I4954
tp4
a(I4282
I4932
tp5
a(I4191
I4891
tp6
a(I4262
I4943
tp7
a(I4346
I4878
tp8
a(I4313
I4984
tp9
a(I4331
I4926
tp10
a(I4270
I5052
tp11
a(I4237
I4910
tp12
a(I4275
I4944
tp13
a(I4265
I4946
tp14
a(I4097
I4915
tp15
a(I4267
I4955
tp16
a(I4147
I5038
tp17
a(I4213
I4861
tp18
a(I4259
I4940
tp19
a(I4281
I4866
tp20
a(I4143
I4884
tp21
a(I4262
I4934
tp22
a(I4318
I5016
tp23
a(I4306
I4903
tp24
a(I4263
I5012
tp25
a(I4107
I4922
tp26
a(I4247
I4918
tp27
a(I4276
I4950
tp28
a(I4357
I5078
tp29
a(I4212
I4953
tp30
a(I4234
I4842
tp31
a(I4264
I4946
tp32
a(I4227
I4982
tp33
a(I4123
I4880
tp34
a(I4292
I4950
tp35
a(I4248
I4964
tp36
a(I4257
I4965
tp37
a(I1054
I5550
tp38
a(I1214
I5663
tp39
a(I1270
I5592
tp40
a(I1198
I5731
tp41
a(I1120
I5613
tp42
a(I1258
I5566
tp43
a(I1125
I5631
tp44
a(I1063
I5601
tp45
a(I1134
I5630
tp46
a(I1153
I5606
tp47
a(I1162
I5664
tp48
a(I1180
I5653
tp49
a(I1158
I5637
tp50
a(I1059
I5723
tp51
a(I1187
I5655
tp52
a(I1219
I5532
tp53
a(I1171
I5605
tp54
a(I1162
I5638
tp55
a(I1153
I5634
tp56
a(I1181
I5646
tp57
a(I1101
I5672
tp58
a(I1129
I5570
tp59
a(I1142
I5691
tp60
a(I1220
I5528
tp61
a(I1170
I5589
tp62
a(I1159
I5616
tp63
a(I1250
I5493
tp64
a(I1237
I5662
tp65
a(I1269
I5629
tp66
a(I988
I5671
tp67
a(I1148
I5627
tp68
a(I1273
I5579
tp69
a(I1153
I5653
tp70
a(I1191
I5749
tp71
a(I1000
I5563
tp72
a(I1229
I5734
tp73
a(I1172
I5639
tp74
a(I1132
I5728
tp75
a(I1191
I5611
tp76
a(I1262
I5775
tp77
a(I1209
I5474
tp78
a(I1103
I5629
tp79
a(I1200
I5611
tp80
a(I1139
I5543
tp81
a(I1145
I5739
tp82
a(I1157
I5634
tp83
a(I1149
I5636
tp84
a(I1426
I4689
tp85
a(I1353
I4798
tp86
a(I1104
I4920
tp87
a(I1465
I4924
tp88
a(I1361
I4777
tp89
a(I1358
I4926
tp90
a(I1366
I4863
tp91
a(I1294
I4982
tp92
a(I1397
I4839
tp93
a(I1238
I4904
tp94
a(I1328
I4996
tp95
a(I1362
I4863
tp96
a(I1473
I4887
tp97
a(I1366
I4855
tp98
a(I1399
I4798
tp99
a(I1385
I4871
tp100
a(I1401
I4896
tp101
a(I1349
I4957
tp102
a(I1532
I4931
tp103
a(I1379
I5011
tp104
a(I1496
I4994
tp105
a(I1402
I4778
tp106
a(I1319
I4804
tp107
a(I1377
I4730
tp108
a(I1187
I4978
tp109
a(I1420
I4891
tp110
a(I1347
I4750
tp111
a(I1314
I4842
tp112
a(I1589
I4766
tp113
a(I1319
I4806
tp114
a(I1409
I4727
tp115
a(I1306
I4833
tp116
a(I1371
I4831
tp117
a(I1223
I5007
tp118
a(I1392
I4891
tp119
a(I1370
I4884
tp120
a(I1080
I4797
tp121
a.