(lp0
(I4532
I3701
tp1
a(I4647
I3670
tp2
a(I4499
I3618
tp3
a(I4540
I3892
tp4
a(I4478
I3749
tp5
a(I4489
I3773
tp6
a(I4559
I3539
tp7
a(I4611
I3546
tp8
a(I4650
I3688
tp9
a(I4575
I3818
tp10
a(I4718
I3710
tp11
a(I4577
I3585
tp12
a(I4632
I3768
tp13
a(I4429
I3834
tp14
a(I4398
I3748
tp15
a(I4735
I3801
tp16
a(I4641
I3520
tp17
a(I4630
I3871
tp18
a(I4732
I3575
tp19
a(I4403
I3720
tp20
a(I4394
I3713
tp21
a(I4578
I3647
tp22
a(I4421
I3783
tp23
a(I4663
I3701
tp24
a(I4717
I3662
tp25
a(I4669
I3636
tp26
a(I4544
I3815
tp27
a(I4444
I3822
tp28
a(I4665
I5497
tp29
a(I4657
I5515
tp30
a(I4560
I5479
tp31
a(I4813
I5464
tp32
a(I4735
I5325
tp33
a(I4622
I5505
tp34
a(I4745
I5237
tp35
a(I4637
I5303
tp36
a(I4619
I5314
tp37
a(I4681
I5523
tp38
a(I4788
I5573
tp39
a(I4569
I5385
tp40
a(I4811
I5577
tp41
a(I4745
I5246
tp42
a(I4720
I5544
tp43
a(I4780
I5284
tp44
a(I4873
I5487
tp45
a(I4593
I5339
tp46
a(I4671
I5486
tp47
a(I4798
I5245
tp48
a(I4896
I5491
tp49
a(I4942
I5481
tp50
a(I4868
I5479
tp51
a(I4795
I5552
tp52
a(I4886
I5564
tp53
a(I4761
I5494
tp54
a(I4751
I5427
tp55
a(I4602
I5476
tp56
a(I2850
I4777
tp57
a(I2761
I5004
tp58
a(I2985
I4937
tp59
a(I2596
I4881
tp60
a(I2822
I4844
tp61
a(I2962
I5011
tp62
a(I2736
I5000
tp63
a(I2712
I5059
tp64
a(I2866
I4988
tp65
a(I2853
I5057
tp66
a(I2832
I5117
tp67
a(I2756
I5013
tp68
a(I2665
I4977
tp69
a(I2786
I5226
tp70
a(I2633
I5191
tp71
a(I2775
I4769
tp72
a(I2629
I4894
tp73
a(I2608
I5139
tp74
a(I2616
I5055
tp75
a(I2687
I5165
tp76
a.