(lp0
(lp1
I8
aI17
aI19
aI23
aI51
aI34
aI57
aI58
aa(lp2
a(lp3
a(lp4
a(lp5
a(lp6
a(lp7
a(lp8
I1909
aI1775
aI1924
aI3944
aa(lp9
I17
aI0
aI3478
aI4420
aI1909
aI1775
aI1924
aI3944
aa(lp10
a(lp11
a(lp12
a(lp13
a(lp14
a(lp15
a(lp16
I3484
aI3478
aa(lp17
a(lp18
I8
aI0
aI3478
aI4420
aI19
aI57
aI58
aI62
aI113
aI65
aI218
aI71
aI104
aI72
aI91
aI94
aI97
aI98
aI99
aI109
aI160
aI102
aI103
aI105
aI112
aI119
aI114
aI123
aI124
aI155
aI158
aI165
aI166
aI169
aI170
aI171
aI175
aI180
aI181
aI193
aI194
aI196
aI204
aI211
aI214
aI216
aI240
aI255
aa(lp19
a(lp20
I17
aI0
aI3478
aI4420
aa(lp21
a(lp22
a(lp23
a(lp24
I51
aI0
aa(lp25
a(lp26
a(lp27
I104
aI2178
aI4322
aI2259
aa(lp28
I104
aI2178
aI4322
aa(lp29
I104
aI2178
aI4322
aa(lp30
I3484
aI3478
aa(lp31
a(lp32
I1050
aI2466
aI3094
aa(lp33
I1050
aI2466
aI3094
aa(lp34
a(lp35
I51
aI0
aa(lp36
a(lp37
a(lp38
a(lp39
a(lp40
a(lp41
a(lp42
a(lp43
a(lp44
I291
aI2513
aI935
aI3094
aa(lp45
I291
aI2513
aI935
aI3094
aa(lp46
a(lp47
a(lp48
a(lp49
a(lp50
a(lp51
a(lp52
I23
aI0
aI34
aI105
aI104
aI264
aI291
aI285
aI286
aI289
aI292
aI294
aI295
aI296
aI297
aI308
aI355
aI318
aI327
aI332
aI333
aI279
aI334
aI335
aI336
aI344
aI345
aI347
aI348
aI349
aI354
aI373
aI374
aI375
aI377
aI378
aI379
aI380
aI381
aI385
aI386
aI398
aa(lp53
a(lp54
a(lp55
a(lp56
a(lp57
a(lp58
I17
aI0
aa(lp59
I17
aI0
aa(lp60
a(lp61
a(lp62
I1220
aI4233
aI2141
aa(lp63
I113
aI17
aI989
aI1456
aI1450
aa(lp64
I703
aI573
aI935
aI1050
aI1489
aI4220
aa(lp65
I3750
aI2466
aa(lp66
I218
aI17
aI573
aI2466
aI3750
aa(lp67
a(lp68
a(lp69
a(lp70
a(lp71
a(lp72
I104
aI17
aI2419
aI2507
aI170
aI1376
aI1377
aI1379
aI1383
aI1382
aa(lp73
I104
aI17
aI2419
aI2507
aa(lp74
a(lp75
a(lp76
a(lp77
a(lp78
a(lp79
a(lp80
a(lp81
a(lp82
a(lp83
a(lp84
a(lp85
I935
aI2259
aI2947
aI2617
aI3520
aI3357
aI3799
aa(lp86
I1713
aI3520
aa(lp87
a(lp88
a(lp89
a(lp90
a(lp91
a(lp92
I113
aI17
aI102
aI123
aI124
aI279
aI165
aI166
aI169
aI773
aI802
aI2897
aI1458
aI2898
aa(lp93
a(lp94
a(lp95
I104
aI17
aI2178
aI4322
aI1063
aI1092
aI2507
aI1658
aI4155
aI2513
aa(lp96
a(lp97
a(lp98
I104
aI17
aI2466
aI429
aI2419
aI3520
aI3007
aI2962
aa(lp99
I104
aI17
aI2466
aI429
aI2419
aI3520
aI3007
aI2962
aa(lp100
I109
aI17
aI3520
aI160
aI3362
aa(lp101
a(lp102
a(lp103
I91
aI17
aI4060
aI3094
aa(lp104
I109
aI17
aI989
aI1456
aa(lp105
I26
aI2178
aI4322
aI2259
aI27
aI28
aI71
aI17
aI2507
aI72
aI94
aI2513
aI97
aI2466
aI98
aI105
aI51
aI112
aI196
aI291
aI292
aI294
aI295
aI296
aI1713
aI297
aI327
aI332
aI335
aI336
aI348
aI1383
aI1458
aI349
aI354
aI377
aI378
aI379
aI380
aI385
aI386
aI1569
aI398
aI403
aI480
aI486
aI753
aI754
aI765
aI935
aI771
aI780
aI781
aI782
aI797
aI798
aI801
aI829
aI830
aI853
aI934
aI1050
aI1089
aI1091
aI1094
aI1095
aI1097
aI1098
aI1106
aI1107
aI1114
aI1118
aI1222
aI1243
aI1244
aI1252
aI1255
aI1259
aI1260
aI1266
aI1280
aI1287
aI1288
aI1289
aI1294
aI1304
aI1305
aI1306
aI1373
aI1374
aI1375
aI1404
aI1405
aI1447
aI1448
aI1469
aI1476
aI1477
aI1505
aI1506
aI1507
aI1508
aI1520
aI1521
aI1525
aI1538
aI1563
aI1564
aI1582
aI1597
aI1598
aI1601
aI1602
aI1604
aI1624
aI1674
aI1705
aI1744
aI1800
aI1801
aI1834
aI1881
aI1982
aI2138
aI2165
aI2175
aI2176
aI2181
aI2182
aI2184
aI2185
aI2186
aI2188
aI2204
aI2205
aI2206
aI2207
aI2209
aI2217
aI2222
aI2223
aI2236
aI2237
aI2239
aI2240
aI2261
aI2262
aI2263
aI2264
aI2269
aI2271
aI2292
aI2294
aI2295
aI2296
aI2387
aI2489
aI2490
aI2492
aI2494
aI2495
aI2497
aI2498
aI2499
aI2505
aI2509
aI2510
aI2511
aI2514
aI2517
aI2518
aI2519
aI2520
aI2521
aa(lp106
I104
aI17
aI51
aI2178
aI2466
aI4322
aa(lp107
a(lp108
a(lp109
I935
aI2259
aa(lp110
I99
aI17
aI3520
aI3362
aI103
aI279
aI4233
aI355
aI2419
aI3799
aI417
aI3357
aI418
aI434
aI4155
aI435
aI439
aI447
aI448
aI449
aI2617
aI450
aI451
aI455
aI3230
aI466
aI481
aI482
aI484
aI485
aI504
aI505
aI518
aI993
aI703
aI994
aI1021
aI1079
aI1136
aI1138
aI1141
aI1142
aI1145
aI1623
aI1624
aI1936
aI1937
aI2831
aI3219
aI3224
aI3349
aI3350
aI3353
aI3354
aI3358
aI3359
aI3361
aI3364
aa(lp111
I279
aI4233
aI355
aI2419
aI3520
aa(lp112
a(lp113
I104
aI17
aI2178
aI4322
aI119
aI279
aI355
aI757
aI1450
aI1992
aI2962
aI2171
aI2259
aI2983
aa(lp114
I62
aI17
aI91
aI123
aI180
aI1947
aI181
aI193
aI194
aI211
aI214
aI216
aI573
aI255
aI456
aI474
aI606
aI625
aI659
aI969
aI1050
aI1336
aI1337
aI1949
aI2008
aI2009
aI2032
aI2920
aa(lp115
I17
aI3478
aI3565
aI2419
aa(lp116
a(lp117
a(lp118
a(lp119
a(lp120
I112
aI17
aI279
aI355
aI757
aI158
aI170
aI780
aI781
aI782
aI821
aI832
aI834
aI853
aI854
aI855
aa(lp121
a(lp122
a(lp123
I989
aI1456
aI2513
aI4155
aI1450
aI1383
aa(lp124
I91
aI17
aI113
aa(lp125
I91
aI17
aI279
aI573
aI703
aa(lp126
a(lp127
a(lp128
a(lp129
a(lp130
a(lp131
a(lp132
I400
aI1992
aa(lp133
a(lp134
a(lp135
a(lp136
a(lp137
I429
aI2419
aI3520
aa(lp138
a(lp139
a(lp140
a(lp141
I2466
aI935
aa(lp142
I2466
aI935
aa(lp143
I2513
aI2962
aa(lp144
I1092
aI4220
aI2259
aI2178
aI4322
aI4233
aa(lp145
a(lp146
a(lp147
I1092
aI910
aI2457
aa(lp148
a(lp149
a(lp150
a(lp151
I1513
aI2242
aa(lp152
a(lp153
a(lp154
a(lp155
a(lp156
I17
aI4420
aI2315
aI291
aa(lp157
I2141
aI2962
aa(lp158
I2141
aI2962
aa(lp159
I119
aI17
aa(lp160
a(lp161
I99
aI17
aI218
aI171
aI353
aI560
aI891
aI893
aI894
aI1038
aI703
aI1039
aa(lp162
a(lp163
a(lp164
a(lp165
a(lp166
I91
aI17
aa(lp167
I91
aI17
aa(lp168
I1992
aI2178
aI2417
aI3750
aa(lp169
a(lp170
I91
aI17
aa(lp171
I71
aI17
aI2507
aI119
aI291
aI2513
aI1658
aI2141
aI2962
aI3007
aa(lp172
I160
aI17
aI218
aI2141
aI2962
aa(lp173
a(lp174
a(lp175
a(lp176
I17
aI4420
aa(lp177
a(lp178
a(lp179
a(lp180
a(lp181
I113
aI17
aI1947
aa(lp182
I113
aI17
aI1947
aa(lp183
a(lp184
a(lp185
a(lp186
I536
aI910
aI752
aI279
aI761
aI762
aI776
aI777
aI783
aI784
aI787
aI788
aI789
aI803
aI815
aI852
aI860
aa(lp187
a(lp188
a(lp189
a(lp190
a(lp191
I2962
aI4155
aa(lp192
a(lp193
a(lp194
I113
aI17
aa(lp195
I113
aI17
aa(lp196
a(lp197
I104
aI17
aI4322
aI279
aI4233
aI355
aa(lp198
I1915
aI2141
aa(lp199
a(lp200
a(lp201
a(lp202
a(lp203
a(lp204
a(lp205
I17
aI4420
aa(lp206
a(lp207
a(lp208
a(lp209
a(lp210
a(lp211
a(lp212
I113
aI17
aa(lp213
I2457
aI4233
aa(lp214
a(lp215
I113
aI17
aI3558
aI2419
aa(lp216
a(lp217
I113
aI17
aI573
aI1947
aa(lp218
I2419
aI2507
aI2707
aI2962
aa(lp219
I65
aI17
aI573
aI160
aI171
aI1909
aI1775
aI353
aI560
aI2088
aI891
aI893
aI894
aa(lp220
a(lp221
a(lp222
a(lp223
a(lp224
a(lp225
a(lp226
a(lp227
a(lp228
a(lp229
a(lp230
I989
aI703
aI1456
aI4155
aI1450
aa(lp231
a(lp232
a(lp233
a(lp234
a(lp235
a(lp236
a(lp237
a(lp238
a(lp239
a(lp240
a(lp241
I17
aI4420
aa(lp242
a(lp243
a(lp244
a(lp245
a(lp246
a(lp247
a(lp248
a(lp249
a(lp250
I2419
aI3520
aa(lp251
a(lp252
a(lp253
a(lp254
a(lp255
a(lp256
I113
aI17
aa(lp257
a(lp258
a(lp259
a(lp260
a(lp261
a(lp262
a(lp263
I1092
aI4220
aa(lp264
I1658
aI2507
aI4419
aI1713
aI3520
aa(lp265
I291
aI51
aI4233
aa(lp266
a(lp267
a(lp268
I989
aI1456
aI1569
aa(lp269
a(lp270
a(lp271
a(lp272
I2457
aI4233
aa(lp273
I2457
aI4233
aa(lp274
a(lp275
a(lp276
a(lp277
a(lp278
a(lp279
I1092
aI2457
aI4220
aa(lp280
I109
aI4233
aI110
aI112
aI119
aI757
aI124
aI91
aI573
aI196
aI1092
aI2457
aI1909
aI1775
aI333
aI51
aI334
aI335
aI816
aI344
aI345
aI373
aI374
aI375
aI469
aI597
aI598
aI749
aI752
aI185
aI753
aI754
aI756
aI761
aI762
aI765
aI773
aI4060
aI776
aI777
aI780
aI781
aI782
aI783
aI784
aI787
aI788
aI789
aI791
aI798
aI800
aI801
aI802
aI803
aI812
aI815
aI819
aI821
aI826
aI827
aI828
aI829
aI830
aI832
aI834
aI842
aI852
aI853
aI854
aI855
aI860
aa(lp281
a(lp282
a(lp283
a(lp284
a(lp285
a(lp286
I291
aI51
aa(lp287
I291
aI51
aa(lp288
I989
aI1456
aa(lp289
a(lp290
I291
aI51
aI2178
aa(lp291
a(lp292
I43
aI2513
aI44
aI155
aI2315
aI170
aI2507
aI264
aI51
aI4233
aI285
aI286
aI289
aI2178
aI104
aI4322
aI2457
aI318
aI347
aI439
aI381
aI740
aI749
aI819
aI889
aI890
aI1102
aI1819
aI1820
aI1830
aI1882
aI2149
aI2179
aI2180
aI2224
aI2231
aI2232
aI2292
aI2302
aI2313
aI2329
aI2330
aI2352
aI2373
aa(lp293
I104
aI51
aI2178
aI4322
aI2457
aI4233
aI2507
aI2513
aa(lp294
I1063
aI1092
aa(lp295
I104
aI51
aI2178
aI4322
aa(lp296
I104
aI51
aI2178
aI4322
aa(lp297
I104
aI51
aI2178
aI4322
aI1713
aI2513
aa(lp298
I104
aI51
aI4322
aI1063
aI1092
aI2507
aI1314
aI1489
aI2141
aI2513
aI2962
aa(lp299
I1450
aI4155
aI2141
aI2962
aI3007
aI2617
aa(lp300
I1450
aI4155
aI2141
aI2962
aI3007
aI2617
aa(lp301
I1450
aI4155
aI2141
aI2962
aI3007
aI2617
aa(lp302
a(lp303
I429
aI2419
aa(lp304
a(lp305
a(lp306
a(lp307
I1092
aI910
aa(lp308
a(lp309
I355
aI51
aI4233
aa(lp310
a(lp311
I1063
aI1092
aa(lp312
I536
aI910
aI1092
aa(lp313
I1092
aI2457
aI4233
aa(lp314
I1489
aI1450
aI4220
aa(lp315
a(lp316
a(lp317
a(lp318
I2457
aI4233
aa(lp319
I291
aI51
aI4233
aa(lp320
a(lp321
I1063
aI1092
aI2507
aa(lp322
a(lp323
a(lp324
I1092
aI4220
aI2259
aI2178
aI4322
aI4233
aa(lp325
a(lp326
a(lp327
a(lp328
I104
aI51
aI4322
aI1063
aI1092
aI1713
aa(lp329
I2457
aI4233
aa(lp330
a(lp331
I2171
aI4155
aa(lp332
a(lp333
I104
aI51
aI2466
aI4322
aI2507
aa(lp334
I279
aI51
aI355
aa(lp335
I279
aI51
aI355
aa(lp336
I104
aI51
aI2178
aI4322
aI279
aI1092
aI355
aI816
aa(lp337
I104
aI51
aI2178
aI4322
aa(lp338
a(lp339
I2419
aI2707
aa(lp340
I2457
aI4233
aa(lp341
I2457
aI4233
aa(lp342
a(lp343
a(lp344
a(lp345
I279
aI51
aI816
aI1490
aa(lp346
I279
aI51
aa(lp347
I532
aI439
aI440
aI536
aa(lp348
I291
aI51
aI439
aI1092
aI910
aa(lp349
I104
aI51
aI4322
aI355
aI4233
aI816
aI1383
aI1458
aI4155
aI1658
aI1672
aI2259
aa(lp350
I104
aI51
aI4322
aI355
aI4233
aI816
aI1092
aI4220
aI1383
aI1458
aI4155
aI1658
aI1672
aI2259
aI3520
aa(lp351
I989
aI1456
aI1450
aI3007
aI2962
aa(lp352
a(lp353
a(lp354
I160
aI218
aa(lp355
I104
aI51
aI1063
aI1092
aI4220
aI4233
aa(lp356
I109
aI4233
aI2419
aI110
aI112
aI119
aI1450
aI196
aI308
aI51
aI333
aI334
aI335
aI816
aI348
aI1672
aI349
aI2457
aI403
aI756
aI780
aI781
aI782
aI791
aI798
aI829
aI830
aI834
aI844
aI853
aI854
aI1373
aI1374
aI1375
aI1654
aI1655
aI1670
aI1671
aI1983
aI1984
aI2138
aI2148
aI2186
aI2207
aI2214
aI2215
aI2225
aI2261
aI2262
aI2263
aI2264
aI3270
aI3271
aI3390
aa(lp357
a(lp358
a(lp359
a(lp360
a(lp361
I989
aI1456
aI1450
aa(lp362
I1658
aI4155
aa(lp363
I1658
aI4155
aa(lp364
a(lp365
a(lp366
a(lp367
a(lp368
a(lp369
a(lp370
I2010
aI2466
aa(lp371
I1063
aI1092
aa(lp372
a(lp373
a(lp374
I279
aI51
aI1092
aI2457
aI1063
aI2141
aI3007
aa(lp375
I279
aI51
aI1092
aI2457
aI2141
aI3007
aa(lp376
I279
aI51
aI1092
aI989
aI1456
aa(lp377
I3565
aI2466
aa(lp378
I104
aI51
aI2178
aI4322
aI1063
aI1092
aI2507
aa(lp379
I104
aI51
aa(lp380
I104
aI51
aa(lp381
I104
aI51
aI2178
aI4322
aa(lp382
I291
aI51
aI2513
aa(lp383
a(lp384
a(lp385
I1713
aI2178
aa(lp386
I104
aI51
aI4322
aI1450
aI4155
aI1489
aI2141
aI3007
aI2962
aI4233
aI2457
aa(lp387
I104
aI51
aI4322
aI1063
aI1092
aI2457
aI1104
aI1198
aI1450
aI4155
aI1458
aI2962
aI1489
aI2141
aI3007
aI1569
aI4233
aI2617
aa(lp388
a(lp389
a(lp390
a(lp391
I536
aI910
aI1092
aa(lp392
a(lp393
a(lp394
a(lp395
a(lp396
a(lp397
a(lp398
a(lp399
I104
aI51
aI4322
aI2457
aI4233
aa(lp400
a(lp401
I131
aI1992
aI402
aI403
aI404
aI405
aI410
aI422
aI424
aI426
aa(lp402
a(lp403
I400
aI1992
aa(lp404
I400
aI1992
aI989
aI1456
aI2507
aI1450
aI355
aI1475
aI2962
aI104
aa(lp405
I400
aI1992
aa(lp406
I400
aI1992
aa(lp407
a(lp408
a(lp409
a(lp410
a(lp411
I400
aI1992
aI1489
aI1513
aI2141
aI3007
aI1658
aI2507
aI2962
aI2513
aa(lp412
a(lp413
a(lp414
a(lp415
a(lp416
a(lp417
a(lp418
I109
aI3520
aI1430
aI1450
aI2141
aI2513
aI2259
aI2178
aI2947
aI3357
aa(lp419
I109
aI4233
aI1430
aI1450
aI1475
aI2962
aI2141
aI2259
aI2178
aa(lp420
a(lp421
a(lp422
a(lp423
I400
aI1992
aI1489
aI1513
aI2141
aI3007
aI1658
aI2962
aa(lp424
a(lp425
I400
aI1992
aI2962
aI2513
aa(lp426
a(lp427
I400
aI1992
aI2466
aI935
aa(lp428
a(lp429
a(lp430
I97
aI2419
aI98
aI136
aI302
aI431
aI432
aI444
aI445
aI446
aI455
aI456
aI476
aI478
aI479
aI480
aI482
aI484
aI485
aI490
aI491
aI493
aI498
aI499
aI504
aI513
aI514
aI517
aI3094
aI520
aI521
aI523
aI524
aI527
aI528
aI529
aa(lp431
I989
aI1456
aI2507
aI2259
aI2178
aI4220
aI2707
aa(lp432
I429
aI2419
aI1314
aI1220
aI1658
aI2513
aa(lp433
I429
aI2419
aI935
aI4233
aI2457
aa(lp434
a(lp435
I109
aI3520
aI4155
aI1430
aI1450
aI1475
aI2962
aI1713
aI2178
aI2141
aI2513
aI2259
aI2947
aI2983
aI3357
aa(lp436
I109
aI3520
aI4155
aI1430
aI1450
aI1475
aI2962
aI1713
aI2178
aI2141
aI2513
aI2259
aI2947
aI2983
aI3357
aa(lp437
I989
aI1456
aI4155
aI1458
aI1658
aI2141
aI3007
aI4233
aa(lp438
a(lp439
I2770
aI2259
aa(lp440
I346
aI532
aI347
aI291
aI989
aI1456
aI4414
aI3357
aI109
aI531
aI4440
aa(lp441
I346
aI532
aI536
aI533
aI534
aI535
aa(lp442
I1489
aI2141
aI1569
aI1658
aI2962
aI1641
aI2171
aI1927
aI1992
aI2088
aI2010
aI3357
aI3799
aa(lp443
I1108
aI1063
aI1489
aI1513
aI2141
aI1569
aI1658
aI2513
aI2962
aI1641
aI2171
aI1927
aI2088
aI2010
aa(lp444
a(lp445
I429
aI2419
aI3520
aa(lp446
I429
aI2419
aI3520
aa(lp447
I429
aI2419
aI989
aI1456
aI4155
aI1450
aI1947
aa(lp448
I109
aI3520
aI1430
aI1450
aI1475
aI2962
aI1909
aI1775
aI2141
aI2513
aI2259
aI2178
aI881
aI3357
aa(lp449
I109
aI3520
aI1430
aI1450
aI1475
aI2962
aI2141
aI2513
aI2259
aI2178
aI3357
aa(lp450
I109
aI2617
aI3799
aI989
aI1456
aI4414
aI1050
aI3007
aI1082
aI3327
aI1475
aI2962
aI1489
aI2141
aI4220
aI4419
aI2656
aI2088
aI3200
aa(lp451
I109
aI3799
aI989
aI1456
aI1569
aa(lp452
I109
aI3799
aI989
aI1456
aI1569
aa(lp453
I1220
aI1489
aI2259
aI4233
aI1314
aI1458
aI881
aI2962
aI2141
aI3007
aI1658
aI2513
aa(lp454
a(lp455
a(lp456
I109
aI2419
aI3799
aI429
aI989
aI1456
aI4414
aI1430
aI1450
aI1513
aI1927
aI2141
aI2259
aI2178
aI2947
aI3230
aI1475
aI3357
aI3362
aa(lp457
I429
aI2419
aI1947
aI113
aa(lp458
a(lp459
I1108
aI1063
aa(lp460
a(lp461
a(lp462
a(lp463
a(lp464
I989
aI1456
aa(lp465
a(lp466
a(lp467
I109
aI3520
aI3357
aa(lp468
I989
aI1456
aa(lp469
a(lp470
I279
aI1092
aI632
aI2010
aa(lp471
a(lp472
I989
aI1456
aI4155
aI1658
aI2962
aI2457
aI4233
aa(lp473
I989
aI1456
aI4414
aa(lp474
I989
aI1456
aI4414
aa(lp475
I989
aI1456
aI1947
aI113
aa(lp476
I989
aI4414
aa(lp477
I429
aI2419
aI3558
aa(lp478
I989
aI1456
aa(lp479
I429
aI2419
aa(lp480
I429
aI2419
aa(lp481
I104
aI4322
aI429
aI2419
aI2507
aI2962
aa(lp482
I109
aI2617
aI3520
aI3799
aI1713
aI2947
aa(lp483
I109
aI2419
aI2617
aI3520
aI429
aI3362
aa(lp484
I989
aI1456
aI4414
aI2141
aI3007
aI2259
aI2178
aa(lp485
I109
aI2419
aI2617
aI3520
aI4233
aI429
aa(lp486
I109
aI2419
aI2617
aI3520
aI4233
aI429
aa(lp487
I104
aI4322
aa(lp488
a(lp489
I989
aI1456
aI2513
aa(lp490
a(lp491
I429
aI2419
aI3558
aI3565
aa(lp492
I429
aI2419
aI3558
aI3565
aa(lp493
a(lp494
I429
aI2419
aa(lp495
a(lp496
a(lp497
a(lp498
a(lp499
I429
aI2419
aa(lp500
I429
aI2419
aa(lp501
a(lp502
a(lp503
a(lp504
I1458
aI2178
aI1641
aI4402
aI2088
aI2171
aI2417
aI3750
aa(lp505
I109
aI2419
aI4155
aI429
aI989
aI1456
aI2507
aI4414
aI1672
aI2010
aI2088
aI538
aI539
aI540
aI541
aI542
aI545
aI546
aI549
aI553
aI554
aI560
aI561
aI562
aI563
aa(lp506
I109
aI2617
aI3357
aa(lp507
I1658
aI1641
aI2171
aa(lp508
I989
aI1456
aa(lp509
I989
aI1456
aa(lp510
I989
aI1456
aa(lp511
I989
aI4155
aI2962
aa(lp512
I989
aI1456
aa(lp513
I989
aI1456
aa(lp514
I429
aI2419
aI1658
aI1489
aI2557
aI2242
aa(lp515
I429
aI2419
aI1658
aI1489
aI2557
aI2242
aa(lp516
I989
aI1456
aI4414
aI1450
aI1489
aI2141
aI1713
aa(lp517
a(lp518
I429
aI3094
aI4060
aI4220
aI2707
aa(lp519
I109
aI3520
aI989
aI1220
aI1456
aI4414
aI1092
aa(lp520
I2962
aI4155
aa(lp521
I429
aI2419
aI2010
aI2466
aa(lp522
I429
aI2419
aI2010
aI2466
aa(lp523
a(lp524
I429
aI2419
aI1458
aI4155
aI2010
aI2171
aa(lp525
I429
aI2419
aI1458
aI4155
aI2010
aI2171
aa(lp526
a(lp527
a(lp528
I429
aI2419
aI2010
aI3520
aa(lp529
I429
aI2419
aI2010
aI3520
aa(lp530
I429
aI2419
aI2010
aI3520
aa(lp531
I989
aI1456
aI4414
aa(lp532
I439
aI3357
aI4440
aI3799
aa(lp533
I346
aI439
aI440
aI3357
aI4440
aI3799
aI1708
aa(lp534
I536
aI440
aa(lp535
I536
aI440
aa(lp536
I536
aI440
aa(lp537
I311
aI910
aI346
aI440
aI390
aI533
aI534
aI535
aI185
aI703
aI1915
aI1924
aI3357
aI3671
aI3750
aI4220
aI4277
aI4313
aa(lp538
I989
aI1456
aa(lp539
I504
aI2419
aa(lp540
I504
aI2419
aa(lp541
I504
aI2088
aa(lp542
I504
aI2088
aa(lp543
I504
aI2088
aa(lp544
a(lp545
a(lp546
I504
aI989
aI1456
aI2088
aa(lp547
I504
aI989
aI1456
aI2088
aa(lp548
a(lp549
a(lp550
I504
aI2419
aa(lp551
a(lp552
a(lp553
a(lp554
I504
aI2088
aa(lp555
I504
aI2088
aa(lp556
a(lp557
a(lp558
a(lp559
a(lp560
a(lp561
I160
aI218
aI2088
aI504
aa(lp562
I504
aI2088
aa(lp563
I504
aI2088
aa(lp564
I504
aI2088
aa(lp565
a(lp566
a(lp567
a(lp568
a(lp569
a(lp570
a(lp571
a(lp572
a(lp573
a(lp574
I63
aI703
aI65
aI218
aI2466
aI124
aI279
aI216
aI113
aI1947
aI583
aI589
aI593
aI594
aI597
aI598
aI606
aI615
aI616
aI625
aI648
aI652
aI653
aI656
aI657
aI659
aI672
aI676
aI682
aI683
aI697
aI718
aI731
aI732
aa(lp575
a(lp576
a(lp577
a(lp578
a(lp579
a(lp580
a(lp581
a(lp582
a(lp583
a(lp584
I573
aI1947
aI703
aa(lp585
a(lp586
a(lp587
a(lp588
a(lp589
a(lp590
I573
aI1947
aa(lp591
I1489
aI2141
aa(lp592
a(lp593
a(lp594
I703
aI573
aa(lp595
I703
aI573
aa(lp596
a(lp597
a(lp598
I279
aI573
aa(lp599
I279
aI573
aa(lp600
a(lp601
I910
aI1924
aa(lp602
a(lp603
a(lp604
a(lp605
a(lp606
a(lp607
I573
aI113
aa(lp608
a(lp609
a(lp610
a(lp611
I989
aI1456
aa(lp612
I989
aI1456
aa(lp613
a(lp614
a(lp615
I2088
aI2171
aa(lp616
I573
aI1947
aI703
aa(lp617
I573
aI1947
aI703
aa(lp618
a(lp619
a(lp620
I3558
aI2419
aa(lp621
a(lp622
a(lp623
a(lp624
a(lp625
a(lp626
I573
aI113
aI1063
aI1092
aa(lp627
a(lp628
a(lp629
a(lp630
a(lp631
a(lp632
a(lp633
I469
aI2010
aI2088
aI2171
aI880
aa(lp634
I2088
aI2010
aI2171
aa(lp635
a(lp636
a(lp637
a(lp638
a(lp639
a(lp640
a(lp641
a(lp642
a(lp643
a(lp644
a(lp645
a(lp646
a(lp647
a(lp648
a(lp649
I573
aI1947
aa(lp650
a(lp651
a(lp652
a(lp653
I703
aI573
aa(lp654
I703
aI573
aa(lp655
a(lp656
a(lp657
I573
aI1947
aa(lp658
I573
aI1947
aa(lp659
I1220
aI2259
aI2507
aI2513
aI4155
aa(lp660
I573
aI113
aI1489
aI2141
aI4155
aI4419
aa(lp661
a(lp662
a(lp663
a(lp664
a(lp665
a(lp666
I1314
aI4402
aa(lp667
I1314
aI4402
aa(lp668
a(lp669
a(lp670
a(lp671
a(lp672
I1063
aI1092
aa(lp673
I703
aI573
aa(lp674
a(lp675
a(lp676
a(lp677
I573
aI2466
aa(lp678
a(lp679
a(lp680
a(lp681
a(lp682
a(lp683
I573
aI2466
aa(lp684
I573
aI2466
aa(lp685
a(lp686
I2457
aI4233
aa(lp687
I2513
aI4322
aa(lp688
I2513
aI4322
aa(lp689
I776
aI2088
aI888
aa(lp690
a(lp691
a(lp692
a(lp693
a(lp694
a(lp695
a(lp696
I2088
aI2171
aa(lp697
a(lp698
I573
aI1947
aa(lp699
a(lp700
a(lp701
a(lp702
a(lp703
a(lp704
I63
aI573
aI935
aI1050
aI124
aI229
aI989
aI536
aI910
aI583
aI593
aI594
aI615
aI616
aI652
aI653
aI672
aI777
aI790
aI890
aI897
aI915
aI916
aI928
aI1092
aI936
aI947
aI948
aI965
aI967
aI968
aI969
aI993
aI109
aI994
aI1005
aI1006
aI1007
aI1021
aI1032
aI1033
aI1038
aI160
aI1039
aI1046
aI1047
aI1048
aI1049
aI1059
aI1060
aa(lp705
a(lp706
a(lp707
a(lp708
a(lp709
a(lp710
a(lp711
a(lp712
a(lp713
a(lp714
a(lp715
a(lp716
a(lp717
a(lp718
a(lp719
I573
aI1947
aa(lp720
a(lp721
a(lp722
a(lp723
a(lp724
a(lp725
a(lp726
I2088
aI2010
aa(lp727
a(lp728
a(lp729
a(lp730
a(lp731
a(lp732
I573
aI2466
aI1050
aa(lp733
I573
aI2466
aI1050
aa(lp734
a(lp735
a(lp736
a(lp737
a(lp738
a(lp739
a(lp740
a(lp741
I291
aI2513
aa(lp742
a(lp743
a(lp744
a(lp745
a(lp746
a(lp747
a(lp748
a(lp749
I1641
aI4402
aI1992
aI2962
aa(lp750
I279
aI1092
aI1775
aI291
aI2513
aI935
aI2259
aI3094
aI1713
aI1489
aI2449
aa(lp751
I989
aI2507
aa(lp752
a(lp753
I185
aI279
aI1489
aI989
aI2141
aI1915
aI1992
aI3357
aI3799
aa(lp754
I104
aI2178
aI816
aI279
aa(lp755
I104
aI2178
aI816
aI279
aa(lp756
I2507
aI2962
aI3007
aI4155
aa(lp757
I279
aI1092
aI4233
aI355
aI2507
aI1489
aI3007
aI4155
aa(lp758
I112
aI119
aI279
aI1092
aa(lp759
a(lp760
a(lp761
a(lp762
I185
aI279
aa(lp763
I185
aI279
aa(lp764
a(lp765
a(lp766
I104
aI4322
aI279
aI1092
aI935
aI3094
aI1063
aa(lp767
a(lp768
a(lp769
a(lp770
a(lp771
a(lp772
I104
aI2178
aI4322
aI2513
aa(lp773
a(lp774
I279
aI91
aI1775
aI1909
aI4060
aI2507
aI3007
aa(lp775
a(lp776
a(lp777
I185
aI279
aI688
aI2088
aI1489
aI1383
aI2141
aI1490
aI1658
aI1915
aI1992
aI3357
aI3094
aI3799
aa(lp778
I185
aI279
aI935
aI703
aI2259
aI3094
aI989
aI2513
aI1489
aI1383
aI2141
aI1490
aI1658
aI2171
aI1915
aI1924
aI1992
aI3357
aI3799
aa(lp779
a(lp780
a(lp781
I104
aI2178
aI4322
aI119
aI279
aI355
aI4233
aI1450
aI2171
aa(lp782
I104
aI2178
aI4322
aI119
aI279
aI355
aI4233
aI1450
aa(lp783
I104
aI2178
aI4322
aI119
aI279
aI355
aI4233
aI1450
aI2171
aa(lp784
I185
aI279
aa(lp785
I185
aI279
aI1063
aI1383
aI1490
aI1658
aI1641
aI2171
aI2947
aI3520
aI3357
aI3799
aa(lp786
I1063
aI1383
aI1658
aI1641
aI2171
aI2947
aI3520
aI3357
aI3799
aa(lp787
a(lp788
I185
aI279
aa(lp789
I185
aI279
aa(lp790
I185
aI279
aa(lp791
I989
aI703
aI2707
aI2242
aa(lp792
I279
aI1092
aI2457
aI355
aa(lp793
a(lp794
a(lp795
a(lp796
a(lp797
a(lp798
I2259
aI104
aa(lp799
I104
aI2178
aI4322
aI279
aI2457
aI355
aa(lp800
I1450
aI1383
aa(lp801
I816
aI279
aa(lp802
I104
aI2178
aI4322
aI279
aI1092
aI816
aI4220
aa(lp803
I279
aI91
aa(lp804
I185
aI279
aa(lp805
a(lp806
I989
aI4155
aa(lp807
I989
aI4155
aa(lp808
a(lp809
a(lp810
I989
aI2507
aI2513
aa(lp811
a(lp812
a(lp813
I279
aI1092
aa(lp814
a(lp815
a(lp816
I185
aI279
aI989
aI2513
aa(lp817
I335
aI279
aI355
aI344
aI1490
aI348
aI349
aI753
aI754
aI800
aI801
aI1373
aI1374
aI1525
aa(lp818
a(lp819
a(lp820
I279
aI1092
aI291
aI2513
aI935
aI2259
aa(lp821
a(lp822
I119
aI279
aI1092
aI2141
aI1450
aa(lp823
a(lp824
a(lp825
a(lp826
a(lp827
I279
aI2457
aI2707
aa(lp828
I279
aI2457
aI2707
aa(lp829
I279
aI2457
aI2707
aa(lp830
I104
aI2178
aI4322
aI279
aI4233
aI355
aI1450
aI989
aa(lp831
I104
aI2178
aI4322
aI279
aI4233
aI355
aI1450
aI989
aI2171
aI3799
aI3520
aa(lp832
a(lp833
I119
aI279
aa(lp834
I989
aI2507
aI1450
aI1475
aI2962
aI2141
aI3007
aI3094
aa(lp835
I119
aI279
aI355
aI989
aI4155
aI1713
aI2178
aI4322
aI1992
aa(lp836
I989
aI1456
aI4155
aI1450
aI1658
aI2141
aI3007
aa(lp837
I989
aI1456
aI4155
aI1450
aI1658
aI2141
aI3007
aa(lp838
I989
aI1456
aI4155
aI1450
aI1658
aI2141
aI3007
aa(lp839
a(lp840
a(lp841
I1713
aI2178
aa(lp842
I1713
aI2178
aa(lp843
I279
aI1092
aa(lp844
a(lp845
I1450
aI355
aI989
aI1927
aI2141
aI2088
aI2171
aa(lp846
a(lp847
a(lp848
a(lp849
a(lp850
a(lp851
a(lp852
a(lp853
I185
aI279
aI935
aI3094
aI989
aI2513
aI4414
aI1915
aI1924
aa(lp854
I119
aI279
aI355
aI1992
aI2962
aI2513
aI104
aa(lp855
I119
aI279
aI355
aI1992
aI2962
aa(lp856
I119
aI279
aI1450
aI989
aI1489
aI2141
aI3565
aI3558
aa(lp857
a(lp858
a(lp859
a(lp860
a(lp861
I185
aI279
aI989
aI2513
aI1915
aa(lp862
a(lp863
I2507
aI2962
aI4288
aa(lp864
a(lp865
a(lp866
a(lp867
a(lp868
a(lp869
a(lp870
a(lp871
I935
aI2178
aI3094
aa(lp872
a(lp873
a(lp874
a(lp875
a(lp876
a(lp877
a(lp878
a(lp879
a(lp880
a(lp881
I632
aI2088
aa(lp882
I447
aI2513
aI452
aI1458
aI1381
aI1481
aI1551
aI1582
aI1881
aa(lp883
a(lp884
a(lp885
a(lp886
I1489
aI989
aI1383
aI2141
aI1490
aI1658
aI2171
aI1915
aI1992
aI2417
aI3750
aI3357
aI3799
aa(lp887
I989
aI2507
aI1915
aa(lp888
I989
aI2507
aI1915
aa(lp889
I688
aI2088
aI989
aI2513
aI4414
aI1063
aI1383
aI4220
aI1489
aI2141
aI1490
aI1658
aI2171
aI1713
aI1915
aI1924
aI3094
aI1947
aI1992
aI3357
aI3799
aa(lp890
I291
aI2513
aI1489
aI1383
aI2141
aI1490
aI1658
aI1713
aI1915
aI1992
aI1947
aI3357
aI3094
aI3799
aa(lp891
I291
aI2513
aI989
aI703
aI4414
aI1489
aI1383
aI2141
aI1490
aI1658
aI1713
aI1915
aI1924
aI3094
aI1947
aI1992
aI3357
aI3799
aa(lp892
I160
aI218
aa(lp893
a(lp894
I160
aI218
aI1775
aI1909
aa(lp895
I160
aI218
aa(lp896
a(lp897
a(lp898
I1050
aI703
aa(lp899
I1992
aI1947
aa(lp900
a(lp901
a(lp902
a(lp903
a(lp904
a(lp905
a(lp906
a(lp907
a(lp908
a(lp909
a(lp910
I2419
aI3520
aa(lp911
I146
aI1092
aI306
aI311
aI536
aI347
aI390
aI185
aI703
aI1915
aI1924
aI3357
aI3671
aI3750
aI4220
aI4277
aI4313
aI600
aI1269
aa(lp912
a(lp913
a(lp914
a(lp915
a(lp916
I935
aI703
aI2707
aa(lp917
I935
aI703
aI2707
aa(lp918
a(lp919
a(lp920
a(lp921
a(lp922
a(lp923
a(lp924
a(lp925
a(lp926
a(lp927
a(lp928
a(lp929
I703
aI1092
aI935
aI4233
aa(lp930
a(lp931
a(lp932
a(lp933
a(lp934
a(lp935
I104
aI2178
aI4322
aI2259
aI4233
aI2707
aa(lp936
I43
aI3094
aI44
aI63
aI703
aI84
aI2259
aI108
aI140
aI2466
aI141
aI426
aI432
aI4233
aI2419
aI2457
aI749
aI2449
aI765
aI104
aI4322
aI777
aI819
aI852
aI870
aI2178
aI915
aI2707
aI916
aI928
aI936
aI947
aI948
aI1413
aI1417
aI1532
aI1533
aI1738
aI1739
aI1781
aI1789
aI1820
aI1826
aI1830
aI1882
aI2149
aI2153
aI2417
aI2154
aI2387
aI2392
aI2393
aI2400
aI2401
aI2402
aI2418
aI2420
aI2423
aI2424
aI2425
aI2426
aI2427
aI2428
aI2430
aI2432
aI2433
aI2434
aI2436
aI2439
aI2440
aI2442
aI2456
aI2475
aI2476
aI2478
aI2482
aI2484
aa(lp937
I935
aI703
aI2259
aI3094
aI989
aI2513
aI1489
aI1383
aI2141
aI1490
aI1658
aI2171
aI1915
aI1924
aI1992
aI3357
aI3799
aa(lp938
a(lp939
I2513
aI2507
aI3094
aa(lp940
I2513
aI2507
aI3094
aa(lp941
a(lp942
a(lp943
I2457
aI4233
aI4220
aa(lp944
I2457
aI4233
aI4220
aa(lp945
a(lp946
I4220
aI2707
aa(lp947
I4220
aI2707
aa(lp948
I935
aI703
aI2707
aI3094
aa(lp949
I935
aI703
aI2707
aI3094
aa(lp950
a(lp951
a(lp952
a(lp953
a(lp954
a(lp955
a(lp956
a(lp957
a(lp958
a(lp959
a(lp960
a(lp961
a(lp962
a(lp963
a(lp964
a(lp965
a(lp966
I989
aI703
aa(lp967
a(lp968
I703
aI1092
aI1063
aa(lp969
I703
aI1092
aI1063
aa(lp970
I1050
aI113
aI703
aa(lp971
a(lp972
a(lp973
I2707
aI2242
aa(lp974
a(lp975
a(lp976
a(lp977
a(lp978
a(lp979
a(lp980
a(lp981
a(lp982
I2707
aI2457
aa(lp983
I2707
aI2457
aa(lp984
a(lp985
a(lp986
a(lp987
a(lp988
a(lp989
a(lp990
I62
aI1456
aI1450
aI103
aI122
aI2513
aI4155
aI229
aI703
aI267
aI287
aI350
aI360
aI375
aI403
aI2507
aI430
aI436
aI439
aI4414
aI446
aI1947
aI449
aI1489
aI450
aI451
aI455
aI463
aI467
aI471
aI472
aI473
aI474
aI475
aI477
aI483
aI488
aI504
aI507
aI508
aI509
aI510
aI511
aI512
aI515
aI518
aI1220
aI530
aI537
aI545
aI546
aI610
aI611
aI750
aI752
aI777
aI790
aI805
aI806
aI809
aI815
aI829
aI830
aI833
aI834
aI835
aI836
aI837
aI844
aI852
aI855
aI860
aI885
aI886
aI887
aI888
aI890
aI936
aI965
aI1005
aI1006
aI1007
aI1059
aI1060
aI1076
aI1077
aI1125
aI1126
aI1135
aI1141
aI1142
aI1252
aI1381
aI1420
aI1437
aI1438
aI1451
aI1452
aI1478
aI1549
aI1570
aI1581
aI1599
aI1743
aI1808
aI1868
aI1869
aI1901
aI2001
aI2065
aI2074
aI2075
aI2077
aI2104
aI2109
aI2111
aI2138
aI2139
aI2142
aI2146
aI2147
aI2152
aI2155
aI2156
aI2162
aI2217
aI2261
aI2263
aI2264
aI2297
aI2799
aI2889
aI2890
aI2911
aI2920
aI3000
aI3097
aI3160
aI3356
aI3366
aI3370
aI3384
aI3388
aI3397
aI3412
aI3413
aI3446
aI3447
aI3496
aI3606
aI3664
aI3852
aI3945
aI4079
aI4080
aI4084
aI4085
aI4086
aI4087
aI4090
aI4091
aI4092
aI4094
aI4095
aI4097
aI4098
aa(lp991
a(lp992
a(lp993
I1909
aI1775
aa(lp994
I109
aI703
aI2419
aI3520
aI1513
aI2259
aI2178
aI2141
aI2707
aa(lp995
I109
aI703
aI2419
aI3520
aI1513
aI2259
aI2178
aI2141
aI2707
aa(lp996
a(lp997
a(lp998
a(lp999
a(lp1000
a(lp1001
I2457
aI4233
aa(lp1002
I2457
aI4233
aa(lp1003
a(lp1004
a(lp1005
a(lp1006
I989
aI703
aI1063
aI1383
aI1489
aI2141
aI1490
aI1658
aI1915
aI1992
aa(lp1007
I989
aI703
aI1063
aI1383
aI1489
aI2141
aI1490
aI1658
aI1915
aI1992
aa(lp1008
I989
aI703
aI1063
aI1383
aI1489
aI2141
aI1490
aI1658
aI1915
aI1992
aa(lp1009
a(lp1010
a(lp1011
a(lp1012
I4233
aI2707
aa(lp1013
I4233
aI2707
aa(lp1014
a(lp1015
a(lp1016
a(lp1017
a(lp1018
a(lp1019
a(lp1020
a(lp1021
a(lp1022
I109
aI703
aI2617
aI3520
aa(lp1023
a(lp1024
a(lp1025
a(lp1026
a(lp1027
a(lp1028
a(lp1029
a(lp1030
a(lp1031
a(lp1032
a(lp1033
I703
aI1092
aa(lp1034
I1050
aI703
aa(lp1035
a(lp1036
a(lp1037
a(lp1038
a(lp1039
I160
aI703
aI1092
aa(lp1040
I160
aI703
aI1092
aa(lp1041
I2141
aI2962
aI2507
aa(lp1042
a(lp1043
a(lp1044
a(lp1045
a(lp1046
I2707
aI2457
aa(lp1047
I703
aI1092
aa(lp1048
I703
aI1092
aa(lp1049
I703
aI1092
aa(lp1050
I703
aI1092
aa(lp1051
I31
aI2466
aI32
aI63
aI703
aI449
aI1456
aI2617
aI3007
aI731
aI732
aI897
aI969
aI113
aI1033
aI104
aI4322
aI1092
aI1067
aI1068
aI1080
aI1081
aI1097
aI1098
aI1193
aI1224
aI1363
aI1505
aI1506
aI1580
aI1614
aI1944
aI1982
aI2002
aI2003
aI2010
aI2011
aI2359
aI2432
aI2632
aI2633
aI2637
aI2733
aI2734
aI2736
aI2737
aI2863
aI2864
aI2920
aI2963
aI3107
aI3505
aI3506
aI3585
aI3727
aI3728
aI3731
aI3737
aI3745
aI3749
aI3757
aI3758
aI3761
aI2707
aI3777
aI3782
aI3788
aa(lp1052
a(lp1053
a(lp1054
a(lp1055
a(lp1056
a(lp1057
a(lp1058
a(lp1059
a(lp1060
I989
aI703
aa(lp1061
I989
aI703
aa(lp1062
a(lp1063
a(lp1064
I94
aI1092
aI293
aI297
aI310
aI320
aI327
aI354
aI4220
aI370
aI373
aI377
aI386
aI1104
aI442
aI1108
aI458
aI625
aI671
aI765
aI784
aI1383
aI785
aI888
aI967
aI968
aI1005
aI1006
aI1007
aI1064
aI1065
aI1066
aI1067
aI1068
aI1071
aI1072
aI1073
aI1074
aI1076
aI1082
aI1077
aI1080
aI1081
aI1083
aI1084
aI1086
aI1089
aI1091
aI1094
aI1095
aI1096
aI1097
aI1098
aI1099
aI1100
aI1101
aI1105
aI1106
aI1107
aI1109
aI1110
aI1111
aI1114
aI1115
aI1116
aI1117
aI1118
aI1120
aI1121
aa(lp1065
I1063
aI1092
aa(lp1066
I1063
aI1092
aa(lp1067
I1063
aI1092
aa(lp1068
I1050
aI1092
aI1063
aa(lp1069
I1050
aI1092
aI1063
aa(lp1070
a(lp1071
a(lp1072
I1063
aI1092
aa(lp1073
I1063
aI1092
aI4220
aa(lp1074
I1063
aI1092
aI4220
aa(lp1075
I1063
aI1092
aI4220
aa(lp1076
a(lp1077
I989
aI1456
aI4414
aI1082
aI1063
aa(lp1078
I989
aI1456
aI4414
aI1082
aI1063
aa(lp1079
a(lp1080
I109
aI3520
aa(lp1081
I1050
aI1092
aI1063
aa(lp1082
I1050
aI1092
aI1063
aa(lp1083
I449
aI3327
aI1076
aI1063
aI1077
aI1127
aI2242
aI1133
aI1153
aa(lp1084
I1063
aI1092
aa(lp1085
I1063
aI1092
aa(lp1086
a(lp1087
I1063
aI1092
aa(lp1088
a(lp1089
a(lp1090
I104
aI4322
aI1063
aI1092
aa(lp1091
a(lp1092
I104
aI2178
aI4322
aI1063
aI1092
aa(lp1093
I94
aI1063
aI2507
aI143
aI4220
aI146
aI910
aI2457
aI262
aI278
aI279
aI293
aI297
aI1314
aI306
aI310
aI311
aI312
aI320
aI323
aI327
aI335
aI347
aI349
aI354
aI370
aI373
aI374
aI375
aI377
aI386
aI1198
aI390
aI469
aI518
aI1220
aI625
aI671
aI749
aI756
aI757
aI765
aI791
aI801
aI812
aI819
aI821
aI842
aI928
aI703
aI967
aI968
aI1032
aI1038
aI1039
aI1046
aI1047
aI1048
aI1049
aI1050
aI1064
aI1065
aI1066
aI1067
aI1068
aI1071
aI1072
aI1073
aI1074
aI1080
aI1081
aI1083
aI1084
aI1086
aI1089
aI1091
aI1094
aI1095
aI1096
aI1097
aI1098
aI1099
aI1100
aI1101
aI1105
aI1238
aI1106
aI1107
aI1108
aI1109
aI1110
aI1111
aI1114
aI1115
aI1116
aI1117
aI1118
aI1120
aI1121
aI1191
aI1193
aI1197
aI1199
aI1219
aI1224
aI1243
aI1244
aI1255
aI1256
aI1257
aI1259
aI1260
aI1267
aI1269
aI1278
aI1279
aI1287
aI1288
aI1289
aI1294
aI1298
aI1299
aI1313
aI1318
aa(lp1094
I1220
aI1489
aI1314
aI1458
aI2962
aI4155
aI1513
aI2141
aI3007
aI1658
aI1672
aI1713
aI3520
aI2513
aa(lp1095
I104
aI2178
aI2466
aI4322
aI1063
aI1092
aa(lp1096
I104
aI2178
aI2466
aI4322
aI1063
aI1092
aa(lp1097
I1063
aI1092
aa(lp1098
I104
aI2178
aI4322
aI1050
aI1092
aI2617
aI1063
aI1383
aI2457
aI4233
aI2513
aI4155
aa(lp1099
I104
aI2178
aI4322
aI1050
aI1092
aI2617
aI1063
aI1383
aI2457
aI4233
aI2513
aI4155
aa(lp1100
I1063
aI1092
aa(lp1101
I1063
aI1092
aa(lp1102
I1063
aI1092
aa(lp1103
I291
aI2513
aI1489
aI2141
aI1713
aI1915
aI1924
aI3094
aI1992
aI2417
aI3750
aI3357
aa(lp1104
a(lp1105
I386
aI1063
aa(lp1106
I1063
aI1092
aI1238
aa(lp1107
I104
aI4322
aI1063
aI1092
aI2507
aI1220
aI1489
aI1456
aI4155
aI1513
aI2141
aI2419
aI2513
aI2962
aI2707
aI2617
aa(lp1108
I104
aI4322
aI1063
aI1092
aI2507
aI1220
aI1489
aI1456
aI4155
aI1513
aI2141
aI2419
aI2513
aI2962
aI2707
aI2617
aa(lp1109
I442
aI1063
aI458
aI1092
aa(lp1110
I1063
aI1092
aa(lp1111
I1063
aI1092
aa(lp1112
I1063
aI1092
aa(lp1113
a(lp1114
a(lp1115
I104
aI2178
aI4322
aI1063
aI1092
aI1458
aa(lp1116
I1063
aI1092
aa(lp1117
I1063
aI1092
aa(lp1118
I1063
aI1092
aa(lp1119
I104
aI4322
aI1063
aI1092
aa(lp1120
a(lp1121
I1063
aI1092
aa(lp1122
I1063
aI1092
aa(lp1123
a(lp1124
a(lp1125
I2419
aI2507
aI3558
aa(lp1126
I989
aI1456
aI1569
aa(lp1127
I989
aI1456
aI1569
aa(lp1128
I1082
aI2242
aI2557
aa(lp1129
a(lp1130
a(lp1131
a(lp1132
a(lp1133
I2010
aI1915
aI3565
aI3558
aa(lp1134
I1082
aI2242
aI2617
aa(lp1135
a(lp1136
I989
aI1456
aa(lp1137
I109
aI3799
aI2088
aI2171
aa(lp1138
a(lp1139
I109
aI3520
aI4233
aI1220
aI2259
aI1430
aI1383
aI1513
aI1915
aI2141
aI2962
aI2178
aI2947
aI3357
aa(lp1140
a(lp1141
a(lp1142
I109
aI3799
aI989
aI1456
aa(lp1143
I109
aI3799
aI989
aI1456
aa(lp1144
I1915
aI2962
aI1992
aa(lp1145
I2959
aI2419
aa(lp1146
I3362
aI109
aa(lp1147
a(lp1148
a(lp1149
a(lp1150
a(lp1151
a(lp1152
a(lp1153
a(lp1154
I1082
aI2242
aa(lp1155
a(lp1156
a(lp1157
I2419
aI3520
aa(lp1158
a(lp1159
a(lp1160
a(lp1161
a(lp1162
I2507
aI2962
aa(lp1163
a(lp1164
a(lp1165
a(lp1166
a(lp1167
a(lp1168
a(lp1169
a(lp1170
I1713
aI2178
aa(lp1171
a(lp1172
a(lp1173
a(lp1174
I2962
aI4155
aa(lp1175
a(lp1176
a(lp1177
a(lp1178
a(lp1179
a(lp1180
a(lp1181
a(lp1182
a(lp1183
a(lp1184
a(lp1185
a(lp1186
a(lp1187
a(lp1188
a(lp1189
a(lp1190
I2259
aI2178
aa(lp1191
I2259
aI2178
aa(lp1192
I1092
aI4220
aa(lp1193
I1456
aI4155
aa(lp1194
I1050
aI1092
aa(lp1195
a(lp1196
a(lp1197
a(lp1198
I1198
aI1092
aa(lp1199
I386
aI1092
aI1197
aI1199
aI4313
aI2793
aI2876
aa(lp1200
I1198
aI1092
aI4313
aa(lp1201
a(lp1202
a(lp1203
a(lp1204
a(lp1205
a(lp1206
a(lp1207
a(lp1208
I1947
aI2466
aI2259
aI2178
aI4322
aI3750
aa(lp1209
I1947
aI2466
aI2259
aI2178
aI4322
aI3750
aa(lp1210
a(lp1211
a(lp1212
a(lp1213
a(lp1214
a(lp1215
a(lp1216
a(lp1217
a(lp1218
a(lp1219
a(lp1220
I1220
aI1092
aI2513
aa(lp1221
I61
aI4233
aI431
aI1314
aI2513
aI452
aI1489
aI2259
aI1458
aI518
aI989
aI1092
aI1456
aI658
aI1093
aI1513
aI1106
aI1107
aI1138
aI1915
aI1219
aI1255
aI1294
aI1313
aI1375
aI1376
aI1407
aI1457
aI1520
aI1551
aI1554
aI1556
aI1559
aI1560
aI1561
aI1563
aI1564
aI1566
aI1569
aI1571
aI1578
aI1581
aI1907
aI3014
aI3086
aI3103
aa(lp1222
a(lp1223
I104
aI4322
aa(lp1224
a(lp1225
I1050
aI1092
aa(lp1226
a(lp1227
a(lp1228
I2141
aI1450
aI3007
aa(lp1229
a(lp1230
a(lp1231
a(lp1232
a(lp1233
a(lp1234
a(lp1235
a(lp1236
a(lp1237
a(lp1238
a(lp1239
I1105
aI1092
aI1256
aI1257
aI2537
aI2242
aI2538
aa(lp1240
a(lp1241
a(lp1242
a(lp1243
a(lp1244
I1092
aI2507
aI1314
aI1458
aI104
aI2962
aI1489
aI2141
aI3007
aI4419
aI2690
aa(lp1245
I1092
aI2507
aI1314
aI1458
aI104
aI2962
aI1489
aI2141
aI3007
aI4419
aa(lp1246
a(lp1247
a(lp1248
a(lp1249
a(lp1250
a(lp1251
a(lp1252
a(lp1253
I104
aI4322
aI989
aI1456
aI1569
aI1672
aa(lp1254
a(lp1255
a(lp1256
I104
aI4322
aI1220
aI1092
aI1456
aa(lp1257
I1238
aI1092
aa(lp1258
I1238
aI1092
aa(lp1259
a(lp1260
I104
aI4322
aI1092
aI2507
aa(lp1261
I104
aI4322
aI1092
aI2507
aa(lp1262
a(lp1263
a(lp1264
a(lp1265
a(lp1266
a(lp1267
I104
aI4322
aa(lp1268
I1092
aI2457
aa(lp1269
I2141
aI2962
aI3007
aa(lp1270
I1092
aI910
aa(lp1271
a(lp1272
a(lp1273
a(lp1274
a(lp1275
a(lp1276
a(lp1277
a(lp1278
a(lp1279
I1092
aI2457
aI4233
aa(lp1280
I1092
aI2457
aI4233
aa(lp1281
I104
aI2178
aI4322
aa(lp1282
a(lp1283
a(lp1284
a(lp1285
a(lp1286
a(lp1287
a(lp1288
I104
aI2178
aI4322
aI1092
aI2507
aI1658
aI4155
aa(lp1289
I104
aI2178
aI4322
aI1092
aI2507
aI1658
aI4155
aa(lp1290
I104
aI2178
aI4322
aI1092
aI2507
aI1658
aI4155
aa(lp1291
a(lp1292
a(lp1293
I1450
aI4155
aI1475
aI2962
aI1658
aI2141
aI2513
aI3007
aa(lp1294
a(lp1295
I1092
aI2507
aI1220
aI2141
aI2513
aI3007
aI104
aI4155
aa(lp1296
a(lp1297
a(lp1298
a(lp1299
I1092
aI2457
aa(lp1300
I1092
aI2457
aa(lp1301
a(lp1302
a(lp1303
a(lp1304
a(lp1305
I104
aI2178
aI4322
aa(lp1306
I104
aI2178
aI4322
aa(lp1307
I104
aI2178
aI4322
aa(lp1308
a(lp1309
a(lp1310
a(lp1311
I2088
aI2010
aa(lp1312
a(lp1313
a(lp1314
I1220
aI1092
aa(lp1315
I297
aI1092
aI2507
aI2141
aI431
aI1220
aI1658
aI452
aI4233
aI665
aI4402
aI666
aI1093
aI1243
aI1244
aI2457
aI1520
aI1521
aI1537
aI1538
aI1546
aI1551
aI1555
aI1556
aI1563
aI1564
aI1565
aI1571
aI1578
aI1624
aI1673
aI1806
aI2969
aa(lp1316
a(lp1317
a(lp1318
a(lp1319
I1092
aI2457
aa(lp1320
a(lp1321
a(lp1322
a(lp1323
a(lp1324
a(lp1325
a(lp1326
a(lp1327
a(lp1328
a(lp1329
a(lp1330
a(lp1331
a(lp1332
a(lp1333
a(lp1334
a(lp1335
a(lp1336
a(lp1337
I1947
aI113
aI2010
aI2088
aI2171
aa(lp1338
I1947
aI113
aI2010
aI2088
aI2171
aa(lp1339
a(lp1340
I1489
aI1450
aa(lp1341
I1489
aI1450
aa(lp1342
a(lp1343
a(lp1344
a(lp1345
a(lp1346
a(lp1347
a(lp1348
a(lp1349
a(lp1350
a(lp1351
a(lp1352
I1489
aI2141
aI4419
aI3565
aI3558
aa(lp1353
a(lp1354
a(lp1355
a(lp1356
a(lp1357
a(lp1358
a(lp1359
I1927
aI2141
aa(lp1360
I1927
aI2141
aa(lp1361
a(lp1362
a(lp1363
a(lp1364
I1050
aI2466
aa(lp1365
a(lp1366
I1489
aI2141
aI1927
aa(lp1367
a(lp1368
a(lp1369
I1915
aI1489
aI1992
aa(lp1370
I1992
aI1489
aa(lp1371
I1992
aI1489
aa(lp1372
a(lp1373
a(lp1374
I104
aI4322
aI355
aI4233
aI816
aI2507
aI2962
aI2513
aI4155
aa(lp1375
I104
aI4322
aI355
aI4233
aI816
aI2507
aI2962
aI2513
aI4155
aa(lp1376
I104
aI4322
aI355
aI4233
aI1220
aI2513
aI4155
aa(lp1377
I71
aI2507
aI1220
aI2259
aI1513
aI2141
aI2513
aI2962
aI3007
aI2178
aI4155
aI4220
aI2707
aa(lp1378
I71
aI2507
aI2010
aI2315
aI2141
aa(lp1379
a(lp1380
I1383
aI71
aa(lp1381
a(lp1382
I989
aI1456
aI1458
aI881
aI1909
aI1775
aa(lp1383
I1383
aI71
aI1458
aa(lp1384
I122
aI1450
aI1456
aI348
aI104
aI1458
aI349
aI776
aI1489
aI777
aI784
aI1063
aI785
aI799
aI885
aI888
aI889
aI890
aI936
aI1005
aI1006
aI1007
aI1097
aI1098
aI1138
aI1430
aI1379
aI71
aI1382
aI1386
aI1389
aI1400
aI1401
aI1403
aI1475
aI1404
aI1405
aI1406
aI1407
aI1416
aI1419
aI1420
aI1423
aI1424
aI1425
aI1426
aI1427
aI1428
aI1429
aI1431
aI1432
aI1437
aI1438
aI1445
aI1446
aI1447
aI1448
aI1451
aI1452
aI1453
aI1467
aI1468
aI1469
aI1476
aI1477
aI1478
aI1487
aa(lp1385
a(lp1386
I1915
aI2513
aa(lp1387
I1489
aI1383
aI1915
aI2513
aa(lp1388
a(lp1389
a(lp1390
I1489
aI1383
aI4155
aI2962
aa(lp1391
a(lp1392
a(lp1393
a(lp1394
a(lp1395
a(lp1396
a(lp1397
a(lp1398
a(lp1399
a(lp1400
a(lp1401
I1489
aI1383
aa(lp1402
I1450
aI1383
aa(lp1403
a(lp1404
I1475
aI1383
aa(lp1405
I1383
aI104
aI2088
aI2010
aI2171
aI2507
aI2962
aa(lp1406
I1383
aI104
aI2088
aI2010
aI2171
aI2507
aI2962
aa(lp1407
I1475
aI1383
aa(lp1408
I1220
aI1489
aI1383
aI4155
aI2010
aI2466
aI2171
aa(lp1409
I2010
aI2466
aI2171
aI4155
aa(lp1410
a(lp1411
a(lp1412
a(lp1413
I1658
aI2962
aI3007
aa(lp1414
I2466
aI935
aa(lp1415
I2259
aI2178
aI4322
aa(lp1416
a(lp1417
I1450
aI1383
aI1475
aa(lp1418
I935
aI2259
aa(lp1419
a(lp1420
I1475
aI1383
aI1489
aa(lp1421
I989
aI1456
aI1450
aI1383
aI1475
aI2171
aa(lp1422
a(lp1423
a(lp1424
I1456
aI1383
aI4155
aI1475
aa(lp1425
I1450
aI1383
aI1475
aa(lp1426
I1450
aI1383
aI1475
aa(lp1427
I1458
aI1383
aI1489
aa(lp1428
I1450
aI1383
aI1475
aI2419
aI2707
aa(lp1429
I1450
aI1383
aI1475
aI2419
aI2707
aa(lp1430
I1450
aI1383
aa(lp1431
I417
aI1450
aI418
aI434
aI435
aI447
aI448
aI455
aI1138
aI1383
aI1575
aI1576
aI1588
aI2135
aa(lp1432
I1456
aI1383
aa(lp1433
I1456
aI1383
aa(lp1434
a(lp1435
a(lp1436
I2010
aI2242
aa(lp1437
I2010
aI2242
aa(lp1438
I989
aI1456
aI4155
aI1450
aI1383
aI1475
aa(lp1439
I989
aI1456
aI4155
aI1450
aI1383
aI1475
aa(lp1440
I2010
aI2466
aa(lp1441
I2010
aI2466
aI3799
aI3520
aa(lp1442
a(lp1443
a(lp1444
a(lp1445
a(lp1446
I1456
aI1383
aI4155
aI2088
aI2010
aI2171
aa(lp1447
I1456
aI1383
aI4155
aI2088
aI2010
aI2171
aa(lp1448
I1383
aI104
aa(lp1449
I1383
aI104
aa(lp1450
a(lp1451
I62
aI989
aI1456
aI112
aI355
aI2171
aI122
aI1383
aI4155
aI229
aI298
aI2141
aI299
aI300
aI313
aI1489
aI350
aI360
aI385
aI386
aI403
aI417
aI1430
aI418
aI434
aI435
aI446
aI1947
aI447
aI448
aI455
aI515
aI780
aI781
aI782
aI799
aI821
aI829
aI830
aI833
aI835
aI836
aI837
aI844
aI855
aI1227
aI1292
aI1339
aI1340
aI1401
aI1416
aI1420
aI1424
aI1425
aI1427
aI1428
aI1429
aI1437
aI1438
aI1452
aI1487
aI1575
aI1576
aI1581
aI1588
aI1623
aI1754
aI1827
aI1828
aI1856
aI1983
aI1984
aI2001
aI2092
aI2093
aI2094
aI2104
aI2109
aI2126
aI2135
aI2136
aI2138
aI2139
aI4419
aI2142
aI2146
aI2147
aI2148
aI2150
aI2152
aI2153
aI2154
aI2155
aI2156
aI2159
aI2160
aI2162
aI2169
aa(lp1452
I989
aI1456
aI4155
aI1383
aI1947
aa(lp1453
I989
aI1456
aI4155
aI1450
aI1383
aa(lp1454
I1489
aI1383
aa(lp1455
I2708
aI2419
aI4220
aI3580
aI3813
aa(lp1456
a(lp1457
I62
aI989
aI1450
aI103
aI122
aI1383
aI4155
aI229
aI267
aI1569
aI287
aI350
aI360
aI375
aI403
aI430
aI436
aI439
aI446
aI449
aI1050
aI450
aI451
aI455
aI463
aI467
aI471
aI472
aI473
aI474
aI477
aI483
aI488
aI504
aI507
aI508
aI509
aI511
aI512
aI515
aI518
aI1220
aI530
aI537
aI545
aI546
aI610
aI611
aI835
aI836
aI837
aI2466
aI1076
aI1077
aI1106
aI1107
aI1125
aI1126
aI1135
aI1141
aI1142
aI1192
aI1252
aI1255
aI1381
aI1420
aI1423
aI1431
aI1432
aI1437
aI1438
aI1445
aI1446
aI1451
aI1452
aI1467
aI1468
aI1476
aI1477
aI1478
aI1549
aI1570
aI1581
aI1599
aI1743
aI1754
aI1868
aI1869
aI1901
aI1982
aI2001
aI2104
aI2109
aI2111
aI2126
aI2138
aI2139
aI2146
aI2147
aI2153
aI2154
aI2155
aI2156
aI2261
aI2263
aI2264
aI2297
aI2637
aI2799
aI2833
aI2834
aI2889
aI2890
aI2903
aI2911
aI2920
aI2963
aI3000
aI3160
aI3366
aI3370
aI3384
aI3388
aI3397
aI3404
aI3405
aI3412
aI3413
aI3446
aI3447
aI3496
aI3606
aI3664
aI3852
aI3945
aI4079
aI4080
aI4084
aI4085
aI4086
aI4087
aI4090
aI4091
aI4092
aI4094
aI4095
aI4097
aI4098
aI4113
aa(lp1458
I2088
aI2010
aI2171
aI4155
aI2513
aI1220
aI2962
aa(lp1459
I348
aI104
aI1383
aI4155
aI4322
aI349
aI386
aI2962
aI436
aI452
aI881
aI1220
aI503
aI2178
aI523
aI524
aI1093
aI1114
aI1243
aI1244
aI1381
aI1382
aI1426
aI1520
aI1521
aI1555
aI1565
aI1571
aI1578
aI1673
aI2897
aI91
aI2898
aI2899
aI2900
aa(lp1460
a(lp1461
I2962
aI4155
aa(lp1462
a(lp1463
I1825
aI1713
aa(lp1464
a(lp1465
a(lp1466
a(lp1467
a(lp1468
I1456
aI1383
aa(lp1469
I1456
aI1383
aa(lp1470
I104
aI2178
aI4322
aI1383
aa(lp1471
a(lp1472
a(lp1473
a(lp1474
I2088
aI2010
aI2141
aI2962
aI3007
aa(lp1475
a(lp1476
I403
aI2962
aI418
aI434
aI435
aI447
aI448
aI449
aI455
aI3230
aI833
aI1292
aI1403
aI1383
aI1406
aI1416
aI1419
aI1420
aI1423
aI1424
aI1425
aI1427
aI1428
aI1437
aI1438
aI1476
aI1477
aI1754
aI1868
aI1869
aI1983
aI1947
aI1984
aI2001
aI2002
aI2003
aI2138
aa(lp1477
I104
aI4322
aI1383
aI1456
aI1475
aI2457
aI4233
aa(lp1478
I104
aI4322
aI1383
aI1456
aI1475
aI2457
aI4233
aa(lp1479
I989
aI1456
aI1383
aa(lp1480
a(lp1481
a(lp1482
I2513
aI881
aa(lp1483
I3799
aI3520
aa(lp1484
a(lp1485
a(lp1486
a(lp1487
a(lp1488
I1450
aI1383
aI4155
aI2141
aI3007
aa(lp1489
a(lp1490
I63
aI4220
aI297
aI2141
aI2513
aI313
aI1450
aI385
aI3007
aI4155
aI386
aI410
aI1513
aI1658
aI1992
aI422
aI441
aI442
aI449
aI989
aI3200
aI452
aI1220
aI513
aI514
aI515
aI1713
aI590
aI659
aI749
aI752
aI1915
aI756
aI776
aI1383
aI777
aI855
aI885
aI888
aI889
aI890
aI936
aI1005
aI1006
aI1007
aI1093
aI1102
aI1106
aI1107
aI1243
aI1244
aI1339
aI1340
aI1351
aI1365
aI1368
aI1369
aI1370
aI1386
aI1389
aI1400
aI1407
aI1419
aI1426
aI1453
aI1518
aI1519
aI1520
aI1521
aI1534
aI1535
aI1537
aI1538
aI1551
aI1555
aI1556
aI1563
aI1564
aI1565
aI1571
aI1577
aI1578
aI1582
aI1585
aI1589
aI1593
aI1599
aI1673
aI1678
aI1679
aI1805
aI1806
aI1880
aI1881
aI2025
aI2042
aI2043
aI2049
aI2050
aI2051
aI2104
aI2136
aI2793
aI2905
aI2969
aI3014
aI3025
aI3034
aI3043
aI3044
aI3045
aI3086
aI3268
aI3377
aa(lp1491
I344
aI816
aI776
aI1658
aI777
aI784
aI885
aI888
aI889
aI890
aI936
aI1005
aI1006
aI1007
aI1493
aI1495
aI1520
aI1513
aI1525
aa(lp1492
a(lp1493
a(lp1494
I1490
aI1658
aa(lp1495
a(lp1496
I1490
aI1658
aa(lp1497
a(lp1498
a(lp1499
a(lp1500
a(lp1501
a(lp1502
a(lp1503
a(lp1504
a(lp1505
a(lp1506
I104
aI4322
aI1050
aI1915
aI2962
aa(lp1507
I104
aI2178
aI4322
aI1050
aI2617
aI1915
aI2513
aI2962
aI4155
aa(lp1508
I2259
aI104
aI2962
aI4155
aa(lp1509
I2259
aI104
aI2962
aI4155
aa(lp1510
a(lp1511
a(lp1512
a(lp1513
a(lp1514
I150
aI2242
aI410
aI1489
aI422
aI442
aI1569
aI455
aI2419
aI993
aI994
aI1093
aI1220
aI1106
aI1107
aI1138
aI1376
aI1520
aI1490
aI1551
aI1554
aI1555
aI1556
aI1559
aI1560
aI1561
aI1563
aI1564
aI1565
aI1566
aI1571
aI1577
aI1578
aI1581
aI1582
aI1585
aI1589
aI1593
aa(lp1515
I2141
aI3007
aa(lp1516
a(lp1517
a(lp1518
a(lp1519
I1915
aI1489
aI1992
aI2178
aI4432
aa(lp1520
I1915
aI1489
aI1992
aI2178
aI4432
aa(lp1521
I1220
aI1489
aI1314
aI2507
aI1458
aI104
aI2962
aI1513
aI2141
aI3007
aI1490
aI1658
aI2171
aI4419
aI2513
aa(lp1522
I1314
aI2507
aI1458
aI104
aI2962
aI1489
aI2141
aI3007
aI4419
aa(lp1523
I2141
aI2513
aI2962
aI3007
aI2507
aa(lp1524
a(lp1525
a(lp1526
I104
aI2178
aI4322
aI816
aI1490
aI2457
aI4233
aI2513
aI4155
aa(lp1527
a(lp1528
a(lp1529
a(lp1530
a(lp1531
a(lp1532
a(lp1533
I935
aI2259
aI3094
aa(lp1534
I935
aI2259
aI3094
aa(lp1535
I1489
aI2141
aa(lp1536
I1489
aI2141
aa(lp1537
a(lp1538
I1489
aI2141
aI1314
aI2513
aa(lp1539
I1489
aI2141
aI3007
aI1314
aI2513
aI2962
aI104
aa(lp1540
a(lp1541
a(lp1542
a(lp1543
a(lp1544
a(lp1545
a(lp1546
a(lp1547
I1314
aI4402
aa(lp1548
I1641
aI4402
aI1992
aI2962
aI2088
aI2171
aa(lp1549
I1641
aI4402
aI1992
aI2962
aI2088
aI2171
aa(lp1550
I989
aI1456
aa(lp1551
a(lp1552
I1220
aI1489
aI1314
aI2507
aI1513
aI2141
aI3007
aI4155
aI1658
aI2962
aI4419
aI1915
aI2513
aI4288
aI881
aI4322
aa(lp1553
a(lp1554
a(lp1555
I1513
aI1220
aa(lp1556
I1314
aI2507
aI1458
aI2962
aI1489
aI1513
aI2141
aI1713
aI1775
aI2513
aI4419
aa(lp1557
I1220
aI1489
aI1314
aI1513
aI2141
aI1658
aI2962
aI2513
aI2983
aa(lp1558
I2141
aI3007
aa(lp1559
a(lp1560
I1513
aI1220
aa(lp1561
I1513
aI1220
aa(lp1562
I1513
aI1220
aI2507
aI3007
aI2513
aa(lp1563
a(lp1564
I1220
aI1489
aI1314
aI1513
aI2141
aI3007
aI4155
aI1658
aI2171
aI2962
aI2513
aI104
aa(lp1565
I1220
aI1489
aI1314
aI1513
aI2141
aI3007
aI4155
aI1658
aI2171
aI2962
aI2513
aI104
aa(lp1566
I1314
aI2507
aI1458
aI2962
aI1489
aI1513
aI2141
aI1909
aI1775
aI2010
aI1947
aI2513
aI2983
aa(lp1567
I1513
aI1220
aI1658
aI2141
aI2507
aI2962
aI2513
aI3007
aa(lp1568
a(lp1569
a(lp1570
I267
aI1456
aI386
aI104
aI2141
aI2962
aI3007
aI4155
aI441
aI1658
aI442
aI1513
aI2513
aI450
aI451
aI1125
aI1126
aI1252
aI1672
aI1220
aI2507
aI1941
aI1942
aI2404
aI2405
aI3008
aI3056
aI3068
aI3069
aa(lp1571
I989
aI1456
aa(lp1572
I1220
aI1489
aI1314
aI2507
aI1458
aI2962
aI4155
aI1513
aI2141
aI1658
aI4419
aI2513
aa(lp1573
I1658
aI2141
aI2507
aI2962
aI3007
aa(lp1574
I1658
aI2141
aI2507
aI2962
aI2513
aI3007
aI2259
aa(lp1575
I1658
aI2141
aI2507
aI2962
aI2513
aI3007
aI2259
aa(lp1576
I1430
aI1450
aa(lp1577
I1430
aI1450
aa(lp1578
I1489
aI1513
aI2141
aI3007
aI1658
aI2507
aI2962
aI2513
aa(lp1579
I1220
aI1489
aI1314
aI2507
aI1458
aI2962
aI1513
aI2141
aI3007
aI1658
aI2513
aI2983
aa(lp1580
I2088
aI2010
aI2171
aI3007
aI2962
aa(lp1581
I1050
aI3007
aI2141
aI2962
aa(lp1582
I989
aI1220
aI1456
aI2507
aI4233
aI1450
aI1513
aI2419
aI2010
aI2141
aI3007
aa(lp1583
I104
aI4322
aI1489
aI1513
aI2141
aI4155
aI1672
aI2088
aI2010
aI2513
aI2962
aI2507
aI881
aI3520
aa(lp1584
a(lp1585
a(lp1586
I1489
aI1513
aI2141
aI3007
aI2088
aI2010
aI2962
aI2507
aa(lp1587
a(lp1588
a(lp1589
I1430
aI1450
aa(lp1590
I1489
aI1513
aI2141
aI3007
aI1658
aI2962
aa(lp1591
I3007
aI2962
aa(lp1592
a(lp1593
a(lp1594
I1489
aI1513
aI1713
aa(lp1595
a(lp1596
a(lp1597
a(lp1598
I104
aI2178
aI4322
aa(lp1599
I104
aI2178
aI4322
aI1992
aa(lp1600
I989
aI1456
aI1489
aI2141
aa(lp1601
a(lp1602
I104
aI4322
aa(lp1603
I104
aI4322
aa(lp1604
a(lp1605
I104
aI2178
aI4322
aI1713
aI3520
aI2259
aI2513
aI2962
aa(lp1606
a(lp1607
a(lp1608
a(lp1609
a(lp1610
a(lp1611
a(lp1612
a(lp1613
a(lp1614
a(lp1615
I1050
aI2466
aa(lp1616
a(lp1617
a(lp1618
a(lp1619
a(lp1620
a(lp1621
I2088
aI2010
aa(lp1622
I2088
aI2010
aa(lp1623
I2088
aI2010
aa(lp1624
I2141
aI1450
aI3007
aI3362
aI109
aa(lp1625
I109
aI2617
aI3520
aI4155
aI4233
aI1314
aI2259
aI104
aa(lp1626
a(lp1627
a(lp1628
a(lp1629
a(lp1630
a(lp1631
a(lp1632
a(lp1633
a(lp1634
a(lp1635
a(lp1636
a(lp1637
a(lp1638
a(lp1639
a(lp1640
a(lp1641
a(lp1642
I441
aI1658
aI442
aI503
aI4402
aI506
aI748
aI784
aI785
aI1547
aI1548
aI1654
aI1655
aa(lp1643
a(lp1644
a(lp1645
a(lp1646
a(lp1647
a(lp1648
a(lp1649
a(lp1650
a(lp1651
a(lp1652
a(lp1653
a(lp1654
a(lp1655
I355
aI4233
aI1658
aI1641
aa(lp1656
I355
aI4233
aI1658
aI1641
aa(lp1657
a(lp1658
a(lp1659
I94
aI2507
aI4155
aI170
aI2141
aI2962
aI263
aI4419
aI348
aI1672
aI349
aI361
aI362
aI410
aI1489
aI422
aI431
aI1314
aI436
aI441
aI1569
aI1641
aI2171
aI442
aI452
aI471
aI506
aI513
aI514
aI776
aI1490
aI777
aI784
aI785
aI835
aI836
aI837
aI885
aI888
aI889
aI890
aI936
aI1005
aI1006
aI1007
aI1093
aI1287
aI1288
aI1289
aI1292
aI1412
aI1493
aI1495
aI1520
aI1551
aI1556
aI1563
aI1564
aI1566
aI1571
aI1572
aI1573
aI1574
aI1577
aI1578
aI1589
aI1654
aI1655
aI1666
aI1670
aI1671
aI1673
aI1674
aI1678
aI1679
aa(lp1660
a(lp1661
a(lp1662
a(lp1663
a(lp1664
a(lp1665
I3565
aI2466
aa(lp1666
a(lp1667
I1658
aI2141
aa(lp1668
a(lp1669
a(lp1670
a(lp1671
I1658
aI2141
aI3007
aI2419
aI355
aI2707
aa(lp1672
I1658
aI2141
aI3007
aI2419
aI355
aI2707
aa(lp1673
I348
aI355
aI1658
aI349
aI504
aI2419
aI1093
aI2141
aI3007
aI1252
aI1569
aI1582
aI2707
aI2404
aI2405
aI3068
aI3069
aa(lp1674
I1314
aI2507
aI1458
aI2962
aI1489
aI2141
aI1658
aI2513
aa(lp1675
I1658
aI2141
aI2962
aI4155
aI2513
aI3007
aI104
aa(lp1676
I1909
aI1775
aa(lp1677
a(lp1678
a(lp1679
I1489
aI2141
aI1658
aI1927
aa(lp1680
I1489
aI2141
aI1658
aI1927
aa(lp1681
a(lp1682
a(lp1683
a(lp1684
a(lp1685
a(lp1686
a(lp1687
a(lp1688
I2876
aI2259
aa(lp1689
a(lp1690
a(lp1691
a(lp1692
a(lp1693
a(lp1694
a(lp1695
a(lp1696
a(lp1697
I3565
aI3558
aa(lp1698
a(lp1699
a(lp1700
a(lp1701
a(lp1702
a(lp1703
a(lp1704
a(lp1705
a(lp1706
I104
aI2178
aI4322
aI2259
aa(lp1707
a(lp1708
a(lp1709
I532
aI3799
aa(lp1710
a(lp1711
a(lp1712
a(lp1713
a(lp1714
I85
aI3520
aI263
aI2507
aI296
aI104
aI2178
aI4322
aI327
aI384
aI434
aI435
aI481
aI515
aI1489
aI749
aI1775
aI834
aI840
aI841
aI888
aI889
aI890
aI1093
aI1102
aI1169
aI1462
aI1825
aI1555
aI1593
aI1604
aI1716
aI1717
aI1723
aI1747
aI1744
aI1753
aI1754
aI1782
aI1784
aI1785
aI1789
aI1800
aI1801
aI1805
aI1806
aI1834
aI1855
aI1873
aI1880
aI1881
aa(lp1715
a(lp1716
a(lp1717
I1713
aI3520
aa(lp1718
I1713
aI2178
aa(lp1719
a(lp1720
a(lp1721
a(lp1722
I4220
aI2707
aa(lp1723
I4220
aI2707
aa(lp1724
I1747
aI1713
aa(lp1725
a(lp1726
a(lp1727
a(lp1728
a(lp1729
a(lp1730
a(lp1731
a(lp1732
a(lp1733
a(lp1734
a(lp1735
a(lp1736
a(lp1737
a(lp1738
a(lp1739
I935
aI2259
aI3094
aa(lp1740
I935
aI2259
aI3094
aa(lp1741
a(lp1742
a(lp1743
a(lp1744
I989
aI1456
aa(lp1745
I1713
aI104
aa(lp1746
a(lp1747
a(lp1748
I1723
aI1713
aa(lp1749
a(lp1750
a(lp1751
a(lp1752
a(lp1753
a(lp1754
I1713
aI2178
aI4322
aa(lp1755
I1450
aI1456
aI1475
aI2962
aI1713
aI4322
aa(lp1756
a(lp1757
a(lp1758
a(lp1759
a(lp1760
a(lp1761
a(lp1762
a(lp1763
a(lp1764
a(lp1765
a(lp1766
a(lp1767
a(lp1768
a(lp1769
a(lp1770
a(lp1771
a(lp1772
a(lp1773
a(lp1774
a(lp1775
a(lp1776
I7
aI1909
aI1924
aI8
aI218
aI279
aI447
aI749
aI1713
aI773
aI893
aI992
aI1381
aI1555
aI1565
aI1675
aI1899
aI1900
aI1901
aI1905
aI1906
aI1907
aI1908
aI1910
aI1911
aI1912
aI1915
aI1916
aI1917
aI1918
aa(lp1777
a(lp1778
a(lp1779
a(lp1780
a(lp1781
a(lp1782
I2457
aI935
aa(lp1783
I1713
aI2178
aa(lp1784
a(lp1785
I1713
aI2507
aI3007
aa(lp1786
I1713
aI2507
aa(lp1787
a(lp1788
a(lp1789
a(lp1790
I935
aI4233
aI1713
aI2507
aI2513
aa(lp1791
a(lp1792
a(lp1793
a(lp1794
I1915
aI2513
aa(lp1795
a(lp1796
a(lp1797
a(lp1798
a(lp1799
a(lp1800
a(lp1801
I104
aI2178
aI4322
aI1713
aa(lp1802
I104
aI2178
aI4322
aI1713
aa(lp1803
a(lp1804
a(lp1805
a(lp1806
I1713
aI1489
aa(lp1807
I1314
aI2507
aI1489
aI2141
aI3007
aI4155
aI1713
aI2513
aI2962
aI4288
aa(lp1808
a(lp1809
I989
aI2513
aa(lp1810
a(lp1811
a(lp1812
a(lp1813
a(lp1814
a(lp1815
a(lp1816
a(lp1817
a(lp1818
a(lp1819
a(lp1820
I291
aI2513
aI1915
aI1924
aI3094
aI2417
aI3750
aa(lp1821
I291
aI2513
aI935
aI2259
aI3094
aa(lp1822
a(lp1823
a(lp1824
a(lp1825
a(lp1826
I1462
aI1713
aa(lp1827
I935
aI2259
aI3094
aa(lp1828
I2141
aI1450
aI2513
aI3007
aa(lp1829
I2171
aI1450
aa(lp1830
a(lp1831
I291
aI2513
aI935
aI2259
aI3094
aa(lp1832
a(lp1833
a(lp1834
a(lp1835
I104
aI2466
aI1713
aa(lp1836
a(lp1837
a(lp1838
a(lp1839
a(lp1840
a(lp1841
a(lp1842
a(lp1843
a(lp1844
a(lp1845
I2088
aI2010
aa(lp1846
a(lp1847
a(lp1848
a(lp1849
a(lp1850
I4060
aI3094
aa(lp1851
a(lp1852
a(lp1853
a(lp1854
a(lp1855
a(lp1856
I1713
aI3520
aI2419
aa(lp1857
I2141
aI1450
aI2513
aI3007
aa(lp1858
a(lp1859
a(lp1860
a(lp1861
a(lp1862
a(lp1863
a(lp1864
a(lp1865
a(lp1866
a(lp1867
a(lp1868
a(lp1869
I989
aI1456
aI4155
aI1475
aI2962
aI2171
aa(lp1870
I989
aI1456
aI4155
aI1475
aI2962
aI2171
aa(lp1871
a(lp1872
a(lp1873
a(lp1874
I1713
aI2507
aI3094
aa(lp1875
a(lp1876
a(lp1877
a(lp1878
a(lp1879
a(lp1880
a(lp1881
I1713
aI1489
aa(lp1882
I1489
aI2141
aI3007
aI4155
aI1713
aI104
aI2507
aI2513
aI2962
aI4419
aI881
aa(lp1883
I291
aI2513
aI935
aI2259
aI3094
aa(lp1884
a(lp1885
a(lp1886
a(lp1887
a(lp1888
a(lp1889
a(lp1890
a(lp1891
a(lp1892
a(lp1893
a(lp1894
a(lp1895
a(lp1896
a(lp1897
a(lp1898
a(lp1899
a(lp1900
I1909
aI1775
aa(lp1901
I1909
aI1775
aa(lp1902
I989
aI1456
aI1909
aI1775
aa(lp1903
a(lp1904
a(lp1905
a(lp1906
I1909
aI1775
aI1924
aa(lp1907
I1909
aI1775
aa(lp1908
I1909
aI1775
aI2507
aI2962
aI2513
aI1220
aa(lp1909
I1909
aI1775
aa(lp1910
I7
aI1775
aI1924
aI8
aI218
aI279
aI447
aI773
aI893
aI992
aI1381
aI1565
aI1675
aI1899
aI1900
aI1901
aI1905
aI1906
aI1907
aI1908
aI1910
aI1911
aI1912
aI1915
aI1916
aI1917
aI1918
aI2397
aI3497
aa(lp1911
I1909
aI1775
aa(lp1912
I1909
aI1775
aa(lp1913
I1909
aI1775
aa(lp1914
a(lp1915
a(lp1916
I197
aI2141
aI536
aI910
aI752
aI1489
aI776
aI777
aI2513
aI852
aI860
aI885
aI886
aI2507
aI887
aI888
aI889
aI890
aI936
aI1005
aI1006
aI1007
aI1102
aI1132
aI2010
aI1138
aI1220
aI2962
aI1143
aI1368
aI1385
aI1386
aI1505
aI1506
aI4155
aI1518
aI1519
aI1551
aI3007
aI1793
aI1819
aI1909
aI1775
aI2969
aI3020
aI3039
aI3040
aI3041
aI3106
aI3112
aI3126
aI3127
aI3128
aI3134
aI3135
aI3136
aa(lp1917
I1909
aI1775
aI2962
aI4155
aa(lp1918
I1909
aI1775
aa(lp1919
I1909
aI1775
aI2507
aI2962
aa(lp1920
a(lp1921
a(lp1922
a(lp1923
a(lp1924
a(lp1925
I7
aI1775
aI1909
aI3944
aI8
aI536
aI910
aI600
aI777
aI3094
aI852
aI888
aI890
aI936
aI1102
aI1819
aI1905
aI2397
aI2618
aI2970
aI3497
aI3946
aI3947
aa(lp1926
a(lp1927
a(lp1928
I441
aI2141
aI442
aI455
aI844
aI1358
aI1359
aI1365
aI1678
aI1679
aI1936
aI2466
aI1937
aI1938
aI1944
aa(lp1929
a(lp1930
a(lp1931
a(lp1932
a(lp1933
a(lp1934
a(lp1935
a(lp1936
a(lp1937
I1927
aI2466
aI1947
aI3362
aI109
aa(lp1938
I1927
aI2466
aI1947
aI3362
aI109
aa(lp1939
I1927
aI2141
aI2962
aa(lp1940
a(lp1941
a(lp1942
I1569
aI3007
aa(lp1943
I1569
aI3007
aa(lp1944
a(lp1945
I1050
aI2466
aI1927
aa(lp1946
a(lp1947
I2088
aI2010
aI2171
aa(lp1948
I180
aI113
aI181
aI216
aI573
aI446
aI1450
aI989
aI456
aI474
aI2466
aI583
aI589
aI615
aI616
aI648
aI656
aI657
aI697
aI718
aI888
aI1992
aI889
aI890
aI898
aI1207
aI1208
aI1336
aI2010
aI1337
aI1451
aI1565
aI1936
aI1937
aI1949
aI1962
aI1963
aI1970
aI1982
aI1983
aI1475
aI1984
aI2001
aI2002
aI2003
aI2008
aI2009
aI2011
aI2032
aI2042
aI2043
aa(lp1949
a(lp1950
I1947
aI113
aI2466
aa(lp1951
a(lp1952
a(lp1953
a(lp1954
a(lp1955
a(lp1956
a(lp1957
a(lp1958
a(lp1959
a(lp1960
a(lp1961
a(lp1962
a(lp1963
I1947
aI2466
aa(lp1964
I1947
aI2466
aa(lp1965
a(lp1966
a(lp1967
a(lp1968
a(lp1969
a(lp1970
a(lp1971
I2010
aI1947
aI2088
aI2171
aa(lp1972
a(lp1973
a(lp1974
a(lp1975
a(lp1976
a(lp1977
a(lp1978
a(lp1979
a(lp1980
a(lp1981
a(lp1982
a(lp1983
I104
aI2466
aI1050
aI1456
aI1947
aa(lp1984
I1450
aI355
aI1947
aI1475
aa(lp1985
I1450
aI355
aI1947
aI1475
aa(lp1986
a(lp1987
a(lp1988
a(lp1989
a(lp1990
a(lp1991
a(lp1992
a(lp1993
I112
aI2178
aI2962
aI131
aI400
aI167
aI402
aI403
aI404
aI405
aI410
aI1489
aI422
aI424
aI426
aI441
aI748
aI752
aI776
aI777
aI834
aI853
aI854
aI885
aI888
aI1947
aI889
aI890
aI898
aI936
aI1005
aI1006
aI1007
aI1102
aI1143
aI1368
aI1369
aI1370
aI1518
aI4432
aI1519
aI1547
aI1548
aI1598
aI2042
aI2043
aI2049
aI2050
aI2051
aa(lp1994
a(lp1995
a(lp1996
a(lp1997
a(lp1998
a(lp1999
a(lp2000
a(lp2001
a(lp2002
I989
aI1456
aI4155
aI1450
aI1947
aI1475
aa(lp2003
I1050
aI2466
aI1947
aI1475
aa(lp2004
I1050
aI2466
aI1947
aI1475
aa(lp2005
a(lp2006
a(lp2007
a(lp2008
a(lp2009
I1947
aI113
aa(lp2010
I1947
aI113
aa(lp2011
I369
aI2466
aI441
aI2088
aI442
aI469
aI632
aI504
aI2419
aI520
aI521
aI523
aI524
aI527
aI528
aI529
aI633
aI725
aI1132
aI1915
aI1310
aI1336
aI1947
aI1337
aI1377
aI2315
aI1404
aI1405
aI1407
aI1408
aI1435
aI2242
aI1436
aI1439
aI1440
aI1445
aI1446
aI1457
aI1473
aI1565
aI1579
aI1581
aI1582
aI1585
aI1620
aI1621
aI1622
aI1844
aI1946
aI1970
aI1050
aI2070
aI2076
aI2080
aI2081
aI2082
aI2083
aI2084
aI2085
aI2089
aI2090
aI2092
aI2093
aI2094
aI2105
aI2106
aI2109
aI2110
aI2112
aI2114
aI2115
aI2118
aI2127
aI2128
aI2129
aI2132
aI2133
aI2134
aa(lp2012
I1050
aI2466
aI1947
aa(lp2013
a(lp2014
a(lp2015
a(lp2016
a(lp2017
a(lp2018
a(lp2019
a(lp2020
a(lp2021
a(lp2022
a(lp2023
a(lp2024
a(lp2025
a(lp2026
I1489
aI2141
aa(lp2027
a(lp2028
a(lp2029
a(lp2030
a(lp2031
a(lp2032
a(lp2033
I1947
aI113
aa(lp2034
a(lp2035
a(lp2036
a(lp2037
a(lp2038
a(lp2039
a(lp2040
a(lp2041
a(lp2042
a(lp2043
I1489
aI2141
aI1992
aI1947
aa(lp2044
I1489
aI2141
aI1992
aI1947
aa(lp2045
a(lp2046
a(lp2047
a(lp2048
a(lp2049
a(lp2050
I1489
aI2141
aI1992
aI3357
aI3799
aa(lp2051
I1489
aI2141
aI1992
aI3357
aI3799
aa(lp2052
I1489
aI2141
aI1992
aI3357
aI3799
aa(lp2053
a(lp2054
a(lp2055
a(lp2056
a(lp2057
a(lp2058
a(lp2059
a(lp2060
a(lp2061
a(lp2062
a(lp2063
a(lp2064
a(lp2065
a(lp2066
I989
aI2513
aa(lp2067
a(lp2068
a(lp2069
a(lp2070
a(lp2071
I2010
aI2466
aa(lp2072
a(lp2073
a(lp2074
a(lp2075
I989
aI2507
aI2141
aI3094
aa(lp2076
I989
aI2507
aI2141
aa(lp2077
I2088
aI2010
aI2171
aa(lp2078
I989
aI4155
aa(lp2079
a(lp2080
a(lp2081
I2088
aI2010
aa(lp2082
I2088
aI2010
aa(lp2083
I2088
aI2010
aI2171
aa(lp2084
I2088
aI2010
aI2171
aa(lp2085
I2088
aI2010
aa(lp2086
I2088
aI2010
aa(lp2087
I2171
aI4155
aa(lp2088
I2171
aI4155
aa(lp2089
I441
aI2010
aI2171
aI442
aI449
aI2656
aI503
aI504
aI540
aI541
aI542
aI545
aI546
aI553
aI554
aI560
aI218
aI561
aI562
aI563
aI614
aI632
aI633
aI695
aI725
aI776
aI688
aI844
aI880
aI888
aI1136
aI1310
aI1336
aI1337
aI1404
aI1405
aI1445
aI1446
aI1457
aI1473
aI1547
aI1548
aI1579
aI1582
aI3520
aI1585
aI1620
aI1621
aI1622
aI1844
aI1946
aI1970
aI2076
aI2080
aI2081
aI2082
aI2083
aI2084
aI2085
aI2089
aI2090
aI2092
aI2093
aI2094
aI2109
aI2112
aI2114
aI2115
aI2127
aI2128
aI2129
aI2132
aI2133
aI2134
aI2508
aI2949
aI2950
aI3446
aI3447
aa(lp2090
I2088
aI2010
aI2171
aa(lp2091
I2088
aI2010
aI2171
aa(lp2092
a(lp2093
I2088
aI2010
aI2171
aI1450
aa(lp2094
I2088
aI2010
aI2171
aI1450
aa(lp2095
I2088
aI2010
aI2171
aI1450
aa(lp2096
a(lp2097
I2141
aI2513
aI3007
aa(lp2098
a(lp2099
a(lp2100
a(lp2101
a(lp2102
I3799
aI3520
aa(lp2103
a(lp2104
I3799
aI3520
aa(lp2105
I989
aI1456
aI2513
aI1450
aI1489
aI2141
aI3007
aa(lp2106
I2010
aI2242
aa(lp2107
I2010
aI2242
aa(lp2108
a(lp2109
a(lp2110
I989
aI1456
aI4155
aI1450
aI2088
aI2010
aI2171
aa(lp2111
I2010
aI2466
aa(lp2112
I989
aI1456
aa(lp2113
I2088
aI2010
aa(lp2114
a(lp2115
I2088
aI2010
aI2171
aa(lp2116
I2088
aI2010
aI2171
aa(lp2117
a(lp2118
a(lp2119
I2010
aI2466
aI3565
aa(lp2120
a(lp2121
a(lp2122
a(lp2123
a(lp2124
a(lp2125
a(lp2126
a(lp2127
I1450
aI1456
aI2141
aI3007
aI2171
aa(lp2128
I2088
aI2010
aa(lp2129
I2088
aI2010
aa(lp2130
I2088
aI2010
aa(lp2131
a(lp2132
a(lp2133
I2088
aI2010
aI2171
aI2141
aI2962
aa(lp2134
I2088
aI2010
aI2171
aa(lp2135
I2088
aI2010
aI2171
aa(lp2136
I1430
aI1450
aa(lp2137
I1489
aI1450
aI2141
aI3007
aa(lp2138
a(lp2139
I989
aI1456
aI2507
aI1450
aI355
aI1475
aI2962
aI104
aa(lp2140
I989
aI1456
aI1450
aa(lp2141
a(lp2142
I61
aI4233
aI156
aI2962
aI157
aI170
aI1658
aI2513
aI3007
aI2507
aI171
aI197
aI1915
aI297
aI1489
aI1314
aI298
aI1450
aI2617
aI299
aI300
aI373
aI374
aI385
aI386
aI1569
aI410
aI417
aI418
aI422
aI434
aI435
aI436
aI441
aI1927
aI442
aI447
aI448
aI449
aI4419
aI452
aI455
aI2419
aI483
aI515
aI590
aI659
aI752
aI776
aI777
aI821
aI833
aI835
aI836
aI837
aI844
aI855
aI885
aI888
aI889
aI890
aI936
aI993
aI994
aI1005
aI1006
aI1007
aI1040
aI1093
aI1672
aI1102
aI1106
aI1107
aI1138
aI1227
aI1243
aI1244
aI1268
aI1292
aI1294
aI1351
aI1358
aI1359
aI1365
aI1376
aI1377
aI1473
aI1487
aI1514
aI1520
aI1521
aI1522
aI1534
aI1535
aI1537
aI1538
aI1551
aI1555
aI1556
aI1557
aI1563
aI1564
aI1565
aI1566
aI1571
aI1572
aI1573
aI1574
aI1577
aI1578
aI1580
aI1581
aI1582
aI1585
aI1589
aI1599
aI1623
aI1666
aI1670
aI1671
aI1673
aI1674
aI1678
aI1679
aI1806
aI1827
aI1856
aI1881
aI1938
aI2025
aI2042
aI2043
aI2049
aI2050
aI2051
aI2074
aI2075
aI2096
aI2104
aI2126
aI2132
aI2136
aI2150
aI2159
aI2160
aI2162
aI2208
aI2461
aI2462
aI2514
aI2831
aI2969
aI2997
aI2998
aI2999
aI3008
aI3009
aI3010
aI3020
aI3021
aI3022
aI3024
aI3025
aI3031
aI3032
aI3034
aI3035
aI3036
aI3037
aI3038
aI3039
aI3040
aI3041
aI3042
aI3043
aI3044
aI3045
aI3048
aI3049
aI3054
aa(lp2143
I989
aI2507
aI1450
aa(lp2144
a(lp2145
a(lp2146
a(lp2147
I989
aI1456
aI4155
aI1450
aa(lp2148
I989
aI1456
aI1450
aI2690
aI2242
aa(lp2149
I1450
aI355
aa(lp2150
I291
aI4233
aI935
aI3094
aa(lp2151
I2141
aI1450
aI2513
aI3007
aa(lp2152
a(lp2153
I1450
aI989
aa(lp2154
I1450
aI1456
aI4155
aI2417
aI935
aa(lp2155
I1450
aI1456
aI4155
aI2417
aI935
aa(lp2156
I989
aI1456
aI1450
aa(lp2157
I989
aI1456
aI1450
aa(lp2158
a(lp2159
a(lp2160
I2141
aI1450
aI3007
aa(lp2161
I2141
aI1450
aI3007
aa(lp2162
a(lp2163
I989
aI2507
aI1450
aI2141
aI3007
aa(lp2164
a(lp2165
a(lp2166
I104
aI2178
aI4322
aI2457
aI4233
aa(lp2167
a(lp2168
a(lp2169
a(lp2170
I1450
aI4155
aa(lp2171
a(lp2172
I112
aI1450
aI330
aI4155
aI441
aI1658
aI2088
aI442
aI503
aI506
aI523
aI524
aI614
aI632
aI633
aI695
aI777
aI780
aI782
aI784
aI785
aI830
aI844
aI885
aI888
aI936
aI1136
aI1336
aI1337
aI1404
aI1405
aI1407
aI1408
aI1420
aI1445
aI1446
aI1457
aI1520
aI1547
aI1548
aI1563
aI1564
aI1579
aI1828
aI1868
aI1869
aI1946
aI1970
aI2076
aI2082
aI2083
aI2086
aI2087
aI2089
aI2090
aI2092
aI2093
aI2094
aI2109
aI2114
aI2115
aI2126
aI2132
aI2133
aI2134
aI2184
aI2185
aI2508
aI2949
aI2950
aI3446
aI3447
aa(lp2173
a(lp2174
a(lp2175
a(lp2176
I104
aI4322
aa(lp2177
I104
aI4322
aa(lp2178
I2457
aI4233
aa(lp2179
I26
aI104
aI2259
aI27
aI28
aI94
aI105
aI112
aI1992
aI143
aI167
aI289
aI291
aI292
aI294
aI295
aI296
aI1713
aI323
aI335
aI336
aI377
aI380
aI384
aI417
aI418
aI430
aI434
aI435
aI447
aI448
aI455
aI483
aI503
aI1458
aI753
aI754
aI771
aI780
aI781
aI782
aI798
aI801
aI829
aI830
aI834
aI840
aI841
aI870
aI935
aI934
aI993
aI994
aI1091
aI1094
aI1095
aI1097
aI1098
aI1114
aI1138
aI1169
aI1189
aI1190
aI1207
aI1208
aI1280
aI1287
aI1288
aI1289
aI1304
aI1305
aI1306
aI1376
aI1414
aI1469
aI1506
aI1518
aI1519
aI1525
aI1597
aI1598
aI1604
aI1705
aI1717
aI1753
aI1782
aI1800
aI1801
aI2165
aI2179
aI2180
aI2181
aI2182
aI2184
aI2242
aI2185
aI2186
aI2188
aI2204
aI2205
aI2206
aI2207
aI2209
aI2217
aI2221
aI2222
aI2223
aI2224
aI2231
aI2232
aI2236
aI2237
aI2239
aI2240
aI2257
aI2258
aI2261
aI2262
aI2263
aI2264
aI2269
aI2271
aI2272
aI2273
aI2281
aI2282
aI2292
aI2294
aI2295
aI2296
aa(lp2180
I291
aI2178
aa(lp2181
I291
aI2178
aa(lp2182
I104
aI2178
aa(lp2183
I104
aI2178
aa(lp2184
a(lp2185
I104
aI2178
aI4322
aI2171
aI4155
aI2242
aI2457
aI4233
aa(lp2186
I104
aI2178
aI4322
aI2171
aI4155
aI2242
aI2457
aI4233
aa(lp2187
I104
aI2178
aI355
aI2457
aI4233
aI2259
aa(lp2188
a(lp2189
I104
aI2178
aI4322
aI2507
aa(lp2190
a(lp2191
I2457
aI4233
aa(lp2192
I2457
aI4233
aa(lp2193
a(lp2194
a(lp2195
a(lp2196
a(lp2197
a(lp2198
a(lp2199
a(lp2200
a(lp2201
a(lp2202
a(lp2203
I2457
aI4233
aa(lp2204
a(lp2205
I104
aI2178
aI4322
aI2507
aa(lp2206
I104
aI2178
aI4322
aI2507
aa(lp2207
I104
aI2178
aI4322
aa(lp2208
I104
aI2178
aI4322
aI2419
aI355
aI2507
aa(lp2209
I2141
aI2962
aI3007
aI2507
aa(lp2210
I104
aI2178
aI4322
aI2457
aI4233
aa(lp2211
a(lp2212
a(lp2213
a(lp2214
a(lp2215
I355
aI2457
aI4233
aa(lp2216
I355
aI2457
aI4233
aa(lp2217
a(lp2218
I104
aI2178
aI4322
aI989
aI4155
aa(lp2219
a(lp2220
a(lp2221
a(lp2222
I2259
aI2178
aI4322
aa(lp2223
I104
aI2178
aI4322
aa(lp2224
I104
aI2178
aI4322
aI4233
aI4220
aa(lp2225
I291
aI2178
aa(lp2226
I355
aI2457
aI4233
aa(lp2227
a(lp2228
a(lp2229
a(lp2230
a(lp2231
a(lp2232
I291
aI2178
aI4322
aa(lp2233
I291
aI2178
aI4322
aa(lp2234
a(lp2235
a(lp2236
a(lp2237
I104
aI2178
aI2466
aI2242
aa(lp2238
I104
aI2178
aI2466
aI2242
aa(lp2239
a(lp2240
I104
aI2178
aI4322
aa(lp2241
I104
aI2178
aI2417
aI3750
aa(lp2242
a(lp2243
I150
aI1513
aI513
aI2557
aI514
aI790
aI2707
aI972
aI1127
aI1082
aI1133
aI2617
aI1153
aI1435
aI2010
aI1436
aI2105
aI2106
aI2147
aI2690
aI2184
aI2178
aI4322
aI2185
aI2236
aI2237
aI2257
aI2258
aI2281
aI2282
aI2510
aI2511
aI2537
aI1238
aI2538
aI2551
aI2582
aI2583
aI2589
aI2590
aI2666
aI2667
aa(lp2244
a(lp2245
a(lp2246
a(lp2247
a(lp2248
a(lp2249
a(lp2250
a(lp2251
a(lp2252
a(lp2253
I2513
aI4322
aa(lp2254
a(lp2255
a(lp2256
a(lp2257
a(lp2258
I2242
aI2178
aa(lp2259
I2242
aI2178
aa(lp2260
I26
aI104
aI2178
aI4322
aI84
aI935
aI108
aI112
aI143
aI323
aI348
aI349
aI417
aI418
aI430
aI2507
aI434
aI435
aI438
aI2770
aI447
aI448
aI452
aI1220
aI455
aI483
aI658
aI749
aI777
aI797
aI819
aI934
aI936
aI993
aI994
aI1138
aI1189
aI1190
aI1207
aI1208
aI1376
aI1414
aI1417
aI1507
aI1508
aI1532
aI1533
aI1573
aI1574
aI1604
aI1624
aI1687
aI2876
aI1705
aI1738
aI1739
aI1820
aI1826
aI1830
aI1882
aI2186
aI2221
aI2272
aI2273
aI2392
aI2402
aI2420
aI2425
aI2426
aI2427
aI2428
aI2430
aI2439
aI2482
aI2509
aI2729
aI2735
aI2761
aI2768
aI2769
aI2771
aI2793
aI2803
aI2804
aI2833
aI2834
aa(lp2261
a(lp2262
I104
aI2178
aI4322
aI355
aI2457
aI989
aI1456
aa(lp2263
I104
aI2178
aI4322
aI355
aI2457
aa(lp2264
I104
aI2178
aI4322
aI355
aI2457
aI989
aI1456
aa(lp2265
I104
aI2178
aI4322
aI355
aI2457
aI989
aI1456
aa(lp2266
a(lp2267
a(lp2268
a(lp2269
a(lp2270
I104
aI2178
aI4322
aa(lp2271
I2457
aI4233
aa(lp2272
I104
aI2178
aI4322
aa(lp2273
I2259
aI2178
aa(lp2274
I2259
aI2178
aa(lp2275
a(lp2276
a(lp2277
a(lp2278
a(lp2279
a(lp2280
a(lp2281
a(lp2282
I2242
aI2178
aa(lp2283
I2242
aI2178
aa(lp2284
a(lp2285
I3520
aI4220
aI4322
aa(lp2286
a(lp2287
a(lp2288
a(lp2289
a(lp2290
a(lp2291
a(lp2292
a(lp2293
I104
aI2178
aI291
aa(lp2294
a(lp2295
I104
aI2178
aI4322
aa(lp2296
I104
aI2178
aI4322
aa(lp2297
I104
aI2178
aI4322
aa(lp2298
I989
aI1456
aa(lp2299
a(lp2300
a(lp2301
a(lp2302
a(lp2303
I291
aI2513
aa(lp2304
a(lp2305
a(lp2306
a(lp2307
a(lp2308
a(lp2309
a(lp2310
a(lp2311
a(lp2312
a(lp2313
a(lp2314
I291
aI2513
aa(lp2315
a(lp2316
I155
aI291
aI1377
aI2010
aI2352
aa(lp2317
a(lp2318
a(lp2319
a(lp2320
a(lp2321
a(lp2322
a(lp2323
a(lp2324
a(lp2325
a(lp2326
a(lp2327
a(lp2328
a(lp2329
a(lp2330
I291
aI2457
aI4233
aa(lp2331
I291
aI2457
aI4233
aa(lp2332
a(lp2333
a(lp2334
a(lp2335
a(lp2336
a(lp2337
a(lp2338
a(lp2339
a(lp2340
a(lp2341
a(lp2342
a(lp2343
a(lp2344
a(lp2345
a(lp2346
a(lp2347
a(lp2348
a(lp2349
a(lp2350
a(lp2351
a(lp2352
a(lp2353
I2315
aI291
aa(lp2354
a(lp2355
a(lp2356
a(lp2357
a(lp2358
a(lp2359
a(lp2360
I1050
aI2466
aa(lp2361
a(lp2362
a(lp2363
a(lp2364
a(lp2365
a(lp2366
a(lp2367
a(lp2368
a(lp2369
a(lp2370
a(lp2371
a(lp2372
a(lp2373
a(lp2374
I291
aI4233
aa(lp2375
a(lp2376
a(lp2377
a(lp2378
a(lp2379
a(lp2380
a(lp2381
a(lp2382
a(lp2383
a(lp2384
a(lp2385
a(lp2386
a(lp2387
a(lp2388
I935
aI104
aa(lp2389
a(lp2390
a(lp2391
a(lp2392
a(lp2393
I935
aI2259
aI2707
aa(lp2394
I2466
aI935
aa(lp2395
a(lp2396
a(lp2397
a(lp2398
I1924
aI1909
aa(lp2399
a(lp2400
a(lp2401
I2419
aI935
aa(lp2402
I2419
aI935
aa(lp2403
I935
aI2259
aa(lp2404
a(lp2405
I1569
aI1672
aa(lp2406
I1569
aI1672
aa(lp2407
a(lp2408
a(lp2409
a(lp2410
a(lp2411
a(lp2412
a(lp2413
a(lp2414
a(lp2415
a(lp2416
a(lp2417
a(lp2418
I167
aI3750
aI503
aI885
aI1102
aI1819
aI2153
aI935
aI2154
aI2240
aa(lp2419
I935
aI2707
aa(lp2420
I71
aI2507
aI72
aI97
aI429
aI3520
aI98
aI109
aI355
aI110
aI114
aI3565
aI136
aI214
aI3558
aI217
aI2707
aI249
aI302
aI338
aI431
aI432
aI935
aI444
aI445
aI446
aI455
aI1513
aI2141
aI2947
aI456
aI476
aI478
aI479
aI480
aI482
aI484
aI485
aI490
aI491
aI493
aI498
aI499
aI504
aI1672
aI2010
aI513
aI514
aI520
aI521
aI523
aI524
aI527
aI528
aI529
aI538
aI539
aI549
aI619
aI909
aI993
aI994
aI1106
aI1107
aI1124
aI1144
aI2959
aI1156
aI1427
aI1428
aI1581
aI1670
aI1671
aI1855
aI2207
aI2400
aI2401
aI2423
aI2424
aI2436
aI2489
aI2490
aI2508
aI2708
aI1454
aI2922
aI2960
aI2961
aI3219
aI3252
aI3268
aI3353
aI3354
aI3358
aI3359
aI3512
aI3513
aI3524
aI3525
aI3532
aI3533
aI3544
aI3545
aI3556
aI3557
aI3566
aI3570
aI3580
aI3581
aa(lp2421
I935
aI2259
aI2507
aa(lp2422
a(lp2423
a(lp2424
I2419
aI935
aa(lp2425
I2419
aI935
aa(lp2426
I935
aI2259
aI2466
aa(lp2427
I935
aI2259
aI2466
aa(lp2428
I935
aI2259
aI2707
aa(lp2429
I935
aI2259
aI2707
aa(lp2430
a(lp2431
I935
aI2259
aa(lp2432
a(lp2433
I1050
aI2466
aI935
aI3484
aI3478
aI3565
aa(lp2434
I2466
aI935
aa(lp2435
I2449
aI935
aa(lp2436
a(lp2437
I2419
aI935
aa(lp2438
a(lp2439
a(lp2440
I935
aI2259
aa(lp2441
I2457
aI935
aa(lp2442
a(lp2443
I935
aI3094
aa(lp2444
a(lp2445
a(lp2446
a(lp2447
a(lp2448
a(lp2449
a(lp2450
I749
aI935
aI2434
aa(lp2451
a(lp2452
a(lp2453
a(lp2454
a(lp2455
a(lp2456
a(lp2457
I935
aI4233
aa(lp2458
I146
aI1092
aI212
aI4233
aI271
aI272
aI278
aI279
aI291
aI292
aI312
aI317
aI328
aI339
aI340
aI355
aI373
aI374
aI385
aI386
aI398
aI432
aI935
aI471
aI685
aI791
aI798
aI826
aI2707
aI827
aI828
aI942
aI943
aI981
aI982
aI1000
aI1001
aI1045
aI1097
aI1098
aI1267
aI1278
aI1279
aI1298
aI1299
aI1314
aI1318
aI1476
aI1477
aI1525
aI1781
aI2165
aI2177
aI2184
aI2185
aI2186
aI2190
aI2191
aI2202
aI2209
aI2214
aI2215
aI2225
aI2261
aI2262
aI2263
aI2264
aI2270
aI2329
aI2330
aI2440
aI2482
aI2500
aI2647
aI3241
aI3242
aI3323
aI3605
aI3643
aI3704
aI3705
aI3718
aI3719
aI3720
aI3721
aI3723
aa(lp2459
a(lp2460
a(lp2461
I3799
aI3520
aa(lp2462
I2141
aI3007
aa(lp2463
I2141
aI3007
aa(lp2464
a(lp2465
a(lp2466
a(lp2467
I31
aI1050
aI3094
aI32
aI64
aI3750
aI65
aI573
aI97
aI104
aI98
aI105
aI140
aI935
aI141
aI332
aI369
aI2010
aI376
aI3565
aI426
aI520
aI521
aI1947
aI676
aI682
aI683
aI731
aI732
aI1456
aI1094
aI1095
aI1207
aI1208
aI1363
aI1407
aI1408
aI1413
aI1439
aI1440
aI1614
aI1664
aI1834
aI1936
aI1927
aI1937
aI1944
aI1949
aI1962
aI1963
aI1982
aI2002
aI2003
aI2011
aI2070
aI2110
aI2118
aI2236
aI2237
aI2359
aI2393
aI2425
aI2426
aI2432
aI3484
aI2433
aI2478
aI2484
aI2632
aI2633
aI2733
aI2734
aI2736
aI2737
aI2863
aI2864
aI2922
aI2942
aI2984
aI3107
aI3252
aI3482
aI3486
aI3487
aI3488
aI3505
aI3506
aI3622
aI3727
aI3728
aI3731
aI3737
aI3745
aI3749
aI3757
aI3758
aI3761
aI3777
aI3782
aI3784
aI3788
aa(lp2468
a(lp2469
a(lp2470
a(lp2471
a(lp2472
a(lp2473
a(lp2474
a(lp2475
a(lp2476
I935
aI3094
aa(lp2477
I935
aI3094
aa(lp2478
a(lp2479
I2466
aI935
aa(lp2480
a(lp2481
a(lp2482
a(lp2483
I935
aI2259
aI2457
aa(lp2484
a(lp2485
I2466
aI935
aa(lp2486
a(lp2487
a(lp2488
a(lp2489
a(lp2490
I2419
aI2507
aI104
aa(lp2491
I2419
aI2507
aI104
aa(lp2492
a(lp2493
I104
aI4322
aa(lp2494
a(lp2495
I104
aI4322
aa(lp2496
I104
aI4322
aa(lp2497
a(lp2498
I104
aI4322
aa(lp2499
I104
aI4322
aa(lp2500
I104
aI4322
aa(lp2501
I2457
aI4233
aa(lp2502
a(lp2503
a(lp2504
a(lp2505
a(lp2506
I104
aI4322
aI2507
aa(lp2507
a(lp2508
I71
aI2419
aI104
aI72
aI94
aI1092
aI1658
aI2513
aI170
aI291
aI2141
aI2962
aI3007
aI217
aI263
aI1713
aI292
aI297
aI1314
aI320
aI332
aI377
aI403
aI989
aI410
aI430
aI2259
aI480
aI504
aI658
aI750
aI755
aI756
aI773
aI809
aI833
aI3094
aI862
aI4288
aI886
aI1915
aI887
aI938
aI939
aI1040
aI1106
aI1107
aI1124
aI1161
aI1243
aI1244
aI1259
aI1260
aI1287
aI1288
aI1289
aI1294
aI1373
aI1374
aI1376
aI1377
aI1404
aI1405
aI1520
aI1521
aI1522
aI1551
aI1555
aI1561
aI1565
aI1566
aI1569
aI1571
aI1572
aI1573
aI1574
aI1577
aI1578
aI1581
aI1582
aI1585
aI1673
aI1784
aI1785
aI1789
aI1806
aI1873
aI1881
aI1907
aI1918
aI2074
aI2075
aI2138
aI2142
aI2162
aI2188
aI2204
aI2205
aI2207
aI2208
aI2420
aI2489
aI2490
aI2505
aI2514
aI2631
aI2964
aI2969
aI2982
aI2999
aI3008
aI3014
aI3020
aI3022
aI3032
aI3034
aI3091
aI3092
aI3097
aI3103
aa(lp2509
I2088
aI2171
aI2419
aI3520
aa(lp2510
I2259
aI104
aa(lp2511
I104
aI4322
aI2242
aa(lp2512
I104
aI4322
aI2242
aa(lp2513
a(lp2514
I43
aI291
aI44
aI94
aI104
aI2507
aI4155
aI4322
aI122
aI989
aI142
aI2962
aI170
aI2141
aI292
aI296
aI297
aI1489
aI381
aI410
aI417
aI424
aI431
aI1220
aI434
aI2983
aI435
aI442
aI1569
aI447
aI881
aI448
aI452
aI488
aI658
aI686
aI687
aI740
aI749
aI771
aI777
aI1915
aI809
aI815
aI819
aI852
aI853
aI860
aI888
aI889
aI890
aI936
aI938
aI939
aI1093
aI1097
aI1098
aI1102
aI1106
aI1107
aI1219
aI1292
aI1294
aI1373
aI1374
aI1375
aI1376
aI1385
aI1386
aI1457
aI1481
aI1506
aI1520
aI1522
aI1525
aI1537
aI1538
aI1551
aI1555
aI1556
aI1561
aI1563
aI1564
aI1565
aI1566
aI1571
aI1573
aI1574
aI1577
aI1578
aI1582
aI1604
aI1673
aI1674
aI1789
aI1793
aI1806
aI1808
aI1819
aI1820
aI1827
aI1830
aI1856
aI1881
aI1882
aI1907
aI2065
aI2096
aI2104
aI2150
aI2252
aI2302
aI2313
aI2631
aI2831
aI2999
aI3010
aI3013
aI3025
aI3034
aI3091
aI3092
aI3103
aI3112
aI3160
aI3174
aI3161
aI3200
aa(lp2515
I2141
aI3007
aI2507
aI104
aa(lp2516
a(lp2517
a(lp2518
I104
aI4322
aa(lp2519
I104
aI4322
aa(lp2520
I104
aI4322
aa(lp2521
I104
aI4322
aa(lp2522
I104
aI4322
aa(lp2523
a(lp2524
a(lp2525
a(lp2526
a(lp2527
a(lp2528
a(lp2529
a(lp2530
a(lp2531
a(lp2532
a(lp2533
a(lp2534
a(lp2535
a(lp2536
a(lp2537
a(lp2538
I1238
aI2242
aa(lp2539
I1238
aI2242
aa(lp2540
a(lp2541
a(lp2542
a(lp2543
a(lp2544
a(lp2545
a(lp2546
a(lp2547
a(lp2548
a(lp2549
a(lp2550
a(lp2551
a(lp2552
I2617
aI2242
aa(lp2553
a(lp2554
a(lp2555
a(lp2556
a(lp2557
a(lp2558
I513
aI2242
aI514
aI1127
aI2666
aI2667
aa(lp2559
a(lp2560
a(lp2561
a(lp2562
a(lp2563
a(lp2564
a(lp2565
a(lp2566
a(lp2567
a(lp2568
a(lp2569
a(lp2570
a(lp2571
a(lp2572
a(lp2573
a(lp2574
a(lp2575
a(lp2576
a(lp2577
a(lp2578
a(lp2579
a(lp2580
a(lp2581
a(lp2582
a(lp2583
I2707
aI2242
aa(lp2584
I2707
aI2242
aa(lp2585
a(lp2586
a(lp2587
a(lp2588
a(lp2589
a(lp2590
I2707
aI2242
aa(lp2591
I2707
aI2242
aa(lp2592
a(lp2593
a(lp2594
a(lp2595
a(lp2596
a(lp2597
a(lp2598
a(lp2599
a(lp2600
a(lp2601
a(lp2602
a(lp2603
a(lp2604
a(lp2605
a(lp2606
a(lp2607
a(lp2608
a(lp2609
a(lp2610
a(lp2611
a(lp2612
a(lp2613
a(lp2614
a(lp2615
a(lp2616
a(lp2617
a(lp2618
I84
aI2947
aI298
aI2141
aI299
aI300
aI386
aI449
aI109
aI1050
aI481
aI482
aI484
aI485
aI505
aI1021
aI1097
aI1098
aI1106
aI1107
aI1133
aI2242
aI1506
aI1624
aI2551
aI2948
aI2954
aI3022
aI3349
aI3350
aI3353
aI3354
aI3358
aI3359
aI3364
aI3585
aa(lp2619
I1924
aI3094
aa(lp2620
a(lp2621
a(lp2622
a(lp2623
a(lp2624
a(lp2625
a(lp2626
a(lp2627
a(lp2628
a(lp2629
a(lp2630
a(lp2631
a(lp2632
I2513
aI2507
aa(lp2633
I1050
aI2466
aa(lp2634
I1050
aI2466
aa(lp2635
a(lp2636
a(lp2637
a(lp2638
I1050
aI1456
aa(lp2639
a(lp2640
a(lp2641
a(lp2642
a(lp2643
a(lp2644
a(lp2645
a(lp2646
a(lp2647
a(lp2648
I2457
aI4233
aa(lp2649
a(lp2650
a(lp2651
a(lp2652
a(lp2653
a(lp2654
a(lp2655
a(lp2656
a(lp2657
I449
aI2088
aa(lp2658
a(lp2659
a(lp2660
a(lp2661
a(lp2662
a(lp2663
a(lp2664
a(lp2665
a(lp2666
a(lp2667
I2557
aI2242
aa(lp2668
I2557
aI2242
aa(lp2669
a(lp2670
a(lp2671
a(lp2672
a(lp2673
a(lp2674
a(lp2675
a(lp2676
a(lp2677
a(lp2678
a(lp2679
a(lp2680
a(lp2681
a(lp2682
a(lp2683
a(lp2684
a(lp2685
a(lp2686
a(lp2687
a(lp2688
a(lp2689
a(lp2690
a(lp2691
I1243
aI3007
aI2147
aI2242
aI3323
aa(lp2692
a(lp2693
a(lp2694
a(lp2695
a(lp2696
a(lp2697
a(lp2698
a(lp2699
a(lp2700
a(lp2701
a(lp2702
a(lp2703
a(lp2704
a(lp2705
a(lp2706
a(lp2707
a(lp2708
I217
aI2419
aI338
aI430
aI4220
aI517
aI790
aI2242
aI826
aI2457
aI827
aI828
aI915
aI935
aI916
aI934
aI4233
aI945
aI946
aI947
aI948
aI972
aI981
aI982
aI993
aI994
aI1011
aI1012
aI1045
aI1106
aI1107
aI1376
aI1427
aI1428
aI1670
aI1671
aI1672
aI1721
aI1722
aI2392
aI2418
aI2427
aI2428
aI2582
aI2583
aI2589
aI2590
aI2919
aI3532
aI3533
aI3761
aI1050
aI4231
aa(lp2709
I1454
aI2419
aI4220
aa(lp2710
a(lp2711
a(lp2712
a(lp2713
a(lp2714
a(lp2715
a(lp2716
a(lp2717
a(lp2718
a(lp2719
a(lp2720
a(lp2721
a(lp2722
a(lp2723
a(lp2724
a(lp2725
a(lp2726
a(lp2727
a(lp2728
a(lp2729
a(lp2730
I2876
aI2259
aa(lp2731
a(lp2732
a(lp2733
a(lp2734
I1050
aI2466
aa(lp2735
I1050
aI2466
aa(lp2736
I2770
aI2259
aa(lp2737
I1050
aI2466
aa(lp2738
I1050
aI2466
aa(lp2739
a(lp2740
a(lp2741
a(lp2742
a(lp2743
a(lp2744
a(lp2745
a(lp2746
a(lp2747
a(lp2748
a(lp2749
a(lp2750
a(lp2751
a(lp2752
a(lp2753
a(lp2754
a(lp2755
a(lp2756
a(lp2757
a(lp2758
a(lp2759
a(lp2760
a(lp2761
a(lp2762
I2770
aI2259
aa(lp2763
a(lp2764
a(lp2765
a(lp2766
a(lp2767
a(lp2768
a(lp2769
I2770
aI2259
aa(lp2770
I2770
aI2259
aa(lp2771
I438
aI2259
aI2735
aI2761
aI2768
aI2769
aI2771
aI2803
aI2804
aa(lp2772
I2770
aI2259
aa(lp2773
a(lp2774
a(lp2775
a(lp2776
a(lp2777
a(lp2778
a(lp2779
a(lp2780
a(lp2781
a(lp2782
a(lp2783
a(lp2784
a(lp2785
a(lp2786
a(lp2787
a(lp2788
a(lp2789
a(lp2790
a(lp2791
a(lp2792
a(lp2793
a(lp2794
I1489
aI4220
aI2876
aI1198
aI2259
aa(lp2795
a(lp2796
a(lp2797
a(lp2798
a(lp2799
a(lp2800
I989
aI1456
aa(lp2801
a(lp2802
a(lp2803
a(lp2804
I2770
aI2259
aa(lp2805
I2770
aI2259
aa(lp2806
a(lp2807
a(lp2808
a(lp2809
a(lp2810
a(lp2811
a(lp2812
a(lp2813
a(lp2814
a(lp2815
a(lp2816
a(lp2817
a(lp2818
a(lp2819
a(lp2820
a(lp2821
a(lp2822
a(lp2823
a(lp2824
a(lp2825
a(lp2826
a(lp2827
a(lp2828
a(lp2829
a(lp2830
a(lp2831
a(lp2832
I109
aI3520
aI2141
aI2513
aI4419
aI3357
aa(lp2833
a(lp2834
I1456
aI4155
aI2259
aI4322
aa(lp2835
I1456
aI4155
aI2259
aI4322
aa(lp2836
a(lp2837
a(lp2838
a(lp2839
a(lp2840
a(lp2841
a(lp2842
a(lp2843
a(lp2844
a(lp2845
a(lp2846
a(lp2847
a(lp2848
a(lp2849
a(lp2850
a(lp2851
a(lp2852
a(lp2853
a(lp2854
a(lp2855
a(lp2856
a(lp2857
a(lp2858
a(lp2859
a(lp2860
a(lp2861
a(lp2862
a(lp2863
a(lp2864
I1050
aI2466
aa(lp2865
I1050
aI2466
aa(lp2866
a(lp2867
a(lp2868
a(lp2869
a(lp2870
a(lp2871
a(lp2872
a(lp2873
a(lp2874
a(lp2875
a(lp2876
a(lp2877
I1687
aI2259
aI2729
aI2793
aI1198
aa(lp2878
a(lp2879
a(lp2880
a(lp2881
a(lp2882
a(lp2883
a(lp2884
a(lp2885
a(lp2886
a(lp2887
a(lp2888
a(lp2889
a(lp2890
I989
aI1456
aa(lp2891
I989
aI1456
aa(lp2892
a(lp2893
a(lp2894
a(lp2895
a(lp2896
a(lp2897
a(lp2898
I1458
aI91
aa(lp2899
I1458
aI91
aa(lp2900
I1458
aI2962
aa(lp2901
I1458
aI2962
aa(lp2902
a(lp2903
a(lp2904
I1456
aI4155
aa(lp2905
a(lp2906
I1489
aI4155
aa(lp2907
a(lp2908
a(lp2909
a(lp2910
a(lp2911
a(lp2912
I989
aI1456
aa(lp2913
a(lp2914
a(lp2915
a(lp2916
a(lp2917
a(lp2918
a(lp2919
a(lp2920
I4220
aI2707
aa(lp2921
I989
aI1456
aI1050
aI113
aI3007
aa(lp2922
a(lp2923
I3565
aI2419
aI2466
aa(lp2924
a(lp2925
a(lp2926
a(lp2927
a(lp2928
a(lp2929
a(lp2930
a(lp2931
a(lp2932
a(lp2933
a(lp2934
a(lp2935
a(lp2936
a(lp2937
a(lp2938
a(lp2939
a(lp2940
a(lp2941
a(lp2942
a(lp2943
I3565
aI2466
aa(lp2944
a(lp2945
a(lp2946
a(lp2947
a(lp2948
I84
aI2617
aI3520
aI417
aI434
aI435
aI455
aI2419
aI481
aI784
aI785
aI1138
aI2948
aI2949
aI2950
aI2954
aI2956
aa(lp2949
I2947
aI2617
aa(lp2950
I2088
aI2171
aI2947
aI3520
aa(lp2951
I2088
aI2171
aI2947
aI3520
aa(lp2952
I3357
aI3799
aa(lp2953
a(lp2954
a(lp2955
I2947
aI2617
aI3520
aI3799
aa(lp2956
a(lp2957
I2947
aI3520
aa(lp2958
a(lp2959
a(lp2960
I1144
aI2419
aI2960
aI2961
aa(lp2961
I2959
aI2419
aa(lp2962
I2959
aI2419
aa(lp2963
I97
aI3007
aI98
aI112
aI1992
aI2983
aI142
aI2513
aI156
aI2141
aI157
aI170
aI1658
aI2507
aI171
aI190
aI4155
aI217
aI297
aI298
aI299
aI300
aI350
aI385
aI386
aI1458
aI1569
aI403
aI1475
aI410
aI418
aI422
aI424
aI434
aI435
aI441
aI442
aI447
aI448
aI449
aI452
aI471
aI480
aI510
aI519
aI748
aI755
aI833
aI853
aI854
aI862
aI1040
aI1093
aI1106
aI1107
aI1138
aI1915
aI1143
aI1161
aI1173
aI1243
aI1244
aI1268
aI1292
aI1373
aI1374
aI1376
aI1389
aI1404
aI1405
aI1412
aI1457
aI1460
aI1473
aI1505
aI1506
aI1507
aI1508
aI1520
aI1521
aI1522
aI1538
aI1547
aI1548
aI1551
aI1555
aI1556
aI1563
aI1564
aI1565
aI1566
aI1571
aI1572
aI1573
aI1574
aI1577
aI1578
aI1579
aI1580
aI1582
aI1585
aI1589
aI1590
aI1604
aI1673
aI1674
aI1754
aI1806
aI1868
aI1869
aI1881
aI1907
aI1916
aI1918
aI1938
aI2132
aI2138
aI2208
aI2899
aI2900
aI2964
aI2969
aI2982
aI2988
aI2994
aI2995
aI2997
aI2998
aI2999
aI3000
aI3008
aI3009
aI3010
aI3011
aI3012
aI3013
aI3014
aa(lp2964
I1050
aI1456
aa(lp2965
I2507
aI2962
aI4288
aa(lp2966
a(lp2967
a(lp2968
a(lp2969
a(lp2970
I1314
aI2507
aI1489
aI2141
aI3007
aI4155
aI1915
aI2962
aI4419
aI4288
aa(lp2971
I1924
aI3094
aI3944
aa(lp2972
a(lp2973
a(lp2974
a(lp2975
a(lp2976
a(lp2977
a(lp2978
a(lp2979
a(lp2980
a(lp2981
a(lp2982
a(lp2983
I2507
aI2962
aa(lp2984
I112
aI2962
aI434
aI2513
aI435
aI1556
aI1565
aI1578
aI3007
aa(lp2985
I3565
aI2466
aa(lp2986
a(lp2987
a(lp2988
a(lp2989
I3007
aI2962
aa(lp2990
a(lp2991
a(lp2992
a(lp2993
a(lp2994
a(lp2995
I3007
aI2962
aa(lp2996
I3007
aI2962
aa(lp2997
a(lp2998
I2141
aI2962
aa(lp2999
I2141
aI2962
aa(lp3000
I2141
aI2513
aI2962
aI3007
aI2507
aa(lp3001
I989
aI1456
aI3007
aI2962
aa(lp3002
a(lp3003
a(lp3004
a(lp3005
a(lp3006
a(lp3007
a(lp3008
I97
aI2962
aI98
aI170
aI2141
aI2507
aI298
aI299
aI300
aI350
aI373
aI374
aI385
aI1489
aI386
aI1569
aI410
aI422
aI436
aI449
aI1050
aI452
aI483
aI755
aI756
aI773
aI833
aI835
aI836
aI837
aI1093
aI1672
aI1227
aI1243
aI2690
aI1244
aI1268
aI1292
aI1294
aI1376
aI1412
aI1473
aI1487
aI1514
aI1520
aI1521
aI1522
aI1538
aI1551
aI1915
aI1557
aI1561
aI1563
aI1564
aI1566
aI1572
aI1573
aI1574
aI1577
aI1578
aI2983
aI1579
aI1580
aI1581
aI1585
aI1589
aI1590
aI1623
aI1670
aI1671
aI1674
aI1784
aI1806
aI1827
aI1856
aI1881
aI1941
aI1942
aI2096
aI2104
aI2126
aI2136
aI2150
aI2159
aI2160
aI2162
aI2208
aI2461
aI2462
aI2514
aI2920
aI2969
aI2988
aI2994
aI2995
aI2999
aI3000
aI3009
aI3020
aI3021
aI3024
aI3031
aI3034
aI3035
aI3036
aI3037
aI3038
aI3042
aI3048
aI3049
aI3056
aI3268
aI3323
aa(lp3009
I1569
aI2141
aI2507
aI2962
aa(lp3010
I2141
aI2962
aI3007
aa(lp3011
I2141
aI2513
aI2962
aa(lp3012
I2962
aI4155
aa(lp3013
I2962
aI4155
aa(lp3014
I2513
aI2962
aa(lp3015
I1220
aI1489
aI4155
aI2507
aI2962
aa(lp3016
a(lp3017
a(lp3018
a(lp3019
a(lp3020
a(lp3021
I1915
aI2141
aI2507
aI3007
aa(lp3022
I2141
aI3007
aI4419
aa(lp3023
I2507
aI2141
aI2617
aa(lp3024
a(lp3025
I2141
aI3007
aa(lp3026
I1489
aI2141
aI2513
aa(lp3027
a(lp3028
a(lp3029
a(lp3030
a(lp3031
a(lp3032
I2141
aI3007
aa(lp3033
I2507
aI2141
aa(lp3034
a(lp3035
I1489
aI2141
aI3007
aI4155
aI2513
aI2507
aa(lp3036
I2141
aI3007
aa(lp3037
I2141
aI3007
aa(lp3038
I2141
aI3007
aa(lp3039
I2141
aI3007
aa(lp3040
I1915
aI2141
aI4155
aa(lp3041
I1915
aI2141
aI4155
aa(lp3042
I1915
aI2141
aI4155
aa(lp3043
I2141
aI3007
aa(lp3044
I1489
aI2141
aa(lp3045
I1489
aI2141
aa(lp3046
I1489
aI2141
aa(lp3047
a(lp3048
a(lp3049
I2141
aI3007
aa(lp3050
I2141
aI3007
aa(lp3051
a(lp3052
a(lp3053
a(lp3054
a(lp3055
I2141
aI4233
aa(lp3056
a(lp3057
I1569
aI3007
aa(lp3058
a(lp3059
a(lp3060
a(lp3061
a(lp3062
a(lp3063
a(lp3064
a(lp3065
a(lp3066
a(lp3067
a(lp3068
a(lp3069
I1569
aI1672
aa(lp3070
I1569
aI1672
aa(lp3071
a(lp3072
a(lp3073
a(lp3074
a(lp3075
a(lp3076
a(lp3077
a(lp3078
a(lp3079
a(lp3080
a(lp3081
a(lp3082
a(lp3083
a(lp3084
a(lp3085
a(lp3086
a(lp3087
I1220
aI1489
aa(lp3088
a(lp3089
a(lp3090
a(lp3091
a(lp3092
I2513
aI2507
aa(lp3093
I2513
aI2507
aa(lp3094
a(lp3095
I31
aI2466
aI32
aI43
aI935
aI44
aI102
aI4060
aI517
aI429
aI749
aI765
aI776
aI3357
aI777
aI1924
aI833
aI2507
aI852
aI870
aI888
aI889
aI890
aI936
aI938
aI939
aI947
aI948
aI1102
aI1532
aI1533
aI1738
aI1739
aI1819
aI1820
aI1826
aI1830
aI1849
aI1873
aI1882
aI2074
aI2149
aI2442
aI2475
aI2476
aI2618
aI2970
aI3622
aI3946
aI3947
aa(lp3096
a(lp3097
a(lp3098
I989
aI2507
aa(lp3099
a(lp3100
a(lp3101
a(lp3102
a(lp3103
a(lp3104
I2513
aI1220
aI2507
aa(lp3105
a(lp3106
a(lp3107
I1915
aI4155
aa(lp3108
I1050
aI2466
aa(lp3109
a(lp3110
a(lp3111
a(lp3112
a(lp3113
I1915
aI2513
aa(lp3114
a(lp3115
a(lp3116
a(lp3117
a(lp3118
a(lp3119
a(lp3120
a(lp3121
a(lp3122
a(lp3123
a(lp3124
a(lp3125
a(lp3126
a(lp3127
I1915
aI4155
aa(lp3128
I1915
aI4155
aa(lp3129
I1915
aI4155
aa(lp3130
a(lp3131
I3484
aI3478
aI3565
aa(lp3132
a(lp3133
a(lp3134
a(lp3135
I1915
aI4155
aa(lp3136
I1915
aI4155
aa(lp3137
I1915
aI4155
aa(lp3138
a(lp3139
a(lp3140
a(lp3141
a(lp3142
a(lp3143
a(lp3144
I3799
aI3520
aa(lp3145
a(lp3146
a(lp3147
a(lp3148
a(lp3149
a(lp3150
a(lp3151
a(lp3152
a(lp3153
a(lp3154
a(lp3155
a(lp3156
a(lp3157
a(lp3158
a(lp3159
a(lp3160
a(lp3161
I989
aI1456
aI2513
aa(lp3162
I3174
aI2513
aa(lp3163
a(lp3164
a(lp3165
a(lp3166
a(lp3167
a(lp3168
a(lp3169
a(lp3170
a(lp3171
a(lp3172
a(lp3173
a(lp3174
a(lp3175
I3161
aI2513
aa(lp3176
a(lp3177
a(lp3178
a(lp3179
a(lp3180
a(lp3181
a(lp3182
I3799
aI3520
aa(lp3183
a(lp3184
a(lp3185
a(lp3186
a(lp3187
a(lp3188
I3520
aI4220
aa(lp3189
a(lp3190
a(lp3191
a(lp3192
a(lp3193
a(lp3194
a(lp3195
a(lp3196
a(lp3197
a(lp3198
a(lp3199
a(lp3200
a(lp3201
I449
aI1489
aI2513
aa(lp3202
a(lp3203
a(lp3204
a(lp3205
a(lp3206
a(lp3207
a(lp3208
a(lp3209
a(lp3210
a(lp3211
a(lp3212
a(lp3213
a(lp3214
a(lp3215
a(lp3216
a(lp3217
a(lp3218
a(lp3219
a(lp3220
I109
aI2419
aI3520
aa(lp3221
a(lp3222
a(lp3223
a(lp3224
a(lp3225
I109
aI3520
aa(lp3226
a(lp3227
a(lp3228
a(lp3229
a(lp3230
a(lp3231
I455
aI109
aI1475
aa(lp3232
a(lp3233
a(lp3234
a(lp3235
a(lp3236
a(lp3237
a(lp3238
a(lp3239
a(lp3240
a(lp3241
a(lp3242
I2457
aI4233
aa(lp3243
I2457
aI4233
aa(lp3244
a(lp3245
a(lp3246
a(lp3247
a(lp3248
a(lp3249
a(lp3250
a(lp3251
a(lp3252
a(lp3253
I3484
aI2466
aI3478
aI3565
aI4432
aI2419
aa(lp3254
a(lp3255
a(lp3256
a(lp3257
a(lp3258
a(lp3259
a(lp3260
I3799
aI3520
aa(lp3261
a(lp3262
a(lp3263
a(lp3264
a(lp3265
a(lp3266
a(lp3267
a(lp3268
a(lp3269
I1489
aI3007
aI4220
aI3558
aI2419
aa(lp3270
a(lp3271
I355
aI4233
aa(lp3272
I355
aI4233
aa(lp3273
a(lp3274
a(lp3275
a(lp3276
a(lp3277
a(lp3278
a(lp3279
a(lp3280
a(lp3281
a(lp3282
a(lp3283
a(lp3284
a(lp3285
a(lp3286
a(lp3287
a(lp3288
a(lp3289
a(lp3290
a(lp3291
a(lp3292
a(lp3293
I3357
aI3520
aI3799
aa(lp3294
a(lp3295
a(lp3296
a(lp3297
a(lp3298
a(lp3299
a(lp3300
a(lp3301
a(lp3302
a(lp3303
a(lp3304
a(lp3305
a(lp3306
a(lp3307
a(lp3308
a(lp3309
a(lp3310
a(lp3311
a(lp3312
a(lp3313
a(lp3314
a(lp3315
a(lp3316
a(lp3317
a(lp3318
a(lp3319
a(lp3320
a(lp3321
a(lp3322
a(lp3323
a(lp3324
I2457
aI4233
aI2690
aI3007
aa(lp3325
a(lp3326
a(lp3327
a(lp3328
I449
aI1082
aa(lp3329
a(lp3330
a(lp3331
a(lp3332
a(lp3333
a(lp3334
a(lp3335
a(lp3336
a(lp3337
a(lp3338
a(lp3339
a(lp3340
a(lp3341
a(lp3342
a(lp3343
a(lp3344
a(lp3345
a(lp3346
a(lp3347
a(lp3348
a(lp3349
a(lp3350
I109
aI2617
aa(lp3351
I109
aI2617
aa(lp3352
a(lp3353
a(lp3354
I109
aI2419
aI2617
aa(lp3355
I109
aI2419
aI2617
aI3520
aI3799
aa(lp3356
a(lp3357
I989
aI4414
aa(lp3358
I84
aI3520
aI3799
aI417
aI109
aI434
aI435
aI439
aI441
aI447
aI448
aI455
aI466
aI505
aI531
aI532
aI536
aI910
aI752
aI776
aI3094
aI777
aI784
aI785
aI885
aI888
aI889
aI890
aI936
aI1102
aI1138
aI2049
aI2050
aI2051
aI2831
aI2951
aI3292
aI3606
aa(lp3359
I109
aI2419
aI2617
aa(lp3360
I109
aI2419
aI2617
aa(lp3361
a(lp3362
I3362
aI109
aa(lp3363
I99
aI109
aI455
aI482
aI1145
aI1623
aI1936
aI1937
aI3361
aa(lp3364
a(lp3365
I109
aI2617
aI3520
aa(lp3366
a(lp3367
I989
aI1456
aa(lp3368
a(lp3369
a(lp3370
a(lp3371
I989
aI1456
aa(lp3372
a(lp3373
a(lp3374
a(lp3375
a(lp3376
a(lp3377
a(lp3378
I1489
aI4155
aa(lp3379
a(lp3380
a(lp3381
a(lp3382
a(lp3383
a(lp3384
a(lp3385
I989
aI1456
aa(lp3386
a(lp3387
a(lp3388
a(lp3389
I989
aI1456
aa(lp3390
a(lp3391
I355
aI4233
aa(lp3392
a(lp3393
a(lp3394
a(lp3395
a(lp3396
a(lp3397
a(lp3398
I989
aI1456
aa(lp3399
a(lp3400
a(lp3401
a(lp3402
a(lp3403
a(lp3404
a(lp3405
I1456
aI4155
aa(lp3406
I1456
aI4155
aa(lp3407
a(lp3408
a(lp3409
a(lp3410
a(lp3411
a(lp3412
a(lp3413
I989
aI1456
aa(lp3414
I989
aI1456
aa(lp3415
a(lp3416
a(lp3417
a(lp3418
a(lp3419
a(lp3420
a(lp3421
a(lp3422
a(lp3423
a(lp3424
a(lp3425
a(lp3426
a(lp3427
a(lp3428
a(lp3429
a(lp3430
a(lp3431
a(lp3432
a(lp3433
a(lp3434
a(lp3435
a(lp3436
a(lp3437
a(lp3438
a(lp3439
a(lp3440
a(lp3441
a(lp3442
a(lp3443
a(lp3444
a(lp3445
a(lp3446
a(lp3447
I989
aI1456
aI2088
aI2171
aa(lp3448
I989
aI1456
aI2088
aI2171
aa(lp3449
a(lp3450
a(lp3451
a(lp3452
a(lp3453
a(lp3454
a(lp3455
a(lp3456
a(lp3457
a(lp3458
a(lp3459
a(lp3460
a(lp3461
a(lp3462
a(lp3463
a(lp3464
a(lp3465
a(lp3466
a(lp3467
a(lp3468
a(lp3469
a(lp3470
a(lp3471
a(lp3472
a(lp3473
a(lp3474
a(lp3475
a(lp3476
a(lp3477
a(lp3478
a(lp3479
I8
aI17
aI15
aI3484
aI19
aI29
aI114
aI2432
aI3130
aI3252
aI3486
aa(lp3480
a(lp3481
a(lp3482
a(lp3483
I3565
aI2466
aa(lp3484
a(lp3485
I15
aI3478
aI29
aI2432
aI2466
aI3565
aI3130
aI3252
aI4432
aI3486
aa(lp3486
a(lp3487
I3484
aI2466
aI3478
aI3565
aa(lp3488
I3565
aI2466
aa(lp3489
I3565
aI2466
aa(lp3490
a(lp3491
a(lp3492
a(lp3493
a(lp3494
a(lp3495
a(lp3496
a(lp3497
I989
aI1456
aa(lp3498
I1924
aI1909
aa(lp3499
a(lp3500
a(lp3501
a(lp3502
a(lp3503
a(lp3504
a(lp3505
a(lp3506
I1050
aI2466
aa(lp3507
I1050
aI2466
aa(lp3508
a(lp3509
a(lp3510
a(lp3511
a(lp3512
a(lp3513
I2419
aI3520
aa(lp3514
I2419
aI3520
aa(lp3515
a(lp3516
a(lp3517
a(lp3518
a(lp3519
a(lp3520
a(lp3521
I84
aI2947
aI3357
aI3799
aI85
aI1713
aI97
aI2419
aI98
aI99
aI109
aI110
aI136
aI249
aI263
aI349
aI4220
aI417
aI434
aI435
aI444
aI445
aI447
aI448
aI466
aI481
aI482
aI484
aI485
aI518
aI527
aI528
aI529
aI784
aI785
aI830
aI909
aI993
aI994
aI1021
aI1079
aI1093
aI1138
aI1156
aI1440
aI1482
aI1582
aI2088
aI1604
aI1624
aI1716
aI1855
aI2101
aI2103
aI2284
aI2460
aI2508
aI2831
aI2949
aI2950
aI2954
aI2956
aI3143
aI3181
aI3187
aI3219
aI3224
aI3259
aI3292
aI3354
aI3364
aI3512
aI3513
aI3524
aI3525
aI3581
aI3594
aa(lp3522
a(lp3523
a(lp3524
a(lp3525
I2419
aI3520
aa(lp3526
I2419
aI3520
aa(lp3527
a(lp3528
a(lp3529
a(lp3530
a(lp3531
a(lp3532
a(lp3533
I2419
aI2707
aI4220
aa(lp3534
I2419
aI2707
aI4220
aa(lp3535
a(lp3536
a(lp3537
a(lp3538
a(lp3539
a(lp3540
a(lp3541
a(lp3542
a(lp3543
a(lp3544
a(lp3545
I3558
aI2419
aa(lp3546
I3558
aI2419
aa(lp3547
a(lp3548
a(lp3549
a(lp3550
a(lp3551
a(lp3552
a(lp3553
a(lp3554
a(lp3555
a(lp3556
a(lp3557
I3558
aI2419
aa(lp3558
I3558
aI2419
aa(lp3559
I214
aI2419
aI476
aI490
aI3565
aI491
aI619
aI855
aI1124
aI1132
aI1351
aI1696
aI3268
aI3544
aI3545
aI3556
aI3557
aI3566
aI3570
aa(lp3560
a(lp3561
a(lp3562
a(lp3563
a(lp3564
a(lp3565
a(lp3566
I114
aI2419
aI376
aI2466
aI490
aI3558
aI491
aI855
aI1132
aI1351
aI1664
aI1696
aI2118
aI2432
aI3484
aI2922
aI2942
aI2984
aI3130
aI3252
aI3482
aI3486
aI3487
aI3488
aI3784
aa(lp3567
I3558
aI2419
aa(lp3568
a(lp3569
a(lp3570
a(lp3571
I3558
aI2419
aa(lp3572
a(lp3573
a(lp3574
a(lp3575
a(lp3576
a(lp3577
a(lp3578
a(lp3579
a(lp3580
a(lp3581
I1454
aI2419
aI4220
aa(lp3582
I2419
aI3520
aa(lp3583
a(lp3584
a(lp3585
a(lp3586
I1050
aI2617
aa(lp3587
a(lp3588
a(lp3589
a(lp3590
a(lp3591
a(lp3592
a(lp3593
a(lp3594
a(lp3595
I3799
aI3520
aa(lp3596
a(lp3597
a(lp3598
a(lp3599
a(lp3600
a(lp3601
a(lp3602
a(lp3603
a(lp3604
a(lp3605
a(lp3606
I2457
aI4233
aa(lp3607
I989
aI1456
aI3357
aI3799
aa(lp3608
a(lp3609
a(lp3610
a(lp3611
a(lp3612
a(lp3613
a(lp3614
a(lp3615
a(lp3616
a(lp3617
a(lp3618
a(lp3619
a(lp3620
a(lp3621
a(lp3622
a(lp3623
I2466
aI3094
aa(lp3624
a(lp3625
a(lp3626
a(lp3627
a(lp3628
a(lp3629
a(lp3630
a(lp3631
a(lp3632
a(lp3633
a(lp3634
a(lp3635
a(lp3636
a(lp3637
a(lp3638
a(lp3639
a(lp3640
a(lp3641
a(lp3642
a(lp3643
a(lp3644
I2457
aI4233
aa(lp3645
a(lp3646
a(lp3647
a(lp3648
a(lp3649
a(lp3650
a(lp3651
a(lp3652
a(lp3653
a(lp3654
a(lp3655
a(lp3656
a(lp3657
a(lp3658
a(lp3659
a(lp3660
a(lp3661
a(lp3662
a(lp3663
a(lp3664
a(lp3665
I989
aI1456
aa(lp3666
a(lp3667
a(lp3668
a(lp3669
a(lp3670
a(lp3671
a(lp3672
I536
aI910
aa(lp3673
a(lp3674
a(lp3675
a(lp3676
a(lp3677
a(lp3678
a(lp3679
a(lp3680
a(lp3681
a(lp3682
a(lp3683
a(lp3684
a(lp3685
a(lp3686
a(lp3687
a(lp3688
a(lp3689
a(lp3690
a(lp3691
a(lp3692
a(lp3693
a(lp3694
a(lp3695
a(lp3696
a(lp3697
a(lp3698
a(lp3699
a(lp3700
a(lp3701
a(lp3702
a(lp3703
a(lp3704
a(lp3705
I2457
aI4233
aa(lp3706
I2457
aI4233
aa(lp3707
a(lp3708
a(lp3709
a(lp3710
a(lp3711
a(lp3712
a(lp3713
a(lp3714
a(lp3715
a(lp3716
a(lp3717
a(lp3718
a(lp3719
I2457
aI4233
aa(lp3720
I2457
aI4233
aa(lp3721
I2457
aI4233
aa(lp3722
I2457
aI4233
aa(lp3723
a(lp3724
I2457
aI4233
aa(lp3725
a(lp3726
a(lp3727
a(lp3728
I1050
aI2466
aa(lp3729
I1050
aI2466
aa(lp3730
a(lp3731
a(lp3732
I1050
aI2466
aa(lp3733
a(lp3734
a(lp3735
a(lp3736
a(lp3737
a(lp3738
I1050
aI2466
aa(lp3739
a(lp3740
a(lp3741
a(lp3742
a(lp3743
a(lp3744
a(lp3745
a(lp3746
I1050
aI2466
aa(lp3747
a(lp3748
a(lp3749
a(lp3750
I1050
aI2466
aa(lp3751
I64
aI2466
aI65
aI167
aI2417
aI503
aI536
aI910
aI885
aI1102
aI1207
aI1208
aI1819
aI2240
aa(lp3752
a(lp3753
a(lp3754
a(lp3755
a(lp3756
a(lp3757
a(lp3758
I1050
aI2466
aa(lp3759
I1050
aI2466
aa(lp3760
a(lp3761
a(lp3762
I1050
aI2466
aI2707
aa(lp3763
a(lp3764
a(lp3765
a(lp3766
a(lp3767
a(lp3768
a(lp3769
a(lp3770
a(lp3771
a(lp3772
a(lp3773
a(lp3774
a(lp3775
a(lp3776
a(lp3777
a(lp3778
I1050
aI2466
aa(lp3779
a(lp3780
a(lp3781
a(lp3782
a(lp3783
I1050
aI2466
aa(lp3784
a(lp3785
I3565
aI2466
aa(lp3786
a(lp3787
a(lp3788
a(lp3789
I1050
aI2466
aa(lp3790
a(lp3791
a(lp3792
a(lp3793
a(lp3794
a(lp3795
a(lp3796
a(lp3797
a(lp3798
a(lp3799
a(lp3800
I84
aI3357
aI3520
aI109
aI441
aI449
aI450
aI451
aI455
aI481
aI531
aI532
aI752
aI776
aI777
aI784
aI785
aI830
aI885
aI888
aI889
aI890
aI936
aI1136
aI1141
aI1142
aI1440
aI1482
aI1708
aI2049
aI2050
aI2051
aI2101
aI2103
aI2460
aI2951
aI2954
aI3143
aI3181
aI3259
aI3292
aI3354
aI3594
aI3606
aa(lp3801
a(lp3802
a(lp3803
a(lp3804
a(lp3805
a(lp3806
a(lp3807
a(lp3808
a(lp3809
a(lp3810
a(lp3811
a(lp3812
a(lp3813
a(lp3814
I1454
aI4220
aa(lp3815
a(lp3816
a(lp3817
a(lp3818
a(lp3819
a(lp3820
a(lp3821
a(lp3822
a(lp3823
a(lp3824
a(lp3825
a(lp3826
a(lp3827
a(lp3828
a(lp3829
a(lp3830
a(lp3831
a(lp3832
a(lp3833
a(lp3834
a(lp3835
a(lp3836
a(lp3837
a(lp3838
a(lp3839
a(lp3840
a(lp3841
a(lp3842
a(lp3843
a(lp3844
a(lp3845
a(lp3846
a(lp3847
a(lp3848
a(lp3849
a(lp3850
a(lp3851
a(lp3852
a(lp3853
I989
aI1456
aa(lp3854
a(lp3855
a(lp3856
a(lp3857
a(lp3858
a(lp3859
a(lp3860
a(lp3861
a(lp3862
a(lp3863
a(lp3864
a(lp3865
a(lp3866
a(lp3867
a(lp3868
a(lp3869
a(lp3870
a(lp3871
a(lp3872
a(lp3873
a(lp3874
a(lp3875
a(lp3876
a(lp3877
a(lp3878
a(lp3879
a(lp3880
a(lp3881
a(lp3882
a(lp3883
a(lp3884
a(lp3885
a(lp3886
a(lp3887
a(lp3888
a(lp3889
a(lp3890
a(lp3891
a(lp3892
a(lp3893
a(lp3894
a(lp3895
a(lp3896
a(lp3897
a(lp3898
a(lp3899
a(lp3900
a(lp3901
a(lp3902
a(lp3903
a(lp3904
a(lp3905
a(lp3906
a(lp3907
a(lp3908
a(lp3909
a(lp3910
a(lp3911
a(lp3912
a(lp3913
a(lp3914
a(lp3915
a(lp3916
a(lp3917
a(lp3918
a(lp3919
a(lp3920
a(lp3921
a(lp3922
a(lp3923
a(lp3924
a(lp3925
a(lp3926
a(lp3927
a(lp3928
a(lp3929
a(lp3930
a(lp3931
a(lp3932
a(lp3933
a(lp3934
a(lp3935
a(lp3936
a(lp3937
a(lp3938
a(lp3939
a(lp3940
a(lp3941
a(lp3942
a(lp3943
a(lp3944
a(lp3945
I7
aI1924
aI8
aI2970
aa(lp3946
I989
aI1456
aa(lp3947
I1924
aI3094
aa(lp3948
I1924
aI3094
aa(lp3949
a(lp3950
a(lp3951
a(lp3952
a(lp3953
a(lp3954
a(lp3955
a(lp3956
a(lp3957
a(lp3958
a(lp3959
a(lp3960
a(lp3961
a(lp3962
a(lp3963
a(lp3964
a(lp3965
a(lp3966
a(lp3967
a(lp3968
a(lp3969
a(lp3970
a(lp3971
a(lp3972
a(lp3973
a(lp3974
a(lp3975
a(lp3976
a(lp3977
a(lp3978
a(lp3979
a(lp3980
a(lp3981
a(lp3982
a(lp3983
a(lp3984
a(lp3985
a(lp3986
a(lp3987
a(lp3988
a(lp3989
a(lp3990
a(lp3991
a(lp3992
a(lp3993
a(lp3994
a(lp3995
a(lp3996
a(lp3997
a(lp3998
a(lp3999
a(lp4000
a(lp4001
a(lp4002
a(lp4003
a(lp4004
a(lp4005
a(lp4006
a(lp4007
a(lp4008
a(lp4009
a(lp4010
a(lp4011
a(lp4012
a(lp4013
a(lp4014
a(lp4015
a(lp4016
a(lp4017
a(lp4018
a(lp4019
a(lp4020
a(lp4021
a(lp4022
a(lp4023
a(lp4024
a(lp4025
a(lp4026
a(lp4027
a(lp4028
a(lp4029
a(lp4030
a(lp4031
a(lp4032
a(lp4033
a(lp4034
a(lp4035
a(lp4036
a(lp4037
a(lp4038
a(lp4039
a(lp4040
a(lp4041
a(lp4042
a(lp4043
a(lp4044
a(lp4045
a(lp4046
a(lp4047
a(lp4048
a(lp4049
a(lp4050
a(lp4051
a(lp4052
a(lp4053
a(lp4054
a(lp4055
a(lp4056
a(lp4057
a(lp4058
a(lp4059
a(lp4060
a(lp4061
I102
aI3094
aI517
aI773
aI279
aI1849
aa(lp4062
a(lp4063
a(lp4064
a(lp4065
a(lp4066
a(lp4067
a(lp4068
a(lp4069
a(lp4070
a(lp4071
a(lp4072
a(lp4073
a(lp4074
a(lp4075
a(lp4076
a(lp4077
a(lp4078
a(lp4079
a(lp4080
I989
aI1456
aI4155
aa(lp4081
I989
aI1456
aI4155
aa(lp4082
a(lp4083
a(lp4084
a(lp4085
I989
aI1456
aa(lp4086
I989
aI1456
aa(lp4087
I989
aI1456
aa(lp4088
I989
aI1456
aa(lp4089
a(lp4090
a(lp4091
I989
aI1456
aa(lp4092
I989
aI1456
aa(lp4093
I989
aI1456
aa(lp4094
a(lp4095
I989
aI1456
aa(lp4096
I989
aI1456
aa(lp4097
a(lp4098
I989
aI1456
aa(lp4099
I989
aI1456
aa(lp4100
a(lp4101
a(lp4102
a(lp4103
a(lp4104
a(lp4105
a(lp4106
a(lp4107
a(lp4108
a(lp4109
a(lp4110
a(lp4111
a(lp4112
a(lp4113
a(lp4114
I1456
aI4155
aa(lp4115
a(lp4116
a(lp4117
a(lp4118
a(lp4119
a(lp4120
a(lp4121
a(lp4122
a(lp4123
a(lp4124
a(lp4125
a(lp4126
a(lp4127
a(lp4128
a(lp4129
a(lp4130
a(lp4131
a(lp4132
a(lp4133
a(lp4134
a(lp4135
a(lp4136
a(lp4137
a(lp4138
a(lp4139
a(lp4140
a(lp4141
a(lp4142
a(lp4143
a(lp4144
a(lp4145
a(lp4146
a(lp4147
a(lp4148
a(lp4149
a(lp4150
a(lp4151
a(lp4152
a(lp4153
a(lp4154
a(lp4155
a(lp4156
I94
aI1658
aI2513
aI122
aI989
aI1450
aI1456
aI190
aI2962
aI229
aI298
aI299
aI300
aI330
aI2171
aI348
aI1458
aI349
aI361
aI362
aI385
aI1489
aI386
aI1569
aI434
aI109
aI435
aI436
aI446
aI471
aI504
aI510
aI519
aI523
aI524
aI658
aI659
aI755
aI756
aI805
aI806
aI834
aI835
aI836
aI837
aI1093
aI1097
aI1098
aI1106
aI1107
aI1173
aI1192
aI1287
aI1288
aI1289
aI1292
aI1294
aI1373
aI1374
aI1375
aI1376
aI1389
aI1407
aI1408
aI1423
aI1437
aI1438
aI1445
aI1446
aI1451
aI1452
aI1457
aI1460
aI1487
aI1506
aI1915
aI1507
aI1508
aI1525
aI1551
aI1563
aI1564
aI1571
aI1582
aI1624
aI1674
aI1806
aI1868
aI1869
aI1881
aI1916
aI2001
aI2077
aI2086
aI2087
aI2109
aI2146
aI2153
aI2154
aI2169
aI2184
aI2185
aI2217
aI2833
aI2834
aI2903
aI2905
aI2969
aI3011
aI3012
aI3014
aI3034
aI3039
aI3040
aI3041
aI3106
aI3126
aI3127
aI3128
aI3134
aI3135
aI3136
aI3377
aI3404
aI3405
aI4079
aI4080
aI4113
aa(lp4157
a(lp4158
a(lp4159
a(lp4160
a(lp4161
a(lp4162
a(lp4163
a(lp4164
a(lp4165
a(lp4166
a(lp4167
a(lp4168
a(lp4169
a(lp4170
a(lp4171
a(lp4172
a(lp4173
a(lp4174
a(lp4175
a(lp4176
a(lp4177
a(lp4178
a(lp4179
a(lp4180
a(lp4181
a(lp4182
a(lp4183
a(lp4184
a(lp4185
a(lp4186
a(lp4187
a(lp4188
a(lp4189
a(lp4190
a(lp4191
a(lp4192
a(lp4193
a(lp4194
a(lp4195
a(lp4196
a(lp4197
a(lp4198
a(lp4199
a(lp4200
a(lp4201
a(lp4202
a(lp4203
a(lp4204
a(lp4205
a(lp4206
a(lp4207
a(lp4208
a(lp4209
a(lp4210
a(lp4211
a(lp4212
a(lp4213
a(lp4214
a(lp4215
a(lp4216
a(lp4217
a(lp4218
a(lp4219
a(lp4220
a(lp4221
I63
aI1489
aI143
aI1092
aI4233
aI4322
aI262
aI278
aI313
aI323
aI349
aI3520
aI354
aI1063
aI430
aI2707
aI449
aI517
aI536
aI910
aI801
aI888
aI942
aI943
aI945
aI946
aI1072
aI1073
aI1074
aI1191
aI1376
aI1721
aI1722
aI2223
aI2284
aI2708
aI1454
aI2793
aI2919
aI3187
aI3268
aI3532
aI3533
aI3580
aI3813
aI4231
aa(lp4222
a(lp4223
a(lp4224
a(lp4225
a(lp4226
a(lp4227
a(lp4228
a(lp4229
a(lp4230
a(lp4231
a(lp4232
I4220
aI2707
aa(lp4233
a(lp4234
I61
aI1220
aI2141
aI109
aI279
aI355
aI110
aI143
aI4220
aI196
aI212
aI2457
aI264
aI291
aI271
aI272
aI292
aI308
aI312
aI317
aI318
aI323
aI328
aI339
aI340
aI348
aI349
aI354
aI385
aI386
aI398
aI418
aI432
aI935
aI436
aI452
aI1314
aI471
aI484
aI485
aI685
aI756
aI780
aI781
aI782
aI829
aI830
aI928
aI934
aI2707
aI942
aI943
aI1000
aI1001
aI1011
aI1012
aI1097
aI1098
aI1138
aI1278
aI1279
aI1373
aI1374
aI1375
aI1476
aI1477
aI1525
aI1581
aI1624
aI1654
aI1655
aI1789
aI2149
aI2165
aI2177
aI2184
aI2185
aI2186
aI2190
aI2191
aI2202
aI2209
aI2214
aI2215
aI2223
aI2225
aI2270
aI2329
aI2330
aI2373
aI2456
aI2500
aI2647
aI3054
aI3241
aI3242
aI3270
aI3271
aI3323
aI3390
aI3605
aI3643
aI3704
aI3705
aI3718
aI3719
aI3720
aI3721
aI3723
aa(lp4235
a(lp4236
a(lp4237
a(lp4238
a(lp4239
a(lp4240
a(lp4241
a(lp4242
a(lp4243
a(lp4244
a(lp4245
a(lp4246
a(lp4247
a(lp4248
a(lp4249
a(lp4250
a(lp4251
a(lp4252
a(lp4253
a(lp4254
a(lp4255
a(lp4256
a(lp4257
a(lp4258
a(lp4259
a(lp4260
a(lp4261
a(lp4262
a(lp4263
a(lp4264
a(lp4265
a(lp4266
a(lp4267
a(lp4268
a(lp4269
a(lp4270
a(lp4271
a(lp4272
a(lp4273
a(lp4274
a(lp4275
a(lp4276
a(lp4277
a(lp4278
I536
aI910
aa(lp4279
a(lp4280
a(lp4281
a(lp4282
a(lp4283
a(lp4284
a(lp4285
a(lp4286
a(lp4287
a(lp4288
a(lp4289
I862
aI2507
aI1551
aI1806
aI2964
aI2969
aa(lp4290
a(lp4291
a(lp4292
a(lp4293
a(lp4294
a(lp4295
a(lp4296
a(lp4297
a(lp4298
a(lp4299
a(lp4300
a(lp4301
a(lp4302
a(lp4303
a(lp4304
a(lp4305
a(lp4306
a(lp4307
a(lp4308
a(lp4309
a(lp4310
a(lp4311
a(lp4312
a(lp4313
a(lp4314
I536
aI910
aI1199
aI1198
aa(lp4315
a(lp4316
a(lp4317
a(lp4318
a(lp4319
a(lp4320
a(lp4321
a(lp4322
a(lp4323
I26
aI104
aI2259
aI27
aI28
aI94
aI2513
aI105
aI112
aI143
aI4220
aI196
aI291
aI292
aI294
aI295
aI296
aI1713
aI297
aI323
aI327
aI332
aI335
aI336
aI348
aI1458
aI349
aI377
aI380
aI385
aI386
aI398
aI480
aI486
aI686
aI687
aI765
aI935
aI771
aI780
aI781
aI782
aI798
aI801
aI829
aI830
aI834
aI934
aI1050
aI1089
aI1091
aI1094
aI1095
aI1097
aI1098
aI1106
aI1107
aI1114
aI1118
aI1207
aI1208
aI1222
aI1252
aI1255
aI1259
aI1260
aI1266
aI1280
aI1287
aI1288
aI1289
aI1304
aI1305
aI1306
aI1373
aI1374
aI1375
aI1414
aI1469
aI1476
aI1477
aI1505
aI1506
aI1525
aI1551
aI1582
aI1597
aI1598
aI1601
aI1602
aI1604
aI1705
aI1753
aI1754
aI1800
aI1801
aI2165
aI2175
aI2176
aI2184
aI2242
aI2185
aI2188
aI2204
aI2205
aI2206
aI2207
aI2209
aI2217
aI2221
aI2222
aI2223
aI2231
aI2232
aI2239
aI2252
aI2261
aI2262
aI2263
aI2264
aI2269
aI2271
aI2284
aI2294
aI2295
aI2296
aI2492
aI2494
aI2495
aI2497
aI2498
aI2499
aI2505
aI2510
aI2511
aI2517
aI2518
aI2519
aI2520
aI2521
aI2833
aI2834
aa(lp4324
a(lp4325
a(lp4326
a(lp4327
a(lp4328
a(lp4329
a(lp4330
a(lp4331
a(lp4332
a(lp4333
a(lp4334
a(lp4335
a(lp4336
a(lp4337
a(lp4338
a(lp4339
a(lp4340
a(lp4341
a(lp4342
a(lp4343
a(lp4344
a(lp4345
a(lp4346
a(lp4347
a(lp4348
a(lp4349
a(lp4350
a(lp4351
a(lp4352
a(lp4353
a(lp4354
a(lp4355
a(lp4356
a(lp4357
a(lp4358
a(lp4359
a(lp4360
a(lp4361
a(lp4362
a(lp4363
a(lp4364
a(lp4365
a(lp4366
a(lp4367
a(lp4368
a(lp4369
a(lp4370
a(lp4371
a(lp4372
a(lp4373
a(lp4374
a(lp4375
a(lp4376
a(lp4377
a(lp4378
a(lp4379
a(lp4380
a(lp4381
a(lp4382
a(lp4383
a(lp4384
a(lp4385
a(lp4386
a(lp4387
a(lp4388
a(lp4389
a(lp4390
a(lp4391
a(lp4392
a(lp4393
a(lp4394
a(lp4395
a(lp4396
a(lp4397
a(lp4398
a(lp4399
a(lp4400
a(lp4401
a(lp4402
a(lp4403
I503
aI1641
aI665
aI1314
aI666
aI748
aI1546
aI1547
aI1548
aa(lp4404
a(lp4405
a(lp4406
a(lp4407
a(lp4408
a(lp4409
a(lp4410
a(lp4411
a(lp4412
a(lp4413
a(lp4414
a(lp4415
I439
aI989
aI449
aI455
aI472
aI473
aI475
aI483
aI504
aI515
aI518
aI530
aI852
aI888
aI890
aI1076
aI1077
aI3356
aa(lp4416
a(lp4417
a(lp4418
a(lp4419
a(lp4420
I263
aI1658
aI449
aI2141
aI659
aI1243
aI1244
aI1351
aI1520
aI1521
aI1551
aI1555
aI1571
aI1881
aI1450
aI2831
aI2969
aI3021
aa(lp4421
I8
aI17
aI19
aI155
aI175
aI204
aI240
aa(lp4422
a(lp4423
a(lp4424
a(lp4425
a(lp4426
a(lp4427
a(lp4428
a(lp4429
a(lp4430
a(lp4431
a(lp4432
a(lp4433
I1518
aI1992
aI1519
aI3252
aI3484
aa(lp4434
a(lp4435
a(lp4436
a(lp4437
a(lp4438
a(lp4439
a(lp4440
a(lp4441
I531
aI439
aI532
aa.