(dp0
I0
(lp1
I214
aI215
aI216
aI217
aI218
aI219
aI220
aI221
aI222
aI223
aI224
aI225
aI226
aI227
aI228
aI229
aI230
aI231
aI232
aI233
aI234
aI235
aI236
aI237
aI238
aI239
aI240
aI241
aI242
aI243
asI1
(lp2
I215
aI217
aI221
aI225
aI227
aI231
aI234
aI236
aI238
aI241
aI243
asI2
(lp3
I215
aI219
aI220
aI222
aI224
aI228
aI230
aI233
aI236
aI239
aI240
aI242
asI3
(lp4
I214
aI216
aI221
aI223
aI224
aI226
aI228
aI233
aI237
aI238
aI240
aI242
aI243
asI4
(lp5
I216
aI218
aI219
aI222
aI223
aI227
aI229
aI233
aI237
aI238
aI239
aI242
asI5
(lp6
I215
aI217
aI219
aI223
aI225
aI227
aI231
aI232
aI235
aI239
aI240
aI241
aI243
as.