(dp0
I0
(lp1
I224
aI225
aI226
aI227
aI228
aI229
aI230
aI231
aI232
aI233
aI234
aI235
aI236
aI237
aI238
aI239
aI240
aI241
aI242
aI243
aI244
aI245
aI246
aI247
aI248
aI249
aI250
aI251
aI252
aI253
asI1
(lp2
I224
aI226
aI231
aI232
aI235
aI239
aI245
aI246
aI250
aI251
aI253
asI2
(lp3
I224
aI226
aI230
aI232
aI235
aI239
aI244
aI247
aI248
aI251
asI3
(lp4
I225
aI228
aI230
aI233
aI234
aI241
aI243
aI247
aI250
aI253
asI4
(lp5
I225
aI226
aI230
aI231
aI237
aI238
aI241
aI246
aI249
aI252
asI5
(lp6
I224
aI227
aI229
aI231
aI236
aI240
aI242
aI246
aI250
aI251
as.