(dp0
I0
(lp1
I150
aI151
aI152
aI153
aI154
aI155
aI156
aI157
aI158
aI159
aI160
aI161
aI162
aI163
aI164
aI165
aI166
aI167
aI168
aI169
aI170
aI171
aI172
aI173
aI174
aI175
aI176
aI177
aI178
aI179
asI1
(lp2
I150
aI151
aI152
aI153
aI155
aI157
aI158
aI161
aI162
aI164
aI166
aI167
aI168
aI170
aI172
aI173
aI175
aI177
aI179
asI2
(lp3
I150
aI151
aI152
aI153
aI156
aI158
aI160
aI161
aI163
aI165
aI166
aI167
aI169
aI170
aI171
aI172
aI174
aI176
aI179
asI3
(lp4
I150
aI151
aI152
aI154
aI157
aI159
aI160
aI163
aI164
aI166
aI168
aI169
aI171
aI172
aI174
aI178
aI179
asI4
(lp5
I150
aI151
aI152
aI154
aI156
aI158
aI159
aI162
aI164
aI166
aI168
aI169
aI170
aI172
aI173
aI175
aI177
aI179
asI5
(lp6
I150
aI151
aI153
aI154
aI155
aI157
aI159
aI161
aI163
aI164
aI165
aI167
aI168
aI171
aI173
aI174
aI175
aI177
aI178
as.