(lp0
(lp1
(I4336
I5120
tp2
a(I4128
I4150
tp3
aa(lp4
g2
a(I4139
I3843
tp5
a(I3270
I3261
tp6
a(I3109
I4560
tp7
aa(lp8
g2
a(I3261
I3761
tp9
ag3
aa(lp10
g2
ag7
ag6
aa(lp11
g2
ag9
aa(lp12
g2
ag5
ag9
ag6
aa(lp13
g2
ag5
aa(lp14
g2
ag7
ag3
ag7
aa(lp15
g2
ag9
ag5
aa(lp16
g2
ag3
ag6
ag9
aa(lp17
g2
ag3
ag5
aa(lp18
g2
ag7
ag6
aa(lp19
g2
ag3
aa(lp20
g2
ag7
ag9
ag6
aa(lp21
g2
ag5
ag3
aa(lp22
g2
ag9
aa(lp23
g2
ag5
aa(lp24
g2
ag6
ag7
aa(lp25
g2
ag6
aa(lp26
g2
ag9
ag5
ag3
aa(lp27
g2
ag7
aa(lp28
g2
ag6
aa(lp29
g2
ag7
ag5
aa(lp30
g2
ag9
ag3
aa(lp31
g2
ag9
ag3
ag7
aa(lp32
g2
ag5
ag6
ag9
aa(lp33
g2
ag3
ag5
ag6
aa(lp34
g2
ag7
ag7
ag6
aa(lp35
g2
ag3
ag9
ag5
aa(lp36
g2
ag6
ag3
ag7
aa.