(lp0
(lp1
(I1241
I5217
tp2
a(I2770
I4503
tp3
a(I3287
I5865
tp4
a(I1643
I4454
tp5
a(I1340
I4469
tp6
a(I3546
I5682
tp7
aa(lp8
g2
ag4
ag3
ag6
ag7
ag5
aa(lp9
g2
ag6
ag5
ag7
ag3
aa(lp10
g2
ag4
ag3
ag5
aa(lp11
g2
ag4
ag6
ag7
aa(lp12
g2
ag4
ag3
aa(lp13
g2
ag6
ag5
aa(lp14
g2
ag7
ag4
ag7
ag3
aa(lp15
g2
ag5
ag6
ag3
aa(lp16
g2
ag4
ag6
ag7
aa(lp17
g2
ag5
ag7
aa(lp18
g2
ag5
ag3
ag4
aa(lp19
g2
ag6
ag6
ag3
aa(lp20
g2
ag7
ag5
ag4
aa(lp21
g2
ag7
ag3
ag4
ag6
aa(lp22
g2
ag5
ag4
aa(lp23
g2
ag7
ag5
ag3
ag6
aa(lp24
g2
ag3
ag4
ag5
aa(lp25
g2
ag6
ag7
ag3
ag4
aa(lp26
g2
ag5
ag7
ag6
aa(lp27
g2
ag3
ag5
ag6
aa(lp28
g2
ag7
ag4
ag4
ag7
ag5
aa(lp29
g2
ag3
ag6
ag6
ag7
ag5
aa(lp30
g2
ag4
ag3
ag6
ag3
aa(lp31
g2
ag5
ag4
ag7
ag7
aa(lp32
g2
ag3
ag6
ag4
aa(lp33
g2
ag5
ag5
aa(lp34
g2
ag3
ag4
ag6
aa(lp35
g2
ag7
ag4
ag7
aa(lp36
g2
ag6
ag3
ag5
ag3
ag7
aa.