(dp0
I224
(lp1
I0
aI2
aI1
aI5
asI225
(lp2
I0
aI3
aI4
asI226
(lp3
I0
aI1
aI2
aI4
asI227
(lp4
I0
aI5
asI228
(lp5
I0
aI3
asI229
(lp6
I0
aI5
asI230
(lp7
I0
aI3
aI4
aI2
asI231
(lp8
I0
aI1
aI4
aI5
asI232
(lp9
I0
aI1
aI2
asI233
(lp10
I0
aI3
asI234
(lp11
I0
aI3
asI235
(lp12
I0
aI1
aI2
asI236
(lp13
I0
aI5
asI237
(lp14
I0
aI4
asI238
(lp15
I0
aI4
asI239
(lp16
I0
aI1
aI2
asI240
(lp17
I0
aI5
asI241
(lp18
I0
aI3
aI4
asI242
(lp19
I0
aI5
asI243
(lp20
I0
aI3
asI244
(lp21
I0
aI2
asI245
(lp22
I0
aI1
asI246
(lp23
I0
aI1
aI5
aI4
asI247
(lp24
I0
aI2
aI3
asI248
(lp25
I0
aI2
asI249
(lp26
I0
aI4
asI250
(lp27
I0
aI5
aI3
aI1
asI251
(lp28
I0
aI1
aI2
aI5
asI252
(lp29
I0
aI4
asI253
(lp30
I0
aI3
aI1
as.