(dp0
I214
(lp1
I0
aI3
asI215
(lp2
I0
aI2
aI5
aI1
asI216
(lp3
I0
aI4
aI3
asI217
(lp4
I0
aI1
aI5
asI218
(lp5
I0
aI4
asI219
(lp6
I0
aI2
aI4
aI5
asI220
(lp7
I0
aI2
asI221
(lp8
I0
aI1
aI3
aI1
asI222
(lp9
I0
aI4
aI2
asI223
(lp10
I0
aI3
aI5
aI4
asI224
(lp11
I0
aI3
aI2
asI225
(lp12
I0
aI1
aI5
asI226
(lp13
I0
aI3
asI227
(lp14
I0
aI1
aI4
aI5
asI228
(lp15
I0
aI2
aI3
asI229
(lp16
I0
aI4
asI230
(lp17
I0
aI2
asI231
(lp18
I0
aI5
aI1
asI232
(lp19
I0
aI5
asI233
(lp20
I0
aI4
aI2
aI3
asI234
(lp21
I0
aI1
asI235
(lp22
I0
aI5
asI236
(lp23
I0
aI1
aI2
asI237
(lp24
I0
aI4
aI3
asI238
(lp25
I0
aI4
aI3
aI1
asI239
(lp26
I0
aI2
aI5
aI4
asI240
(lp27
I0
aI3
aI2
aI5
asI241
(lp28
I0
aI1
aI1
aI5
asI242
(lp29
I0
aI3
aI4
aI2
asI243
(lp30
I0
aI5
aI3
aI1
as.