(dp0
I150
(lp1
I0
aI1
aI5
aI2
aI4
aI3
asI151
(lp2
I0
aI5
aI1
aI4
aI3
aI2
asI152
(lp3
I0
aI4
aI2
aI3
aI1
asI153
(lp4
I0
aI5
aI1
aI2
asI154
(lp5
I0
aI5
aI4
aI3
asI155
(lp6
I0
aI5
aI1
asI156
(lp7
I0
aI4
aI2
asI157
(lp8
I0
aI3
aI5
aI3
aI1
asI158
(lp9
I0
aI2
aI4
aI1
asI159
(lp10
I0
aI5
aI4
aI3
asI160
(lp11
I0
aI2
aI3
asI161
(lp12
I0
aI2
aI1
aI5
asI162
(lp13
I0
aI4
aI4
aI1
asI163
(lp14
I0
aI3
aI2
aI5
asI164
(lp15
I0
aI3
aI1
aI5
aI4
asI165
(lp16
I0
aI2
aI5
asI166
(lp17
I0
aI3
aI2
aI1
aI4
asI167
(lp18
I0
aI1
aI5
aI2
asI168
(lp19
I0
aI4
aI3
aI1
aI5
asI169
(lp20
I0
aI2
aI3
aI4
asI170
(lp21
I0
aI1
aI2
aI4
asI171
(lp22
I0
aI3
aI5
aI5
aI3
aI2
asI172
(lp23
I0
aI1
aI4
aI4
aI3
aI2
asI173
(lp24
I0
aI5
aI1
aI4
aI1
asI174
(lp25
I0
aI2
aI5
aI3
aI3
asI175
(lp26
I0
aI1
aI4
aI5
asI176
(lp27
I0
aI2
aI2
asI177
(lp28
I0
aI1
aI5
aI4
asI178
(lp29
I0
aI3
aI5
aI3
asI179
(lp30
I0
aI4
aI1
aI2
aI1
aI3
as.