(lp0
(I2531
I4385
tp1
a(I2769
I4377
tp2
a(I2974
I4578
tp3
a(I2633
I4540
tp4
a(I2511
I4385
tp5
a(I2989
I4566
tp6
a(I2731
I4720
tp7
a(I3047
I4478
tp8
a(I2539
I4433
tp9
a(I2589
I4513
tp10
a(I2798
I4396
tp11
a(I2828
I4631
tp12
a(I2884
I4549
tp13
a(I2589
I4644
tp14
a(I2780
I4427
tp15
a(I2922
I4612
tp16
a(I2572
I4368
tp17
a(I2901
I4714
tp18
a(I2768
I4249
tp19
a(I2538
I4664
tp20
a(I2948
I4399
tp21
a(I2542
I4370
tp22
a(I2714
I4403
tp23
a(I2837
I4658
tp24
a(I1549
I4421
tp25
a(I1805
I4429
tp26
a(I1796
I4604
tp27
a(I1486
I4341
tp28
a(I1460
I4255
tp29
a(I1600
I4246
tp30
a(I1516
I4629
tp31
a(I1866
I4426
tp32
a(I1516
I4618
tp33
a(I1642
I4309
tp34
a(I1896
I4483
tp35
a(I1539
I4382
tp36
a(I1851
I4339
tp37
a(I1407
I4452
tp38
a(I1495
I4243
tp39
a(I1700
I4693
tp40
a(I1738
I4363
tp41
a(I1676
I4726
tp42
a(I1837
I4379
tp43
a(I1690
I4178
tp44
a(I1526
I4700
tp45
a(I1747
I4677
tp46
a(I1576
I4226
tp47
a(I1719
I4618
tp48
a(I1847
I4500
tp49
a(I1381
I4380
tp50
a(I3478
I5850
tp51
a(I3452
I5730
tp52
a(I3448
I5512
tp53
a(I3741
I5746
tp54
a(I3444
I5785
tp55
a(I3597
I5853
tp56
a(I3484
I5809
tp57
a(I3361
I5699
tp58
a(I3417
I5842
tp59
a(I3583
I5843
tp60
a(I3448
I5470
tp61
a(I3504
I5617
tp62
a(I3478
I5483
tp63
a(I3333
I5575
tp64
a(I3655
I5667
tp65
a(I3592
I5781
tp66
a(I3393
I5597
tp67
a(I3618
I5711
tp68
a(I3344
I5738
tp69
a(I3720
I5568
tp70
a(I3561
I5835
tp71
a(I3455
I5805
tp72
a(I3631
I5471
tp73
a(I3668
I5671
tp74
a(I3530
I5904
tp75
a(I3572
I5462
tp76
a(I3330
I5676
tp77
a(I3590
I5795
tp78
a(I3466
I5796
tp79
a(I3669
I5517
tp80
a(I1378
I4587
tp81
a(I1569
I4309
tp82
a(I1282
I4673
tp83
a(I1188
I4517
tp84
a(I1276
I4460
tp85
a(I1489
I4640
tp86
a(I1517
I4484
tp87
a(I1389
I4733
tp88
a(I1258
I4274
tp89
a(I1410
I4724
tp90
a(I1389
I4388
tp91
a(I1291
I4690
tp92
a(I1448
I4349
tp93
a(I1271
I4352
tp94
a(I1402
I4502
tp95
a(I1184
I4720
tp96
a(I1349
I4510
tp97
a(I1245
I4699
tp98
a(I1376
I4753
tp99
a(I1048
I4508
tp100
a(I1244
I4701
tp101
a(I1270
I4521
tp102
a(I1540
I4288
tp103
a(I1455
I4491
tp104
a(I1118
I4640
tp105
a(I1433
I4695
tp106
a(I1356
I4740
tp107
a(I1046
I4491
tp108
a(I1180
I4635
tp109
a(I3376
I5832
tp110
a(I3105
I5998
tp111
a(I3442
I5815
tp112
a(I3538
I5883
tp113
a(I3301
I5749
tp114
a(I3522
I5816
tp115
a(I3357
I6043
tp116
a(I3212
I6106
tp117
a(I3411
I5780
tp118
a(I3170
I6063
tp119
a(I3364
I5943
tp120
a(I3138
I5996
tp121
a(I3317
I5673
tp122
a(I3256
I5934
tp123
a(I3374
I5836
tp124
a(I3201
I5830
tp125
a(I3488
I5942
tp126
a(I3215
I5801
tp127
a(I3295
I5836
tp128
a(I3410
I6009
tp129
a.