(lp0
(I2500
I4905
tp1
a(I2549
I4969
tp2
a(I2506
I4805
tp3
a(I2464
I5011
tp4
a(I2506
I4856
tp5
a(I2654
I4990
tp6
a(I2469
I4860
tp7
a(I2580
I4862
tp8
a(I2566
I4884
tp9
a(I2535
I4959
tp10
a(I2548
I5041
tp11
a(I2549
I4968
tp12
a(I2560
I5032
tp13
a(I2480
I5047
tp14
a(I2538
I4987
tp15
a(I2474
I4848
tp16
a(I2551
I4968
tp17
a(I2726
I4880
tp18
a(I2650
I4806
tp19
a(I2491
I4978
tp20
a(I2552
I4850
tp21
a(I2496
I4956
tp22
a(I2619
I4988
tp23
a(I2448
I5052
tp24
a(I2697
I4900
tp25
a(I2496
I4919
tp26
a(I2552
I4975
tp27
a(I2554
I4954
tp28
a(I2561
I5135
tp29
a(I2612
I5118
tp30
a(I2535
I4972
tp31
a(I2477
I5020
tp32
a(I2415
I5096
tp33
a(I2553
I4960
tp34
a(I2640
I4987
tp35
a(I2627
I5071
tp36
a(I2510
I4935
tp37
a(I2548
I5056
tp38
a(I2509
I4959
tp39
a(I2520
I5014
tp40
a(I2545
I5054
tp41
a(I2560
I4882
tp42
a(I2606
I5032
tp43
a(I1112
I6045
tp44
a(I1156
I5975
tp45
a(I1098
I5941
tp46
a(I1113
I5894
tp47
a(I1083
I5928
tp48
a(I1060
I5913
tp49
a(I1082
I5925
tp50
a(I1091
I5921
tp51
a(I1167
I5827
tp52
a(I1050
I5908
tp53
a(I1029
I5859
tp54
a(I1090
I5939
tp55
a(I1135
I5933
tp56
a(I1062
I5897
tp57
a(I1193
I5854
tp58
a(I1092
I5900
tp59
a(I1034
I5909
tp60
a(I1060
I5882
tp61
a(I1151
I5926
tp62
a(I1118
I5849
tp63
a(I1154
I5948
tp64
a(I1180
I5937
tp65
a(I1069
I5984
tp66
a(I1087
I5919
tp67
a(I1113
I5933
tp68
a(I1052
I5832
tp69
a(I1089
I5905
tp70
a(I1145
I5990
tp71
a(I1039
I5927
tp72
a(I1079
I5914
tp73
a(I3478
I5586
tp74
a(I3281
I5819
tp75
a(I3336
I5845
tp76
a(I3332
I5760
tp77
a(I3162
I5739
tp78
a(I3217
I5699
tp79
a(I3211
I5701
tp80
a(I3296
I5824
tp81
a(I3384
I5617
tp82
a(I3318
I5906
tp83
a(I3304
I5799
tp84
a(I3380
I5789
tp85
a(I3371
I5690
tp86
a(I3321
I5888
tp87
a(I3298
I5830
tp88
a(I3270
I5874
tp89
a(I3273
I5860
tp90
a(I3076
I5705
tp91
a(I3342
I5824
tp92
a(I3311
I5789
tp93
a(I3308
I5818
tp94
a(I3328
I5622
tp95
a(I3321
I5723
tp96
a(I3351
I5820
tp97
a(I3279
I5845
tp98
a(I3360
I5805
tp99
a(I3201
I5732
tp100
a(I3486
I5735
tp101
a(I3274
I5848
tp102
a(I3243
I5927
tp103
a(I3303
I5823
tp104
a(I3423
I5827
tp105
a(I3396
I6048
tp106
a(I3296
I5807
tp107
a(I3398
I5757
tp108
a(I3334
I5842
tp109
a(I3111
I5725
tp110
a(I3121
I5817
tp111
a(I3297
I5824
tp112
a(I3223
I5709
tp113
a(I3340
I5830
tp114
a(I3313
I5833
tp115
a(I3431
I5923
tp116
a(I3259
I5773
tp117
a(I3222
I5837
tp118
a(I3240
I5927
tp119
a(I3067
I5929
tp120
a(I3098
I5796
tp121
a(I3262
I5894
tp122
a(I3975
I3681
tp123
a(I3979
I3765
tp124
a(I3903
I3432
tp125
a(I3964
I3560
tp126
a(I4034
I3607
tp127
a(I3920
I3695
tp128
a(I3994
I3600
tp129
a(I3964
I3450
tp130
a(I3969
I3699
tp131
a(I3960
I3567
tp132
a(I4119
I3516
tp133
a(I3996
I3594
tp134
a(I4106
I3493
tp135
a(I3995
I3600
tp136
a(I3984
I3608
tp137
a(I3977
I3623
tp138
a(I3893
I3628
tp139
a(I3907
I3572
tp140
a(I4015
I3589
tp141
a(I3990
I3686
tp142
a(I4014
I3602
tp143
a(I4011
I3788
tp144
a(I4008
I3543
tp145
a(I3846
I3657
tp146
a(I4048
I3543
tp147
a(I3939
I3616
tp148
a(I4003
I3596
tp149
a(I3964
I3578
tp150
a(I4171
I3513
tp151
a(I3971
I3565
tp152
a(I3978
I3600
tp153
a(I4016
I3592
tp154
a(I3981
I3593
tp155
a(I3894
I3466
tp156
a(I3904
I3657
tp157
a(I3979
I3715
tp158
a(I4068
I3606
tp159
a(I4056
I3678
tp160
a(I3977
I3640
tp161
a(I3968
I3632
tp162
a(I4138
I3640
tp163
a(I4014
I3721
tp164
a(I4096
I3565
tp165
a(I4184
I3588
tp166
a(I4826
I4577
tp167
a(I4670
I4530
tp168
a(I4578
I4304
tp169
a(I4490
I4489
tp170
a(I4577
I4502
tp171
a(I4555
I4497
tp172
a(I4458
I4477
tp173
a(I4563
I4486
tp174
a(I4598
I4526
tp175
a(I4514
I4477
tp176
a(I4702
I4413
tp177
a(I4508
I4550
tp178
a(I4584
I4514
tp179
a(I4582
I4563
tp180
a(I4589
I4506
tp181
a(I4426
I4676
tp182
a(I4555
I4506
tp183
a(I4788
I4558
tp184
a(I4552
I4573
tp185
a(I4605
I4493
tp186
a(I4634
I4509
tp187
a(I4539
I4482
tp188
a(I4579
I4619
tp189
a(I4634
I4433
tp190
a(I4683
I4554
tp191
a(I4680
I4531
tp192
a(I4555
I4518
tp193
a(I4570
I4388
tp194
a(I4482
I4446
tp195
a(I4604
I4485
tp196
a(I4619
I4504
tp197
a(I4548
I4560
tp198
a(I4554
I4588
tp199
a(I4758
I4503
tp200
a(I4600
I4496
tp201
a(I4671
I4423
tp202
a(I4621
I4512
tp203
a(I4550
I4581
tp204
a(I4687
I4433
tp205
a(I4470
I4651
tp206
a(I4586
I4498
tp207
a(I4557
I4523
tp208
a.