(lp0
(I3111
I4516
tp1
a(I3095
I4437
tp2
a(I3079
I4671
tp3
a(I3221
I4638
tp4
a(I3096
I4526
tp5
a(I3092
I4643
tp6
a(I3037
I4493
tp7
a(I3045
I4427
tp8
a(I3187
I4600
tp9
a(I3044
I4598
tp10
a(I3150
I4570
tp11
a(I3126
I4632
tp12
a(I3163
I4596
tp13
a(I3209
I4640
tp14
a(I3118
I4630
tp15
a(I3049
I4513
tp16
a(I3229
I4497
tp17
a(I3136
I4574
tp18
a(I3090
I4473
tp19
a(I3223
I4609
tp20
a(I3136
I4558
tp21
a(I3260
I4552
tp22
a(I3229
I4595
tp23
a(I3103
I4536
tp24
a(I3097
I4682
tp25
a(I3099
I4600
tp26
a(I3116
I4562
tp27
a(I3091
I4613
tp28
a(I3118
I4516
tp29
a(I3051
I4632
tp30
a(I2991
I4503
tp31
a(I2926
I4438
tp32
a(I3050
I4591
tp33
a(I3063
I4639
tp34
a(I3085
I4642
tp35
a(I3161
I4581
tp36
a(I3143
I4594
tp37
a(I3132
I4567
tp38
a(I3203
I4324
tp39
a(I3109
I4563
tp40
a(I3053
I4544
tp41
a(I3098
I4525
tp42
a(I3057
I4490
tp43
a(I3087
I4541
tp44
a(I3075
I4545
tp45
a(I3149
I4578
tp46
a(I2983
I4443
tp47
a(I3093
I4490
tp48
a(I3101
I4554
tp49
a(I4103
I3836
tp50
a(I4167
I3887
tp51
a(I4163
I3837
tp52
a(I4249
I3921
tp53
a(I4139
I3843
tp54
a(I4187
I3853
tp55
a(I4140
I3852
tp56
a(I4254
I3818
tp57
a(I4166
I3873
tp58
a(I4169
I3789
tp59
a(I4203
I3853
tp60
a(I4238
I3963
tp61
a(I4160
I3845
tp62
a(I4134
I3766
tp63
a(I4139
I3835
tp64
a(I4145
I3842
tp65
a(I3928
I3867
tp66
a(I4108
I3850
tp67
a(I4188
I3891
tp68
a(I4142
I3832
tp69
a(I4043
I3773
tp70
a(I4128
I3833
tp71
a(I4152
I3797
tp72
a(I4122
I3807
tp73
a(I4135
I3824
tp74
a(I4142
I3940
tp75
a(I4169
I3845
tp76
a(I4254
I3886
tp77
a(I4016
I3894
tp78
a(I4139
I3843
tp79
a(I4033
I4112
tp80
a(I4170
I4209
tp81
a(I4072
I4134
tp82
a(I4310
I4194
tp83
a(I4134
I4257
tp84
a(I4101
I4028
tp85
a(I4090
I4204
tp86
a(I4120
I4148
tp87
a(I4029
I4213
tp88
a(I4271
I4197
tp89
a(I4215
I4139
tp90
a(I4137
I4152
tp91
a(I3965
I4156
tp92
a(I4109
I4261
tp93
a(I4133
I4144
tp94
a(I4142
I4072
tp95
a(I4151
I4188
tp96
a(I4223
I4295
tp97
a(I4112
I4027
tp98
a(I4103
I4324
tp99
a(I4198
I4183
tp100
a(I4144
I3953
tp101
a(I4062
I4086
tp102
a(I4098
I4184
tp103
a(I4127
I4151
tp104
a(I4115
I4138
tp105
a(I4124
I4166
tp106
a(I4233
I4084
tp107
a(I4139
I4321
tp108
a(I4153
I4126
tp109
a(I4122
I4119
tp110
a(I4104
I4153
tp111
a(I4128
I4319
tp112
a(I4133
I4133
tp113
a(I4082
I4114
tp114
a(I4120
I4146
tp115
a(I4120
I4129
tp116
a(I4035
I4258
tp117
a(I4043
I4190
tp118
a(I4126
I4219
tp119
a(I4331
I4017
tp120
a(I4238
I4257
tp121
a(I4139
I4141
tp122
a(I3970
I4119
tp123
a(I4198
I4009
tp124
a(I3192
I3900
tp125
a(I3196
I3788
tp126
a(I3273
I3701
tp127
a(I3313
I3744
tp128
a(I3256
I3720
tp129
a(I3248
I3765
tp130
a(I3250
I3757
tp131
a(I3247
I3748
tp132
a(I3212
I3800
tp133
a(I3266
I3791
tp134
a(I3247
I3698
tp135
a(I3188
I3665
tp136
a(I3230
I3736
tp137
a(I3254
I3813
tp138
a(I3365
I3831
tp139
a(I3246
I3709
tp140
a(I3251
I3862
tp141
a(I3207
I3827
tp142
a(I3280
I3723
tp143
a(I3360
I3865
tp144
a(I3322
I3783
tp145
a(I3210
I3681
tp146
a(I3320
I3623
tp147
a(I3333
I3753
tp148
a(I3224
I3830
tp149
a(I3193
I3704
tp150
a(I3325
I3766
tp151
a(I3255
I3766
tp152
a(I3148
I3687
tp153
a(I3228
I3673
tp154
a(I3339
I3885
tp155
a(I3256
I3710
tp156
a(I3286
I3796
tp157
a(I3208
I3787
tp158
a(I3302
I3718
tp159
a(I3264
I3786
tp160
a(I3181
I3672
tp161
a(I3258
I3762
tp162
a(I3196
I3632
tp163
a(I3205
I3741
tp164
a(I3197
I3820
tp165
a(I3228
I3778
tp166
a(I3174
I3693
tp167
a(I3318
I3819
tp168
a(I3248
I3748
tp169
a(I3117
I3377
tp170
a(I3156
I3355
tp171
a(I3331
I3188
tp172
a(I3178
I3215
tp173
a(I3234
I3121
tp174
a(I3426
I3366
tp175
a(I3187
I3219
tp176
a(I3393
I3290
tp177
a(I3156
I3350
tp178
a(I3305
I3133
tp179
a(I3207
I3287
tp180
a(I3354
I3251
tp181
a(I3288
I3352
tp182
a(I3400
I3462
tp183
a(I3345
I3261
tp184
a(I3340
I3306
tp185
a(I3533
I3430
tp186
a(I3189
I3366
tp187
a(I3307
I3286
tp188
a(I3119
I3308
tp189
a(I3326
I3240
tp190
a(I3276
I3246
tp191
a(I3284
I3314
tp192
a(I3267
I3106
tp193
a(I3295
I3284
tp194
a(I3234
I3165
tp195
a(I3334
I3239
tp196
a(I3363
I3291
tp197
a(I3392
I3446
tp198
a(I3002
I3233
tp199
a(I3309
I3248
tp200
a(I3276
I3239
tp201
a(I3081
I3232
tp202
a.