(dp0
I0
(lp1
I177
aI178
aI179
aI180
aI181
aI182
aI183
aI184
aI185
aI186
aI187
aI188
aI189
aI190
aI191
aI192
aI193
aI194
aI195
aI196
aI197
aI198
aI199
aI200
aI201
aI202
aI203
aI204
aI205
aI206
asI1
(lp2
I178
aI179
aI181
aI182
aI184
aI186
aI189
aI190
aI191
aI194
aI195
aI198
aI201
aI203
aI204
aI206
asI2
(lp3
I177
aI178
aI180
aI181
aI183
aI187
aI188
aI190
aI192
aI193
aI195
aI197
aI198
aI200
aI201
aI203
aI204
aI205
aI206
asI3
(lp4
I177
aI179
aI180
aI181
aI182
aI185
aI186
aI189
aI190
aI192
aI194
aI196
aI197
aI199
aI202
aI204
aI206
asI4
(lp5
I178
aI179
aI180
aI181
aI183
aI185
aI187
aI188
aI189
aI192
aI193
aI194
aI196
aI197
aI199
aI200
aI203
aI204
aI205
asI5
(lp6
I177
aI178
aI180
aI181
aI182
aI184
aI187
aI189
aI190
aI191
aI194
aI195
aI196
aI198
aI199
aI201
aI203
aI206
as.