(dp0
I0
(lp1
I256
aI257
aI258
aI259
aI260
aI231
aI232
aI233
aI234
aI235
aI236
aI237
aI238
aI239
aI240
aI241
aI242
aI243
aI244
aI245
aI246
aI247
aI248
aI249
aI250
aI251
aI252
aI253
aI254
aI255
asI1
(lp2
I259
aI260
aI232
aI235
aI238
aI242
aI245
aI249
aI250
aI254
asI2
(lp3
I257
aI259
aI233
aI236
aI238
aI241
aI245
aI246
aI249
aI252
asI3
(lp4
I257
aI258
aI234
aI235
aI239
aI240
aI244
aI247
aI250
aI253
asI4
(lp5
I256
aI260
aI232
aI235
aI236
aI242
aI243
aI246
aI251
aI253
asI5
(lp6
I259
aI231
aI236
aI237
aI243
aI245
aI248
aI250
aI253
aI255
as.