(dp0
I0
(lp1
I256
aI257
aI258
aI229
aI230
aI231
aI232
aI233
aI234
aI235
aI236
aI237
aI238
aI239
aI240
aI241
aI242
aI243
aI244
aI245
aI246
aI247
aI248
aI249
aI250
aI251
aI252
aI253
aI254
aI255
asI1
(lp2
I257
aI258
aI230
aI232
aI235
aI239
aI242
aI244
aI246
aI250
aI253
asI2
(lp3
I257
aI258
aI231
aI234
aI237
aI238
aI240
aI244
aI247
aI248
aI254
asI3
(lp4
I232
aI236
aI239
aI241
aI243
aI247
aI248
aI251
aI255
asI4
(lp5
I256
aI258
aI229
aI233
aI235
aI238
aI240
aI245
aI248
aI250
aI251
asI5
(lp6
I257
aI229
aI234
aI235
aI238
aI240
aI245
aI247
aI249
aI252
aI255
as.