(dp0
I0
(lp1
I155
aI156
aI157
aI158
aI159
aI160
aI161
aI162
aI163
aI164
aI165
aI166
aI167
aI168
aI169
aI170
aI171
aI172
aI173
aI174
aI175
aI176
aI177
aI178
aI179
aI180
aI181
aI182
aI183
aI184
asI1
(lp2
I155
aI156
aI159
aI161
aI162
aI163
aI164
aI166
aI168
aI169
aI171
aI172
aI173
aI175
aI176
aI178
aI180
aI181
aI183
aI184
asI2
(lp3
I155
aI156
aI159
aI161
aI162
aI163
aI164
aI165
aI167
aI168
aI169
aI171
aI172
aI173
aI175
aI176
aI177
aI179
aI180
aI181
aI182
aI184
asI3
(lp4
I155
aI156
aI158
aI159
aI161
aI163
aI165
aI167
aI169
aI170
aI171
aI172
aI173
aI175
aI176
aI177
aI179
aI180
aI181
aI182
aI183
aI184
asI4
(lp5
I155
aI157
aI160
aI161
aI163
aI165
aI167
aI168
aI170
aI171
aI172
aI174
aI176
aI177
aI178
aI180
aI181
aI183
aI184
asI5
(lp6
I155
aI156
aI158
aI160
aI161
aI164
aI166
aI167
aI168
aI170
aI172
aI174
aI176
aI177
aI178
aI179
aI181
aI182
aI183
as.