(dp0
I177
(lp1
I0
aI3
aI5
aI2
asI178
(lp2
I0
aI1
aI4
aI5
aI2
aI1
asI179
(lp3
I0
aI4
aI3
aI1
asI180
(lp4
I0
aI3
aI4
aI2
aI5
asI181
(lp5
I0
aI2
aI1
aI4
aI3
aI5
asI182
(lp6
I0
aI1
aI3
aI5
asI183
(lp7
I0
aI2
aI4
aI2
asI184
(lp8
I0
aI1
aI5
asI185
(lp9
I0
aI3
aI4
asI186
(lp10
I0
aI3
aI1
asI187
(lp11
I0
aI4
aI5
aI2
asI188
(lp12
I0
aI4
aI2
asI189
(lp13
I0
aI3
aI1
aI5
aI4
asI190
(lp14
I0
aI3
aI1
aI5
aI2
aI3
asI191
(lp15
I0
aI5
aI1
asI192
(lp16
I0
aI4
aI2
aI3
asI193
(lp17
I0
aI2
aI4
asI194
(lp18
I0
aI1
aI5
aI3
aI4
aI1
asI195
(lp19
I0
aI2
aI5
aI1
asI196
(lp20
I0
aI5
aI3
aI4
asI197
(lp21
I0
aI2
aI4
aI3
asI198
(lp22
I0
aI2
aI5
aI1
aI1
asI199
(lp23
I0
aI3
aI5
aI4
asI200
(lp24
I0
aI2
aI4
asI201
(lp25
I0
aI2
aI5
aI1
asI202
(lp26
I0
aI3
aI3
asI203
(lp27
I0
aI4
aI5
aI1
aI2
aI5
asI204
(lp28
I0
aI1
aI4
aI2
aI3
asI205
(lp29
I0
aI2
aI4
asI206
(lp30
I0
aI1
aI3
aI5
aI2
as.