(lp0
(lp1
(I4313
I3914
tp2
a(I4279
I4652
tp3
a(I4911
I4959
tp4
aa(lp5
g2
a(I1270
I4799
tp6
aa(lp7
g2
a(I3716
I4572
tp8
aa(lp9
g2
a(I3896
I3815
tp10
ag10
ag6
aa(lp11
g2
ag3
aa(lp12
g2
ag8
ag4
aa(lp13
g2
ag3
ag4
ag6
aa(lp14
g2
ag10
aa(lp15
g2
ag8
aa(lp16
g2
ag3
ag8
ag4
aa(lp17
g2
ag6
ag10
aa(lp18
g2
ag4
ag3
ag8
aa(lp19
g2
ag10
aa(lp20
g2
ag6
aa(lp21
g2
ag10
aa(lp22
g2
ag8
ag6
aa(lp23
g2
ag4
ag3
aa(lp24
g2
ag6
aa(lp25
g2
ag10
ag8
ag4
aa(lp26
g2
ag3
ag10
ag8
aa(lp27
g2
ag4
aa(lp28
g2
ag3
ag6
aa(lp29
g2
ag10
ag3
aa(lp30
g2
ag4
aa(lp31
g2
ag6
aa(lp32
g2
ag8
aa(lp33
g2
ag10
ag4
aa(lp34
g2
ag3
aa(lp35
g2
ag8
ag6
ag4
aa(lp36
g2
ag6
ag8
ag3
aa.