(lp0
(lp1
(I2526
I4578
tp2
a(I3757
I3911
tp3
a(I3025
I3961
tp4
a(I2419
I5063
tp5
a(I2736
I4633
tp6
a(I3331
I3032
tp7
aa(lp8
g2
ag3
ag7
ag4
ag6
aa(lp9
g2
ag5
ag5
aa(lp10
g2
ag7
ag3
aa(lp11
g2
ag6
ag4
ag3
aa(lp12
g2
ag7
ag5
aa(lp13
g2
ag4
ag6
ag3
ag7
ag5
aa(lp14
g2
ag6
ag4
aa(lp15
g2
ag5
ag6
ag4
ag3
aa(lp16
g2
ag7
ag7
ag4
ag6
aa(lp17
g2
ag5
ag3
ag6
ag3
aa(lp18
g2
ag4
ag7
aa(lp19
g2
ag5
ag5
ag6
ag7
ag3
aa(lp20
g2
ag4
ag6
ag4
ag5
ag7
aa(lp21
g2
ag3
ag6
ag4
aa(lp22
g2
ag3
ag5
ag7
ag7
aa(lp23
g2
ag5
ag6
ag4
ag3
aa(lp24
g2
ag7
ag5
ag6
ag4
ag3
aa(lp25
g2
ag4
ag6
ag3
aa(lp26
g2
ag7
ag5
ag7
ag5
aa(lp27
g2
ag6
ag4
ag3
aa(lp28
g2
ag5
ag6
ag3
ag4
ag7
aa(lp29
g2
ag3
ag6
ag7
ag5
aa(lp30
g2
ag4
ag7
ag5
ag4
aa(lp31
g2
ag3
ag6
ag7
aa(lp32
g2
ag4
ag5
ag6
ag3
ag5
aa(lp33
g2
ag6
ag3
ag4
ag7
ag5
aa(lp34
g2
ag3
ag6
ag7
aa(lp35
g2
ag4
ag4
ag3
ag7
ag5
aa(lp36
g2
ag6
ag6
ag4
ag5
ag3
aa.