(lp0
(lp1
(I4488
I3052
tp2
a(I1626
I4713
tp3
aa(lp4
g2
a(I1697
I4976
tp5
a(I3415
I5039
tp6
aa(lp7
g2
a(I2711
I5746
tp8
aa(lp9
g2
a(I2579
I4781
tp10
aa(lp11
g2
ag6
ag5
ag10
aa(lp12
g2
ag8
ag3
ag6
aa(lp13
g2
ag3
aa(lp14
g2
ag5
ag8
aa(lp15
g2
ag10
aa(lp16
g2
ag10
aa(lp17
g2
ag8
aa(lp18
g2
ag6
ag5
aa(lp19
g2
ag3
ag6
aa(lp20
g2
ag10
aa(lp21
g2
ag8
ag3
ag5
aa(lp22
g2
ag8
ag6
aa(lp23
g2
ag10
aa(lp24
g2
ag3
aa(lp25
g2
ag5
ag8
aa(lp26
g2
ag10
ag5
ag3
aa(lp27
g2
ag6
aa(lp28
g2
ag8
aa(lp29
g2
ag6
ag10
ag3
aa(lp30
g2
ag5
ag5
aa(lp31
g2
ag3
aa(lp32
g2
ag6
aa(lp33
g2
ag10
ag8
aa(lp34
g2
ag10
aa(lp35
g2
ag8
ag3
ag5
aa(lp36
g2
ag6
ag5
aa.