(dp0
I155
(lp1
I0
aI3
aI1
aI4
aI2
aI5
asI156
(lp2
I0
aI3
aI5
aI1
aI2
asI157
(lp3
I0
aI4
aI4
asI158
(lp4
I0
aI5
aI3
asI159
(lp5
I0
aI2
aI1
aI3
asI160
(lp6
I0
aI5
aI4
asI161
(lp7
I0
aI1
aI2
aI3
aI5
aI4
asI162
(lp8
I0
aI2
aI1
asI163
(lp9
I0
aI4
aI2
aI1
aI3
asI164
(lp10
I0
aI5
aI5
aI1
aI2
asI165
(lp11
I0
aI4
aI3
aI2
aI3
asI166
(lp12
I0
aI1
aI5
asI167
(lp13
I0
aI4
aI4
aI2
aI5
aI3
asI168
(lp14
I0
aI1
aI2
aI1
aI4
aI5
asI169
(lp15
I0
aI3
aI2
aI1
asI170
(lp16
I0
aI3
aI4
aI5
aI5
asI171
(lp17
I0
aI4
aI2
aI1
aI3
asI172
(lp18
I0
aI5
aI4
aI2
aI1
aI3
asI173
(lp19
I0
aI1
aI2
aI3
asI174
(lp20
I0
aI5
aI4
aI5
aI4
asI175
(lp21
I0
aI2
aI1
aI3
asI176
(lp22
I0
aI4
aI2
aI3
aI1
aI5
asI177
(lp23
I0
aI3
aI2
aI5
aI4
asI178
(lp24
I0
aI1
aI5
aI4
aI1
asI179
(lp25
I0
aI3
aI2
aI5
asI180
(lp26
I0
aI1
aI4
aI2
aI3
aI4
asI181
(lp27
I0
aI2
aI3
aI1
aI5
aI4
asI182
(lp28
I0
aI3
aI2
aI5
asI183
(lp29
I0
aI1
aI1
aI3
aI5
aI4
asI184
(lp30
I0
aI2
aI2
aI1
aI4
aI3
as.