(lp0
(I3553
I4238
tp1
a(I3446
I4226
tp2
a(I3440
I4219
tp3
a(I3450
I4174
tp4
a(I3529
I4168
tp5
a(I3541
I4162
tp6
a(I3610
I4152
tp7
a(I3499
I4190
tp8
a(I3349
I4186
tp9
a(I3513
I4222
tp10
a(I3526
I4169
tp11
a(I3420
I4193
tp12
a(I3450
I4187
tp13
a(I3529
I4184
tp14
a(I3690
I4139
tp15
a(I3616
I4270
tp16
a(I3597
I4140
tp17
a(I3541
I4379
tp18
a(I3425
I3978
tp19
a(I3757
I4110
tp20
a(I3502
I4367
tp21
a(I3547
I4311
tp22
a(I3466
I3989
tp23
a(I3442
I4051
tp24
a(I3656
I4225
tp25
a(I3580
I4172
tp26
a(I3536
I4172
tp27
a(I3543
I4165
tp28
a(I3569
I4228
tp29
a(I3509
I4096
tp30
a(I3684
I4140
tp31
a(I1607
I2986
tp32
a(I1541
I3109
tp33
a(I1660
I2978
tp34
a(I1580
I3093
tp35
a(I1602
I3126
tp36
a(I1555
I3097
tp37
a(I1484
I3000
tp38
a(I1600
I3091
tp39
a(I1584
I3076
tp40
a(I1600
I2958
tp41
a(I1562
I3142
tp42
a(I1536
I3041
tp43
a(I1514
I3034
tp44
a(I1558
I3092
tp45
a(I1371
I3079
tp46
a(I1617
I3159
tp47
a(I1577
I3090
tp48
a(I1555
I3158
tp49
a(I1581
I3071
tp50
a(I1550
I3091
tp51
a(I1626
I3041
tp52
a(I1579
I3149
tp53
a(I1594
I3029
tp54
a(I1559
I3079
tp55
a(I1566
I3088
tp56
a(I1495
I3070
tp57
a(I1514
I2969
tp58
a(I1588
I3113
tp59
a(I1432
I3064
tp60
a(I1535
I2970
tp61
a(I1656
I3124
tp62
a(I1581
I3146
tp63
a(I1561
I3096
tp64
a(I1588
I3085
tp65
a(I1634
I3061
tp66
a(I1573
I3097
tp67
a(I1460
I3069
tp68
a(I1566
I3084
tp69
a(I1462
I3162
tp70
a(I1520
I3111
tp71
a(I1590
I3031
tp72
a(I1550
I3120
tp73
a(I1463
I3162
tp74
a(I1410
I3097
tp75
a(I1532
I3121
tp76
a(I1638
I3159
tp77
a(I1568
I3055
tp78
a(I1940
I4426
tp79
a(I1964
I4391
tp80
a(I1771
I4426
tp81
a(I1926
I4389
tp82
a(I1782
I4260
tp83
a(I1826
I4358
tp84
a(I1757
I4421
tp85
a(I2065
I4180
tp86
a(I1934
I4448
tp87
a(I1885
I4657
tp88
a(I1835
I4462
tp89
a(I1837
I4420
tp90
a(I1991
I4269
tp91
a(I1911
I4402
tp92
a(I1777
I4348
tp93
a(I2080
I4634
tp94
a(I1843
I4190
tp95
a(I1904
I4276
tp96
a(I1986
I4441
tp97
a(I1904
I4386
tp98
a(I1939
I4386
tp99
a(I1871
I4419
tp100
a(I1837
I4294
tp101
a(I1838
I4542
tp102
a(I1754
I4285
tp103
a(I1890
I4297
tp104
a(I1995
I4398
tp105
a(I1912
I4400
tp106
a(I1830
I4337
tp107
a(I1775
I4330
tp108
a(I1167
I4831
tp109
a(I1137
I4880
tp110
a(I1107
I4940
tp111
a(I1255
I5041
tp112
a(I1132
I4944
tp113
a(I1154
I4933
tp114
a(I1203
I5005
tp115
a(I1134
I5075
tp116
a(I1054
I5189
tp117
a(I1165
I4910
tp118
a(I1178
I4895
tp119
a(I1137
I4945
tp120
a(I1286
I4998
tp121
a(I1167
I4979
tp122
a(I1116
I4922
tp123
a(I1272
I4922
tp124
a(I1157
I4922
tp125
a(I1375
I4851
tp126
a(I1071
I5072
tp127
a(I1038
I4876
tp128
a(I1063
I4940
tp129
a(I1097
I4940
tp130
a(I1118
I4951
tp131
a(I1152
I4960
tp132
a(I1801
I3087
tp133
a(I1847
I3184
tp134
a(I1769
I3017
tp135
a(I1793
I3160
tp136
a(I1861
I3300
tp137
a(I1807
I3187
tp138
a(I1886
I3193
tp139
a(I1826
I3165
tp140
a(I1828
I3236
tp141
a(I1824
I3166
tp142
a(I1830
I3160
tp143
a(I1798
I3183
tp144
a(I1901
I3029
tp145
a(I1826
I3187
tp146
a(I1797
I3203
tp147
a(I1825
I3167
tp148
a(I1814
I3172
tp149
a(I1794
I3045
tp150
a(I1751
I3167
tp151
a(I1935
I3157
tp152
a(I1907
I3201
tp153
a(I1795
I3170
tp154
a(I1862
I3139
tp155
a(I1821
I3274
tp156
a(I1800
I3189
tp157
a(I1826
I3165
tp158
a(I1771
I3100
tp159
a.