(lp0
(I1576
I4969
tp1
a(I1694
I4995
tp2
a(I1647
I5067
tp3
a(I1703
I4985
tp4
a(I1665
I4823
tp5
a(I1746
I4902
tp6
a(I1709
I4942
tp7
a(I1737
I4971
tp8
a(I1751
I5050
tp9
a(I1638
I4912
tp10
a(I1588
I4854
tp11
a(I1566
I4911
tp12
a(I1706
I4961
tp13
a(I1701
I4978
tp14
a(I1772
I4956
tp15
a(I1629
I5083
tp16
a(I1541
I4865
tp17
a(I1692
I4973
tp18
a(I1656
I5075
tp19
a(I1687
I4944
tp20
a(I1741
I4996
tp21
a(I1779
I4908
tp22
a(I1764
I5007
tp23
a(I1715
I5103
tp24
a(I1763
I4978
tp25
a(I1696
I4976
tp26
a(I1723
I4972
tp27
a(I1695
I4951
tp28
a(I1681
I5000
tp29
a(I1816
I4920
tp30
a(I1665
I4978
tp31
a(I1796
I4796
tp32
a(I1600
I4941
tp33
a(I1598
I4959
tp34
a(I1626
I4980
tp35
a(I1692
I4974
tp36
a(I1807
I5134
tp37
a(I1627
I5062
tp38
a(I1796
I4963
tp39
a(I1669
I5206
tp40
a(I1652
I5001
tp41
a(I1654
I5094
tp42
a(I1548
I5010
tp43
a(I1748
I5087
tp44
a(I1660
I4847
tp45
a(I1644
I5083
tp46
a(I1665
I4968
tp47
a(I1613
I5159
tp48
a(I2697
I5843
tp49
a(I2678
I5817
tp50
a(I2711
I5758
tp51
a(I2780
I5662
tp52
a(I2645
I5812
tp53
a(I2753
I5746
tp54
a(I2624
I5690
tp55
a(I2711
I5775
tp56
a(I2710
I5735
tp57
a(I2664
I5553
tp58
a(I2533
I5785
tp59
a(I2667
I5795
tp60
a(I2744
I5706
tp61
a(I2647
I5800
tp62
a(I2718
I5716
tp63
a(I2522
I5819
tp64
a(I2726
I5751
tp65
a(I2579
I5912
tp66
a(I2760
I5755
tp67
a(I2677
I5866
tp68
a(I2704
I5762
tp69
a(I2564
I5671
tp70
a(I2759
I5721
tp71
a(I2796
I5818
tp72
a(I2699
I5769
tp73
a(I2610
I5631
tp74
a(I2614
I5668
tp75
a(I2617
I5636
tp76
a(I2708
I5743
tp77
a(I2851
I5701
tp78
a(I2645
I5793
tp79
a(I2604
I5616
tp80
a(I2639
I5550
tp81
a(I2726
I5706
tp82
a(I2670
I5830
tp83
a(I2592
I4780
tp84
a(I2608
I4864
tp85
a(I2598
I4784
tp86
a(I2592
I4813
tp87
a(I2580
I4779
tp88
a(I2568
I4608
tp89
a(I2540
I4946
tp90
a(I2575
I4781
tp91
a(I2663
I4784
tp92
a(I2575
I4714
tp93
a(I2637
I4823
tp94
a(I2621
I4767
tp95
a(I2688
I4823
tp96
a(I2553
I4857
tp97
a(I2385
I4740
tp98
a(I2699
I4782
tp99
a(I2481
I4846
tp100
a(I2571
I4770
tp101
a(I2581
I4763
tp102
a(I2590
I4829
tp103
a(I2627
I4875
tp104
a(I2642
I4711
tp105
a(I2604
I4967
tp106
a(I2619
I4780
tp107
a(I2560
I4830
tp108
a(I2497
I4841
tp109
a(I2544
I4694
tp110
a(I2577
I4776
tp111
a(I2600
I4758
tp112
a(I2592
I4798
tp113
a(I2591
I4600
tp114
a(I2567
I4905
tp115
a(I2583
I4771
tp116
a(I2590
I4960
tp117
a(I2606
I4776
tp118
a(I2670
I4732
tp119
a(I2503
I4802
tp120
a(I2541
I4803
tp121
a(I2579
I4781
tp122
a(I2608
I4633
tp123
a(I3532
I4984
tp124
a(I3381
I5026
tp125
a(I3351
I4898
tp126
a(I3249
I5135
tp127
a(I3378
I5050
tp128
a(I3591
I5235
tp129
a(I3387
I5146
tp130
a(I3383
I5032
tp131
a(I3429
I5116
tp132
a(I3329
I5128
tp133
a(I3286
I5140
tp134
a(I3401
I4753
tp135
a(I3417
I4946
tp136
a(I3493
I5108
tp137
a(I3303
I5030
tp138
a(I3504
I5093
tp139
a(I3413
I5036
tp140
a(I3332
I5127
tp141
a(I3575
I5093
tp142
a(I3306
I5027
tp143
a(I3491
I5069
tp144
a(I3354
I4916
tp145
a(I3414
I5036
tp146
a(I3248
I4989
tp147
a(I3461
I5039
tp148
a(I3462
I4930
tp149
a(I3381
I4961
tp150
a(I3332
I5118
tp151
a(I3585
I5028
tp152
a(I3606
I5058
tp153
a(I3419
I5030
tp154
a(I3449
I5046
tp155
a(I3515
I5049
tp156
a(I3355
I4880
tp157
a(I3414
I5033
tp158
a(I3303
I5011
tp159
a(I3340
I4835
tp160
a(I3630
I4967
tp161
a(I3388
I5025
tp162
a(I3595
I4929
tp163
a(I3355
I4949
tp164
a(I3691
I5013
tp165
a(I3429
I5036
tp166
a(I3434
I4975
tp167
a(I1643
I4667
tp168
a(I1573
I4707
tp169
a(I1824
I4505
tp170
a(I1633
I4694
tp171
a(I1629
I4781
tp172
a(I1642
I4743
tp173
a(I1701
I4807
tp174
a(I1410
I4720
tp175
a(I1557
I4661
tp176
a(I1644
I4763
tp177
a(I1632
I4774
tp178
a(I1606
I4703
tp179
a(I1635
I4734
tp180
a(I1652
I4813
tp181
a(I1804
I4498
tp182
a(I1785
I4620
tp183
a(I1632
I4673
tp184
a(I1507
I4883
tp185
a(I1670
I4741
tp186
a(I1630
I4714
tp187
a(I1711
I4720
tp188
a(I1623
I4761
tp189
a(I1588
I4657
tp190
a(I1544
I4578
tp191
a(I1548
I4696
tp192
a(I1620
I4720
tp193
a(I1632
I4708
tp194
a(I1768
I4712
tp195
a(I1606
I4723
tp196
a(I1554
I4501
tp197
a(I1750
I4766
tp198
a(I1769
I4718
tp199
a(I1726
I4700
tp200
a(I1694
I4478
tp201
a(I1645
I4506
tp202
a(I1734
I4804
tp203
a(I1633
I4777
tp204
a(I1681
I4835
tp205
a(I1596
I4693
tp206
a(I1691
I4728
tp207
a(I1519
I4963
tp208
a(I1499
I4538
tp209
a(I1701
I4679
tp210
a(I1624
I4791
tp211
a(I1380
I4702
tp212
a(I1608
I4455
tp213
a(I1640
I4648
tp214
a(I1603
I4848
tp215
a(I1509
I4722
tp216
a.