(lp0
(I1286
I4843
tp1
a(I1363
I4764
tp2
a(I1296
I4848
tp3
a(I1210
I4807
tp4
a(I1331
I4728
tp5
a(I1174
I4755
tp6
a(I1343
I4836
tp7
a(I1225
I4799
tp8
a(I1288
I4737
tp9
a(I1261
I4893
tp10
a(I1176
I4768
tp11
a(I1266
I4840
tp12
a(I1261
I4921
tp13
a(I1377
I4551
tp14
a(I1258
I4766
tp15
a(I1225
I4752
tp16
a(I1271
I4795
tp17
a(I1265
I4798
tp18
a(I1181
I4828
tp19
a(I1180
I4982
tp20
a(I1162
I4874
tp21
a(I1070
I4703
tp22
a(I1262
I4786
tp23
a(I1316
I4947
tp24
a(I1215
I4758
tp25
a(I1301
I4806
tp26
a(I1237
I4591
tp27
a(I1279
I4651
tp28
a(I1263
I4812
tp29
a(I1287
I4731
tp30
a(I1146
I4800
tp31
a(I1220
I4777
tp32
a(I1093
I4833
tp33
a(I1448
I4810
tp34
a(I1142
I4688
tp35
a(I1276
I4693
tp36
a(I1259
I4790
tp37
a(I1353
I4635
tp38
a(I1176
I4757
tp39
a(I1350
I4689
tp40
a(I1258
I4816
tp41
a(I1206
I4796
tp42
a(I1276
I4776
tp43
a(I1332
I4745
tp44
a(I1317
I4796
tp45
a(I1225
I4850
tp46
a(I1373
I4817
tp47
a(I3693
I4573
tp48
a(I3692
I4578
tp49
a(I3720
I4553
tp50
a(I3776
I4461
tp51
a(I3747
I4746
tp52
a(I3529
I4708
tp53
a(I3624
I4530
tp54
a(I3764
I4552
tp55
a(I3624
I4558
tp56
a(I3724
I4537
tp57
a(I3725
I4570
tp58
a(I3967
I4637
tp59
a(I3518
I4629
tp60
a(I3709
I4563
tp61
a(I3821
I4516
tp62
a(I3735
I4501
tp63
a(I3592
I4749
tp64
a(I3715
I4563
tp65
a(I3748
I4387
tp66
a(I3630
I4567
tp67
a(I3703
I4562
tp68
a(I3720
I4567
tp69
a(I3711
I4436
tp70
a(I3806
I4679
tp71
a(I3832
I4618
tp72
a(I3733
I4333
tp73
a(I3655
I4585
tp74
a(I3608
I4417
tp75
a(I3923
I4705
tp76
a(I3757
I4372
tp77
a(I3646
I4567
tp78
a(I3579
I4638
tp79
a(I3782
I4613
tp80
a(I3861
I4681
tp81
a(I3799
I4397
tp82
a(I3648
I4536
tp83
a(I3698
I4762
tp84
a(I3655
I4751
tp85
a(I3726
I4565
tp86
a(I3896
I3807
tp87
a(I3769
I3821
tp88
a(I3860
I3812
tp89
a(I3950
I3788
tp90
a(I3987
I3769
tp91
a(I3890
I3830
tp92
a(I4007
I3935
tp93
a(I3893
I3874
tp94
a(I3845
I3756
tp95
a(I3894
I3615
tp96
a(I3869
I3857
tp97
a(I3899
I3802
tp98
a(I4008
I3773
tp99
a(I3897
I3835
tp100
a(I3915
I3806
tp101
a(I3974
I3793
tp102
a(I3843
I3862
tp103
a(I3900
I3805
tp104
a(I3872
I3818
tp105
a(I3864
I3840
tp106
a(I3845
I3837
tp107
a(I3910
I3930
tp108
a(I3928
I3785
tp109
a(I3836
I3846
tp110
a(I3959
I3825
tp111
a(I3939
I3894
tp112
a(I3933
I3784
tp113
a(I4031
I3719
tp114
a(I3826
I3897
tp115
a(I3895
I3820
tp116
a(I3895
I3812
tp117
a(I3928
I3837
tp118
a(I3896
I3818
tp119
a(I3888
I3823
tp120
a(I3887
I3888
tp121
a(I3875
I3768
tp122
a(I3913
I3768
tp123
a(I3915
I3614
tp124
a(I3836
I3918
tp125
a(I3919
I3867
tp126
a(I3896
I3812
tp127
a(I3939
I3784
tp128
a(I3901
I3798
tp129
a(I4017
I3925
tp130
a(I4092
I3844
tp131
a(I3868
I3799
tp132
a(I3750
I3677
tp133
a(I4313
I4648
tp134
a(I4283
I4564
tp135
a(I4257
I4631
tp136
a(I4264
I4628
tp137
a(I4323
I4801
tp138
a(I4070
I4706
tp139
a(I4316
I4677
tp140
a(I4272
I4555
tp141
a(I4272
I4653
tp142
a(I4278
I4635
tp143
a(I4511
I4634
tp144
a(I4257
I4671
tp145
a(I4301
I4691
tp146
a(I4288
I4687
tp147
a(I4401
I4667
tp148
a(I4483
I4724
tp149
a(I4216
I4657
tp150
a(I4202
I4651
tp151
a(I4148
I4682
tp152
a(I4265
I4641
tp153
a(I4337
I4556
tp154
a(I4218
I4641
tp155
a(I4189
I4654
tp156
a(I4294
I4678
tp157
a(I4321
I4657
tp158
a(I4233
I4612
tp159
a(I4239
I4583
tp160
a(I4162
I4725
tp161
a(I4313
I4593
tp162
a(I4339
I4588
tp163
a(I4149
I4521
tp164
a(I4297
I4659
tp165
a(I4174
I4493
tp166
a(I4289
I4614
tp167
a(I4833
I5066
tp168
a(I4857
I4977
tp169
a(I4900
I4932
tp170
a(I4901
I4880
tp171
a(I4787
I4784
tp172
a(I4916
I4965
tp173
a(I4887
I4935
tp174
a(I4873
I4932
tp175
a(I4859
I4960
tp176
a(I4847
I5023
tp177
a(I4869
I4798
tp178
a(I4992
I4963
tp179
a(I4950
I4813
tp180
a(I4928
I4967
tp181
a(I4868
I4931
tp182
a(I4992
I4928
tp183
a(I4914
I4920
tp184
a(I4840
I5036
tp185
a(I4812
I4975
tp186
a(I4839
I5044
tp187
a(I4798
I4899
tp188
a(I4893
I4946
tp189
a(I4912
I4988
tp190
a(I4917
I4974
tp191
a(I5002
I4993
tp192
a(I4898
I4968
tp193
a(I4799
I4824
tp194
a(I4917
I4953
tp195
a(I5120
I5038
tp196
a(I4913
I4930
tp197
a(I4968
I4834
tp198
a(I4894
I4923
tp199
a(I4860
I4939
tp200
a(I4912
I4951
tp201
a(I4827
I4847
tp202
a(I4908
I4878
tp203
a(I4928
I5073
tp204
a(I4857
I5016
tp205
a(I4713
I4939
tp206
a(I4778
I4927
tp207
a(I5059
I5045
tp208
a(I4876
I4861
tp209
a(I4970
I4858
tp210
a(I4967
I4933
tp211
a(I5030
I4902
tp212
a(I4899
I5068
tp213
a.