(lp0
(I2897
I4143
tp1
a(I2969
I3932
tp2
a(I2882
I3885
tp3
a(I2969
I4007
tp4
a(I2879
I4077
tp5
a(I2887
I3938
tp6
a(I2749
I3895
tp7
a(I3040
I3819
tp8
a(I3057
I3877
tp9
a(I3007
I4130
tp10
a(I2951
I3798
tp11
a(I3057
I3924
tp12
a(I3002
I4227
tp13
a(I2879
I4014
tp14
a(I3219
I4121
tp15
a(I2972
I3897
tp16
a(I2907
I4220
tp17
a(I3182
I3936
tp18
a(I3183
I3974
tp19
a(I3280
I3832
tp20
a(I2974
I3812
tp21
a(I2947
I4170
tp22
a(I2997
I4040
tp23
a(I2989
I4027
tp24
a(I2927
I4027
tp25
a(I2850
I4150
tp26
a(I3284
I3984
tp27
a(I2995
I4200
tp28
a(I2962
I3901
tp29
a(I2861
I4456
tp30
a(I2554
I4691
tp31
a(I2575
I4685
tp32
a(I2848
I4612
tp33
a(I2941
I4665
tp34
a(I2694
I4845
tp35
a(I2686
I4839
tp36
a(I2886
I4732
tp37
a(I2718
I4710
tp38
a(I2746
I4732
tp39
a(I2710
I4548
tp40
a(I2704
I4693
tp41
a(I2654
I4797
tp42
a(I2850
I4471
tp43
a(I2738
I4611
tp44
a(I2638
I4697
tp45
a(I2643
I4513
tp46
a(I2854
I4628
tp47
a(I2867
I4562
tp48
a(I2785
I4626
tp49
a(I2876
I4785
tp50
a(I2885
I4693
tp51
a(I2910
I4514
tp52
a(I2646
I4549
tp53
a(I2879
I4730
tp54
a(I2673
I4680
tp55
a(I2922
I4569
tp56
a(I2854
I4654
tp57
a(I2785
I4811
tp58
a(I2790
I4520
tp59
a(I3789
I4004
tp60
a(I3579
I3846
tp61
a(I3627
I3791
tp62
a(I3557
I4076
tp63
a(I3543
I3933
tp64
a(I3923
I4111
tp65
a(I3904
I4107
tp66
a(I3590
I3720
tp67
a(I3603
I3802
tp68
a(I3568
I3984
tp69
a(I3863
I3702
tp70
a(I3940
I3871
tp71
a(I3818
I3657
tp72
a(I3963
I4010
tp73
a(I3876
I4095
tp74
a(I3826
I4003
tp75
a(I3614
I3866
tp76
a(I3524
I4015
tp77
a(I3596
I3898
tp78
a(I3726
I3842
tp79
a(I3747
I4046
tp80
a(I3914
I4124
tp81
a(I3848
I4115
tp82
a(I3876
I3861
tp83
a(I3563
I3803
tp84
a(I2662
I5093
tp85
a(I2215
I5231
tp86
a(I2546
I4930
tp87
a(I2364
I5276
tp88
a(I2524
I5258
tp89
a(I2173
I5081
tp90
a(I2601
I4981
tp91
a(I2601
I4962
tp92
a(I2401
I4869
tp93
a(I2468
I5281
tp94
a(I2472
I5186
tp95
a(I2598
I5164
tp96
a(I2213
I5138
tp97
a(I2378
I4861
tp98
a(I2188
I5158
tp99
a(I2440
I5051
tp100
a(I2254
I4887
tp101
a(I2509
I5065
tp102
a(I2422
I5129
tp103
a(I2453
I4898
tp104
a(I2508
I5060
tp105
a(I2509
I5013
tp106
a(I2294
I5214
tp107
a(I2495
I4814
tp108
a(I3260
I3234
tp109
a(I3307
I3139
tp110
a(I3429
I3156
tp111
a(I3143
I3261
tp112
a(I3242
I3092
tp113
a(I3106
I3001
tp114
a(I3376
I2903
tp115
a(I3522
I3109
tp116
a(I3505
I3077
tp117
a(I3292
I2924
tp118
a(I3110
I2958
tp119
a(I3064
I3127
tp120
a(I3184
I2889
tp121
a(I3303
I3081
tp122
a(I3282
I2839
tp123
a(I3469
I3012
tp124
a(I3260
I3248
tp125
a(I3336
I2970
tp126
a(I3387
I3075
tp127
a(I3370
I2747
tp128
a(I3359
I2951
tp129
a(I3364
I2747
tp130
a(I3271
I2907
tp131
a(I3585
I3047
tp132
a.