(lp0
(I3532
I4169
tp1
a(I3532
I4169
tp2
a(I3532
I4169
tp3
a(I3532
I4169
tp4
a(I1552
I3093
tp5
a(I1552
I3093
tp6
a(I1911
I4402
tp7
a(I1911
I4402
tp8
a(I1911
I4402
tp9
a(I1911
I4402
tp10
a(I1137
I4945
tp11
a(I1137
I4945
tp12
a.