(dp0
I0
(lp1
I256
aI257
aI258
aI259
aI260
aI261
aI262
aI263
aI264
aI265
aI266
aI267
aI268
aI269
aI270
aI271
aI272
aI273
aI274
aI275
aI276
aI277
aI278
aI279
aI280
aI281
aI252
aI253
aI254
aI255
asI1
(lp2
I257
aI259
aI261
aI264
aI265
aI266
aI268
aI271
aI273
aI274
aI277
aI278
aI281
aI253
aI255
asI2
(lp3
I260
aI263
aI266
aI267
aI269
aI271
aI272
aI274
aI277
aI278
aI279
aI281
aI252
aI255
asI3
(lp4
I259
aI261
aI263
aI265
aI267
aI268
aI271
aI272
aI274
aI276
aI279
aI280
aI253
aI254
aI255
asI4
(lp5
I256
aI259
aI262
aI263
aI265
aI266
aI268
aI269
aI272
aI275
aI276
aI278
aI279
aI281
aI252
aI253
asI5
(lp6
I257
aI260
aI264
aI265
aI267
aI270
aI272
aI273
aI277
aI279
aI280
aI281
aI253
aI254
aI255
asI6
(lp7
I256
aI258
aI260
aI263
aI264
aI266
aI269
aI271
aI273
aI274
aI277
aI279
aI280
aI253
aI254
asI7
(lp8
I257
aI258
aI262
aI264
aI266
aI268
aI270
aI273
aI275
aI276
aI278
aI280
aI252
aI254
as.