(dp0
I0
(lp1
I316
aI317
aI318
aI319
aI320
aI321
aI322
aI323
aI324
aI325
aI326
aI327
aI328
aI329
aI330
aI331
aI332
aI333
aI334
aI335
aI336
aI337
aI338
aI339
aI340
aI341
aI342
aI343
aI344
aI345
asI1
(lp2
I316
aI322
aI326
aI327
aI329
aI331
aI335
aI339
aI343
asI2
(lp3
I318
aI320
aI324
aI328
aI330
aI333
aI335
aI337
aI342
asI3
(lp4
I319
aI320
aI325
aI327
aI331
aI332
aI336
aI342
aI345
asI4
(lp5
I318
aI321
aI324
aI328
aI329
aI332
aI337
aI338
aI343
asI5
(lp6
I317
aI319
aI325
aI327
aI330
aI333
aI336
aI340
aI344
asI6
(lp7
I317
aI321
aI322
aI328
aI330
aI334
aI337
aI341
aI344
asI7
(lp8
I318
aI320
aI323
aI329
aI331
aI334
aI336
aI340
as.