(dp0
I316
(lp1
I0
aI1
asI317
(lp2
I0
aI5
aI6
asI318
(lp3
I0
aI4
aI2
aI7
asI319
(lp4
I0
aI3
aI5
asI320
(lp5
I0
aI7
aI2
aI3
asI321
(lp6
I0
aI6
aI4
asI322
(lp7
I0
aI1
aI6
asI323
(lp8
I0
aI7
asI324
(lp9
I0
aI2
aI4
asI325
(lp10
I0
aI3
aI5
asI326
(lp11
I0
aI1
asI327
(lp12
I0
aI1
aI5
aI3
asI328
(lp13
I0
aI4
aI2
aI6
asI329
(lp14
I0
aI7
aI4
aI1
asI330
(lp15
I0
aI6
aI2
aI5
asI331
(lp16
I0
aI3
aI7
aI1
asI332
(lp17
I0
aI3
aI4
asI333
(lp18
I0
aI2
aI5
asI334
(lp19
I0
aI6
aI7
asI335
(lp20
I0
aI1
aI2
asI336
(lp21
I0
aI5
aI7
aI3
asI337
(lp22
I0
aI4
aI6
aI2
asI338
(lp23
I0
aI4
asI339
(lp24
I0
aI1
asI340
(lp25
I0
aI7
aI5
asI341
(lp26
I0
aI6
asI342
(lp27
I0
aI3
aI2
asI343
(lp28
I0
aI4
aI1
asI344
(lp29
I0
aI6
aI5
asI345
(lp30
I0
aI3
as.