(lp0
(lp1
(I4578
I3389
tp2
a(I2874
I4205
tp3
aa(lp4
g2
a(I1604
I3762
tp5
a(I3458
I3245
tp6
aa(lp7
g2
a(I1779
I3233
tp8
a(I3823
I4404
tp9
a(I3997
I5587
tp10
aa(lp11
g2
a(I3337
I4660
tp12
ag5
aa(lp13
g2
ag10
ag9
ag12
aa(lp14
g2
ag6
ag8
aa(lp15
g2
ag3
ag6
aa(lp16
g2
ag10
aa(lp17
g2
ag9
ag8
aa(lp18
g2
ag12
ag5
aa(lp19
g2
ag3
aa(lp20
g2
ag3
ag5
ag12
aa(lp21
g2
ag8
ag9
ag6
aa(lp22
g2
ag10
ag8
ag3
aa(lp23
g2
ag6
ag9
ag5
aa(lp24
g2
ag12
ag10
ag3
aa(lp25
g2
ag12
ag8
aa(lp26
g2
ag9
ag5
aa(lp27
g2
ag6
ag10
aa(lp28
g2
ag3
ag9
aa(lp29
g2
ag5
ag10
ag12
aa(lp30
g2
ag8
ag6
ag9
aa(lp31
g2
ag8
aa(lp32
g2
ag3
aa(lp33
g2
ag10
ag5
aa(lp34
g2
ag6
aa(lp35
g2
ag12
ag9
aa(lp36
g2
ag8
ag3
aa(lp37
g2
ag6
ag5
aa(lp38
g2
ag12
aa.