(lp0
(lp1
(I1554
I5200
tp2
a(I2044
I3440
tp3
a(I3282
I5521
tp4
a(I2130
I5632
tp5
aa(lp6
g2
a(I2865
I5798
tp7
a(I3491
I3863
tp8
a(I4271
I5167
tp9
a(I3830
I4080
tp10
ag5
aa(lp11
g2
ag7
ag4
ag10
ag8
aa(lp12
g2
ag3
ag9
ag3
ag7
ag8
aa(lp13
g2
ag10
ag5
aa(lp14
g2
ag9
ag4
ag7
aa(lp15
g2
ag4
ag10
aa(lp16
g2
ag5
ag9
ag8
aa(lp17
g2
ag3
ag10
ag7
ag3
aa(lp18
g2
ag9
ag8
aa(lp19
g2
ag4
ag5
aa(lp20
g2
ag3
ag5
ag8
ag10
aa(lp21
g2
ag9
ag4
ag7
ag10
ag4
aa(lp22
g2
ag7
ag9
ag5
ag8
aa(lp23
g2
ag3
ag5
ag4
ag10
ag9
aa(lp24
g2
ag7
ag8
ag3
ag7
aa(lp25
g2
ag4
ag9
ag5
ag8
aa(lp26
g2
ag3
ag10
ag5
aa(lp27
g2
ag7
ag4
aa(lp28
g2
ag9
ag8
ag10
ag3
aa(lp29
g2
ag3
ag8
ag5
ag7
aa(lp30
g2
ag10
ag4
ag9
ag7
aa(lp31
g2
ag9
ag8
ag3
ag10
aa(lp32
g2
ag4
ag5
aa(lp33
g2
ag5
ag4
ag8
aa(lp34
g2
ag3
ag7
ag9
ag10
aa(lp35
g2
ag3
ag5
ag4
ag9
aa(lp36
g2
ag8
ag10
ag7
ag5
ag3
aa(lp37
g2
ag10
ag8
ag4
ag7
aa(lp38
g2
ag9
ag3
ag5
ag7
aa.