(lp0
(I4310
I5180
tp1
a(I4271
I5187
tp2
a(I4248
I5254
tp3
a(I4273
I5324
tp4
a(I4078
I5073
tp5
a(I4238
I5027
tp6
a(I4192
I5202
tp7
a(I4185
I5038
tp8
a(I4331
I5113
tp9
a(I4292
I5166
tp10
a(I4091
I5150
tp11
a(I4274
I5155
tp12
a(I4075
I5087
tp13
a(I4270
I5070
tp14
a(I4287
I5176
tp15
a(I4321
I5179
tp16
a(I4487
I5235
tp17
a(I4098
I5223
tp18
a(I4267
I5170
tp19
a(I4365
I5239
tp20
a(I2007
I3380
tp21
a(I2073
I3320
tp22
a(I1984
I3384
tp23
a(I2024
I3441
tp24
a(I2044
I3440
tp25
a(I2056
I3463
tp26
a(I2045
I3494
tp27
a(I2024
I3409
tp28
a(I2096
I3564
tp29
a(I2006
I3418
tp30
a(I2042
I3412
tp31
a(I2043
I3533
tp32
a(I2026
I3411
tp33
a(I2007
I3428
tp34
a(I2052
I3443
tp35
a(I2104
I3371
tp36
a(I1944
I3513
tp37
a(I1932
I3446
tp38
a(I1981
I3494
tp39
a(I2158
I3534
tp40
a(I2093
I3407
tp41
a(I2040
I3511
tp42
a(I2052
I3442
tp43
a(I2046
I3441
tp44
a(I1936
I3490
tp45
a(I3469
I3860
tp46
a(I3438
I3941
tp47
a(I3491
I3863
tp48
a(I3454
I3926
tp49
a(I3449
I4000
tp50
a(I3516
I3969
tp51
a(I3412
I3898
tp52
a(I3499
I3815
tp53
a(I3470
I3892
tp54
a(I3590
I3961
tp55
a(I3523
I3938
tp56
a(I3424
I3796
tp57
a(I3514
I3728
tp58
a(I3429
I3927
tp59
a(I3584
I3818
tp60
a(I3553
I3882
tp61
a(I3460
I3871
tp62
a(I3432
I3803
tp63
a(I3489
I3867
tp64
a(I3658
I3774
tp65
a(I3518
I3864
tp66
a(I3547
I3865
tp67
a(I3372
I3931
tp68
a(I3565
I3900
tp69
a(I3523
I3859
tp70
a(I3486
I3865
tp71
a(I3409
I3724
tp72
a(I3382
I3951
tp73
a(I3489
I3863
tp74
a(I3474
I3882
tp75
a(I3480
I3868
tp76
a(I3485
I3871
tp77
a(I3464
I3861
tp78
a(I3513
I3842
tp79
a(I3489
I3914
tp80
a(I3455
I3833
tp81
a(I2284
I5608
tp82
a(I2055
I5562
tp83
a(I2105
I5545
tp84
a(I2122
I5610
tp85
a(I2142
I5643
tp86
a(I2130
I5614
tp87
a(I2230
I5753
tp88
a(I2297
I5808
tp89
a(I2123
I5657
tp90
a(I2150
I5538
tp91
a(I2093
I5620
tp92
a(I1977
I5510
tp93
a(I2121
I5619
tp94
a(I2116
I5635
tp95
a(I2110
I5601
tp96
a(I2135
I5620
tp97
a(I2116
I5706
tp98
a(I2143
I5614
tp99
a(I1910
I5705
tp100
a(I2102
I5650
tp101
a(I2018
I5590
tp102
a(I2083
I5632
tp103
a(I2056
I5503
tp104
a(I2128
I5654
tp105
a(I1995
I5850
tp106
a(I2314
I5737
tp107
a(I2138
I5729
tp108
a(I2140
I5647
tp109
a(I2052
I5815
tp110
a(I2283
I5653
tp111
a(I2846
I5753
tp112
a(I2903
I5937
tp113
a(I3060
I5761
tp114
a(I2813
I6008
tp115
a(I2901
I5764
tp116
a(I2850
I5745
tp117
a(I2910
I5933
tp118
a(I2685
I5904
tp119
a(I2865
I5797
tp120
a(I2971
I5640
tp121
a(I2903
I5905
tp122
a(I3015
I5831
tp123
a(I2879
I5840
tp124
a(I2843
I5754
tp125
a(I2937
I5706
tp126
a(I2803
I5989
tp127
a(I2795
I5670
tp128
a(I2939
I5789
tp129
a(I2833
I5753
tp130
a(I2944
I5834
tp131
a(I2913
I5875
tp132
a(I3030
I5890
tp133
a(I2932
I5744
tp134
a(I2831
I5815
tp135
a(I2809
I5825
tp136
a(I2961
I5910
tp137
a(I2754
I5825
tp138
a(I2768
I5961
tp139
a(I2926
I5815
tp140
a(I2784
I5657
tp141
a(I2907
I5622
tp142
a(I2897
I5782
tp143
a(I2874
I5859
tp144
a(I2881
I5782
tp145
a(I2821
I5642
tp146
a(I2806
I5728
tp147
a(I2825
I5869
tp148
a(I2884
I5797
tp149
a(I2862
I5816
tp150
a(I2846
I5911
tp151
a(I2908
I5604
tp152
a(I3021
I5893
tp153
a(I2794
I5775
tp154
a(I2932
I5943
tp155
a(I2834
I5894
tp156
a(I2857
I5802
tp157
a(I2863
I5782
tp158
a(I2832
I5718
tp159
a(I2858
I5784
tp160
a(I3726
I4245
tp161
a(I3848
I4066
tp162
a(I3682
I4204
tp163
a(I3872
I4177
tp164
a(I3841
I4131
tp165
a(I3762
I4198
tp166
a(I3808
I4003
tp167
a(I3844
I4042
tp168
a(I3844
I3989
tp169
a(I3828
I4092
tp170
a(I3803
I4105
tp171
a(I3829
I4076
tp172
a(I3845
I4040
tp173
a(I3832
I4062
tp174
a(I3861
I4150
tp175
a(I3876
I3968
tp176
a(I3906
I4073
tp177
a(I3908
I3979
tp178
a(I3811
I4086
tp179
a(I3724
I4199
tp180
a(I3883
I4080
tp181
a(I3883
I4164
tp182
a(I3880
I4116
tp183
a(I3843
I3966
tp184
a(I3809
I4131
tp185
a(I3884
I4115
tp186
a(I3816
I3959
tp187
a(I4062
I4054
tp188
a(I3845
I4033
tp189
a(I3827
I4042
tp190
a(I3933
I4047
tp191
a(I3863
I4033
tp192
a(I3970
I4103
tp193
a(I3826
I4119
tp194
a(I3658
I4088
tp195
a(I3170
I5489
tp196
a(I3425
I5597
tp197
a(I3289
I5545
tp198
a(I3258
I5470
tp199
a(I3395
I5345
tp200
a(I3268
I5392
tp201
a(I3285
I5558
tp202
a(I3300
I5505
tp203
a(I3267
I5546
tp204
a(I3285
I5446
tp205
a(I3289
I5515
tp206
a(I3140
I5543
tp207
a(I3244
I5406
tp208
a(I3240
I5523
tp209
a(I3308
I5522
tp210
a(I3308
I5529
tp211
a(I3395
I5456
tp212
a(I3345
I5557
tp213
a(I3366
I5528
tp214
a(I3278
I5517
tp215
a(I3248
I5463
tp216
a(I3272
I5482
tp217
a(I3306
I5631
tp218
a(I3270
I5540
tp219
a(I3282
I5519
tp220
a(I3339
I5537
tp221
a(I3426
I5412
tp222
a(I3281
I5522
tp223
a(I3310
I5495
tp224
a(I3310
I5658
tp225
a(I3285
I5533
tp226
a(I3264
I5455
tp227
a(I3283
I5519
tp228
a(I3280
I5514
tp229
a(I3229
I5449
tp230
a(I3371
I5479
tp231
a(I3333
I5392
tp232
a(I3279
I5498
tp233
a.