(lp0
(I2862
I4216
tp1
a(I2740
I4164
tp2
a(I2917
I4185
tp3
a(I2774
I4298
tp4
a(I2958
I4247
tp5
a(I2923
I4237
tp6
a(I2876
I4209
tp7
a(I2847
I4041
tp8
a(I2851
I4203
tp9
a(I2978
I4237
tp10
a(I2918
I4092
tp11
a(I2798
I4156
tp12
a(I2831
I4145
tp13
a(I2865
I4167
tp14
a(I2768
I4094
tp15
a(I2878
I4127
tp16
a(I2832
I4170
tp17
a(I2901
I4293
tp18
a(I2934
I4178
tp19
a(I2868
I4102
tp20
a(I2883
I4182
tp21
a(I2902
I4117
tp22
a(I2863
I4182
tp23
a(I2909
I4207
tp24
a(I2991
I4313
tp25
a(I2764
I4336
tp26
a(I2811
I4250
tp27
a(I2804
I4238
tp28
a(I3016
I4079
tp29
a(I3029
I4252
tp30
a(I2843
I4230
tp31
a(I2844
I4269
tp32
a(I2951
I4247
tp33
a(I2868
I4196
tp34
a(I2891
I4181
tp35
a(I2857
I4214
tp36
a(I2937
I4230
tp37
a(I2874
I4205
tp38
a(I2871
I4174
tp39
a(I2871
I4213
tp40
a(I2910
I4167
tp41
a(I2876
I4204
tp42
a(I2910
I4107
tp43
a(I2796
I4204
tp44
a(I2867
I4206
tp45
a(I3728
I4328
tp46
a(I3790
I4476
tp47
a(I3812
I4502
tp48
a(I3802
I4371
tp49
a(I3828
I4378
tp50
a(I3853
I4548
tp51
a(I3828
I4411
tp52
a(I3983
I4428
tp53
a(I3926
I4326
tp54
a(I3852
I4339
tp55
a(I3826
I4387
tp56
a(I3810
I4379
tp57
a(I3795
I4377
tp58
a(I3814
I4375
tp59
a(I3818
I4396
tp60
a(I3928
I4501
tp61
a(I3780
I4431
tp62
a(I3766
I4506
tp63
a(I3833
I4388
tp64
a(I3793
I4375
tp65
a(I3716
I4361
tp66
a(I3930
I4506
tp67
a(I3831
I4402
tp68
a(I3809
I4365
tp69
a(I3802
I4403
tp70
a(I3887
I4291
tp71
a(I3809
I4389
tp72
a(I3784
I4314
tp73
a(I3683
I4427
tp74
a(I3973
I4376
tp75
a(I3735
I4391
tp76
a(I3804
I4399
tp77
a(I3823
I4404
tp78
a(I3750
I4430
tp79
a(I3769
I4309
tp80
a(I3724
I4540
tp81
a(I3796
I4444
tp82
a(I3831
I4443
tp83
a(I3811
I4410
tp84
a(I3823
I4391
tp85
a(I3818
I4399
tp86
a(I3365
I4622
tp87
a(I3204
I4666
tp88
a(I3388
I4917
tp89
a(I3220
I4624
tp90
a(I3353
I4435
tp91
a(I3381
I4610
tp92
a(I3413
I4636
tp93
a(I3435
I4596
tp94
a(I3302
I4623
tp95
a(I3332
I4663
tp96
a(I3241
I4722
tp97
a(I3249
I4775
tp98
a(I3274
I4641
tp99
a(I3334
I4665
tp100
a(I3259
I4581
tp101
a(I3319
I4553
tp102
a(I3278
I4633
tp103
a(I3289
I4651
tp104
a(I3396
I4770
tp105
a(I3573
I4698
tp106
a(I3274
I4560
tp107
a(I3516
I4716
tp108
a(I3117
I4587
tp109
a(I3418
I4562
tp110
a(I3356
I4667
tp111
a(I3165
I4651
tp112
a(I3366
I4582
tp113
a(I3338
I4686
tp114
a(I3368
I4717
tp115
a(I3335
I4661
tp116
a(I3316
I4653
tp117
a(I3353
I4799
tp118
a(I3189
I4606
tp119
a(I3533
I4516
tp120
a(I3315
I4662
tp121
a(I3249
I4596
tp122
a(I3268
I4646
tp123
a(I3466
I4516
tp124
a(I3464
I4558
tp125
a(I1731
I3222
tp126
a(I1968
I3026
tp127
a(I1616
I3399
tp128
a(I1905
I3231
tp129
a(I1754
I3231
tp130
a(I1758
I3246
tp131
a(I1787
I3235
tp132
a(I1691
I3306
tp133
a(I1759
I3233
tp134
a(I1777
I3006
tp135
a(I1705
I3387
tp136
a(I1766
I3214
tp137
a(I1798
I3284
tp138
a(I1795
I3205
tp139
a(I1773
I3231
tp140
a(I1510
I3206
tp141
a(I1787
I3249
tp142
a(I1775
I3266
tp143
a(I1641
I3437
tp144
a(I1690
I3168
tp145
a(I1877
I3299
tp146
a(I1863
I3144
tp147
a(I1849
I3176
tp148
a(I1792
I3235
tp149
a(I1779
I3233
tp150
a(I1682
I3338
tp151
a(I2036
I3273
tp152
a(I1613
I3133
tp153
a(I2002
I3130
tp154
a(I1764
I3298
tp155
a(I1841
I3250
tp156
a(I1772
I3141
tp157
a(I1758
I3233
tp158
a(I1851
I3334
tp159
a(I1779
I3233
tp160
a(I1754
I3213
tp161
a(I1769
I3219
tp162
a(I1915
I3218
tp163
a(I1616
I3118
tp164
a(I1819
I3231
tp165
a(I1797
I3211
tp166
a(I1702
I3258
tp167
a(I1756
I3237
tp168
a(I1901
I3094
tp169
a(I1831
I3135
tp170
a(I1878
I3031
tp171
a(I1849
I3249
tp172
a(I1605
I3775
tp173
a(I1554
I3771
tp174
a(I1569
I3659
tp175
a(I1575
I3764
tp176
a(I1657
I3875
tp177
a(I1662
I3754
tp178
a(I1639
I3711
tp179
a(I1674
I3883
tp180
a(I1527
I3853
tp181
a(I1490
I3755
tp182
a(I1606
I3694
tp183
a(I1656
I3767
tp184
a(I1511
I3961
tp185
a(I1559
I3750
tp186
a(I1539
I3850
tp187
a(I1712
I3816
tp188
a(I1611
I3770
tp189
a(I1632
I3847
tp190
a(I1597
I3762
tp191
a(I1599
I3708
tp192
a(I1600
I3748
tp193
a(I1643
I3757
tp194
a(I1757
I3648
tp195
a(I1791
I3791
tp196
a(I1815
I3771
tp197
a(I1596
I3642
tp198
a(I1583
I3765
tp199
a(I1512
I3681
tp200
a(I1583
I3715
tp201
a(I1622
I3722
tp202
a(I1640
I3774
tp203
a(I3530
I3213
tp204
a(I3365
I3240
tp205
a(I3362
I3283
tp206
a(I3427
I3242
tp207
a(I3420
I3228
tp208
a(I3457
I3232
tp209
a(I3461
I3228
tp210
a(I3462
I3275
tp211
a(I3573
I3200
tp212
a(I3456
I3243
tp213
a(I3443
I3257
tp214
a(I3452
I3259
tp215
a(I3592
I3196
tp216
a(I3546
I3225
tp217
a(I3564
I3175
tp218
a(I3459
I3153
tp219
a(I3599
I3112
tp220
a(I3439
I3255
tp221
a(I3563
I3214
tp222
a(I3560
I3285
tp223
a(I3453
I3242
tp224
a(I3534
I3332
tp225
a(I3532
I3145
tp226
a(I3452
I3245
tp227
a(I3452
I3250
tp228
a(I3527
I3134
tp229
a(I3457
I3245
tp230
a(I3544
I3053
tp231
a(I3469
I3256
tp232
a(I3672
I3272
tp233
a(I3449
I3139
tp234
a(I3452
I3246
tp235
a(I3572
I3290
tp236
a(I3563
I3174
tp237
a(I3454
I3266
tp238
a(I3631
I3299
tp239
a(I3473
I3215
tp240
a(I3496
I3214
tp241
a(I3433
I3247
tp242
a(I3363
I3407
tp243
a(I3416
I3142
tp244
a(I3397
I3448
tp245
a(I3493
I3275
tp246
a(I3437
I3292
tp247
a(I3467
I3245
tp248
a(I3515
I3178
tp249
a(I3487
I3243
tp250
a(I3983
I5421
tp251
a(I3893
I5607
tp252
a(I4017
I5573
tp253
a(I3901
I5631
tp254
a(I4183
I5710
tp255
a(I4002
I5584
tp256
a(I4050
I5544
tp257
a(I3921
I5722
tp258
a(I3999
I5737
tp259
a(I4005
I5584
tp260
a(I3985
I5587
tp261
a(I3950
I5838
tp262
a(I4050
I5508
tp263
a(I4019
I5516
tp264
a(I3987
I5633
tp265
a(I4246
I5570
tp266
a(I3978
I5611
tp267
a(I4006
I5657
tp268
a(I3999
I5573
tp269
a(I4134
I5580
tp270
a(I4124
I5502
tp271
a(I3975
I5631
tp272
a(I4239
I5623
tp273
a(I4058
I5639
tp274
a(I4006
I5553
tp275
a(I4038
I5635
tp276
a(I4043
I5592
tp277
a(I3998
I5580
tp278
a(I3992
I5633
tp279
a(I4024
I5606
tp280
a(I3924
I5589
tp281
a(I3984
I5707
tp282
a(I4000
I5608
tp283
a(I3988
I5574
tp284
a(I3914
I5705
tp285
a(I4100
I5572
tp286
a(I4068
I5592
tp287
a(I3943
I5564
tp288
a(I4092
I5561
tp289
a(I4024
I5595
tp290
a(I3960
I5458
tp291
a(I4039
I5621
tp292
a(I4031
I5478
tp293
a.