(lp0
(I4271
I5167
tp1
a(I3491
I3863
tp2
a(I2130
I5632
tp3
a(I2130
I5632
tp4
a(I2130
I5632
tp5
a(I2865
I5798
tp6
a(I2865
I5798
tp7
a(I2865
I5798
tp8
a(I3830
I4080
tp9
a(I3830
I4080
tp10
a(I3282
I5521
tp11
a.