(lp0
(I2874
I4205
tp1
a(I2874
I4205
tp2
a(I3823
I4404
tp3
a(I3823
I4404
tp4
a(I3823
I4404
tp5
a(I3337
I4660
tp6
a(I1779
I3233
tp7
a(I1604
I3762
tp8
a(I1604
I3762
tp9
a(I1604
I3762
tp10
a(I3458
I3245
tp11
a(I3458
I3245
tp12
a(I3997
I5587
tp13
a(I3997
I5587
tp14
a(I3997
I5587
tp15
a.