(dp0
I0
(lp1
I256
aI257
aI258
aI259
aI260
aI261
aI262
aI263
aI264
aI265
aI266
aI267
aI238
aI239
aI240
aI241
aI242
aI243
aI244
aI245
aI246
aI247
aI248
aI249
aI250
aI251
aI252
aI253
aI254
aI255
asI1
(lp2
I257
aI259
aI260
aI262
aI264
aI266
aI267
aI238
aI240
aI241
aI242
aI243
aI245
aI246
aI248
aI249
aI251
aI252
aI253
aI254
aI255
asI2
(lp3
I257
aI258
aI259
aI261
aI263
aI264
aI266
aI239
aI241
aI242
aI243
aI245
aI247
aI248
aI250
aI251
aI252
aI253
aI254
aI255
asI3
(lp4
I256
aI258
aI260
aI262
aI264
aI265
aI266
aI238
aI240
aI241
aI242
aI244
aI245
aI247
aI248
aI249
aI251
aI252
aI253
aI254
aI255
asI4
(lp5
I256
aI258
aI260
aI261
aI262
aI264
aI266
aI267
aI238
aI239
aI240
aI242
aI244
aI245
aI246
aI249
aI251
aI253
aI254
aI255
asI5
(lp6
I258
aI259
aI260
aI261
aI263
aI265
aI266
aI238
aI240
aI242
aI244
aI245
aI248
aI249
aI250
aI252
aI253
aI254
aI255
as.