(lp0
(lp1
(I1148
I3042
tp2
a(I2233
I4048
tp3
a(I1850
I5123
tp4
a(I2225
I4433
tp5
a(I1869
I4853
tp6
aa(lp7
g2
a(I4192
I5768
tp8
ag8
ag6
aa(lp9
g2
ag3
ag5
ag4
ag5
ag6
aa(lp10
g2
ag8
ag3
ag4
aa(lp11
g2
ag6
ag3
ag4
ag8
ag5
aa(lp12
g2
ag3
ag8
aa(lp13
g2
ag5
ag4
ag6
aa(lp14
g2
ag5
ag3
ag6
ag4
ag8
aa(lp15
g2
ag3
ag6
aa(lp16
g2
ag4
ag8
aa(lp17
g2
ag5
ag4
ag3
ag8
aa(lp18
g2
ag5
ag6
ag3
ag6
ag4
aa(lp19
g2
ag5
ag8
ag5
aa(lp20
g2
ag6
ag3
ag8
ag4
ag6
aa(lp21
g2
ag8
ag3
ag5
ag4
aa(lp22
g2
ag5
ag8
ag6
ag3
ag4
aa(lp23
g2
ag6
ag4
ag5
ag8
ag3
aa(lp24
g2
ag5
ag6
ag4
ag8
ag3
aa(lp25
g2
ag6
ag4
aa(lp26
g2
ag3
ag8
aa(lp27
g2
ag5
ag4
ag8
ag6
aa(lp28
g2
ag5
ag3
ag8
aa(lp29
g2
ag6
ag3
ag4
ag5
aa(lp30
g2
ag6
ag5
ag8
aa(lp31
g2
ag3
ag4
ag4
ag3
ag6
aa(lp32
g2
ag8
ag5
ag8
ag5
aa(lp33
g2
ag4
ag3
ag6
ag8
aa(lp34
g2
ag5
ag4
aa(lp35
g2
ag3
ag6
ag8
ag4
ag5
aa(lp36
g2
ag3
ag6
ag3
aa.