(lp0
(I2246
I4006
tp1
a(I2319
I3932
tp2
a(I2177
I3968
tp3
a(I2097
I3909
tp4
a(I2310
I4050
tp5
a(I2085
I4042
tp6
a(I2230
I4033
tp7
a(I2236
I4059
tp8
a(I2278
I4072
tp9
a(I2169
I3979
tp10
a(I2262
I3999
tp11
a(I2209
I4056
tp12
a(I2106
I4043
tp13
a(I2186
I4048
tp14
a(I2230
I4037
tp15
a(I2240
I4059
tp16
a(I2397
I4078
tp17
a(I2108
I4096
tp18
a(I2227
I4072
tp19
a(I2215
I4053
tp20
a(I2264
I4068
tp21
a(I2315
I3977
tp22
a(I2230
I4076
tp23
a(I2262
I4047
tp24
a(I2210
I4102
tp25
a(I2237
I3952
tp26
a(I2211
I4055
tp27
a(I2231
I3966
tp28
a(I2306
I3972
tp29
a(I2380
I3992
tp30
a(I2256
I4107
tp31
a(I2362
I4152
tp32
a(I2244
I4019
tp33
a(I2243
I4039
tp34
a(I2204
I4084
tp35
a(I2313
I3996
tp36
a(I2265
I4044
tp37
a(I2207
I4026
tp38
a(I2168
I3993
tp39
a(I4263
I5815
tp40
a(I4217
I5771
tp41
a(I4199
I5866
tp42
a(I4169
I5808
tp43
a(I4115
I5606
tp44
a(I4234
I5636
tp45
a(I4234
I5752
tp46
a(I4423
I5661
tp47
a(I4143
I5832
tp48
a(I4047
I5727
tp49
a(I4170
I5938
tp50
a(I4259
I5942
tp51
a(I4116
I5782
tp52
a(I4279
I5819
tp53
a(I4174
I5812
tp54
a(I4142
I5637
tp55
a(I4266
I5870
tp56
a(I4151
I5800
tp57
a(I4195
I5824
tp58
a(I4105
I5897
tp59
a(I4344
I5584
tp60
a(I4167
I5815
tp61
a(I4168
I5759
tp62
a(I4156
I5841
tp63
a(I4196
I5761
tp64
a(I4459
I5774
tp65
a(I4147
I5687
tp66
a(I4308
I5767
tp67
a(I4123
I5834
tp68
a(I4207
I5776
tp69
a(I4169
I5986
tp70
a(I4176
I5782
tp71
a(I4160
I5864
tp72
a(I4316
I5677
tp73
a(I4007
I5981
tp74
a(I4367
I5873
tp75
a(I4186
I5720
tp76
a(I4103
I5823
tp77
a(I4016
I5780
tp78
a(I4070
I5483
tp79
a(I4158
I5641
tp80
a(I4199
I5759
tp81
a(I4234
I5843
tp82
a(I4225
I5614
tp83
a(I4194
I5775
tp84
a(I4154
I5764
tp85
a(I4165
I5690
tp86
a(I3996
I5922
tp87
a(I3994
I5785
tp88
a(I1883
I5003
tp89
a(I1854
I5109
tp90
a(I1821
I5138
tp91
a(I1890
I5102
tp92
a(I1851
I5126
tp93
a(I1872
I5257
tp94
a(I1915
I5228
tp95
a(I1834
I5138
tp96
a(I1880
I5019
tp97
a(I1937
I5169
tp98
a(I1798
I5158
tp99
a(I1854
I5121
tp100
a(I1903
I5138
tp101
a(I1881
I5095
tp102
a(I1855
I5117
tp103
a(I1816
I5146
tp104
a(I1864
I5089
tp105
a(I1831
I5108
tp106
a(I1830
I5123
tp107
a(I1765
I5047
tp108
a(I1802
I5124
tp109
a(I1852
I5126
tp110
a(I1875
I5169
tp111
a(I1656
I5145
tp112
a(I1873
I5242
tp113
a(I1845
I5121
tp114
a(I1795
I5167
tp115
a(I1785
I5109
tp116
a(I1937
I5205
tp117
a(I1850
I5119
tp118
a(I1801
I5293
tp119
a(I1872
I5021
tp120
a(I1883
I4826
tp121
a(I1864
I4867
tp122
a(I1895
I4861
tp123
a(I1863
I4840
tp124
a(I1845
I4820
tp125
a(I1950
I4798
tp126
a(I1944
I4854
tp127
a(I2064
I4755
tp128
a(I1830
I4867
tp129
a(I1867
I4853
tp130
a(I1881
I4859
tp131
a(I2007
I4942
tp132
a(I1901
I4713
tp133
a(I1962
I5044
tp134
a(I2004
I5004
tp135
a(I1946
I4755
tp136
a(I1831
I4816
tp137
a(I2090
I4817
tp138
a(I1878
I4824
tp139
a(I1912
I4848
tp140
a(I1650
I4774
tp141
a(I1918
I4937
tp142
a(I1842
I4829
tp143
a(I1943
I4973
tp144
a(I1958
I4979
tp145
a(I1858
I4863
tp146
a(I1795
I4855
tp147
a(I1869
I4855
tp148
a(I1764
I4771
tp149
a(I1768
I4922
tp150
a(I1897
I4907
tp151
a(I2015
I4854
tp152
a(I1895
I4758
tp153
a(I1900
I4894
tp154
a(I1721
I4905
tp155
a(I2047
I4915
tp156
a(I1846
I4722
tp157
a(I1835
I4917
tp158
a(I1866
I4850
tp159
a(I1957
I4878
tp160
a(I1886
I4832
tp161
a(I2005
I4880
tp162
a(I1687
I4828
tp163
a(I1684
I4751
tp164
a(I1857
I4851
tp165
a(I1844
I4837
tp166
a(I2222
I4433
tp167
a(I2150
I4352
tp168
a(I2248
I4449
tp169
a(I2225
I4433
tp170
a(I2211
I4400
tp171
a(I2212
I4448
tp172
a(I2265
I4451
tp173
a(I2168
I4231
tp174
a(I2223
I4456
tp175
a(I2125
I4481
tp176
a(I2060
I4480
tp177
a(I2355
I4307
tp178
a(I2305
I4423
tp179
a(I2331
I4474
tp180
a(I2272
I4438
tp181
a(I2278
I4437
tp182
a(I2235
I4477
tp183
a(I2388
I4402
tp184
a(I2291
I4228
tp185
a(I2253
I4433
tp186
a(I2156
I4265
tp187
a(I2188
I4408
tp188
a(I2248
I4470
tp189
a(I2099
I4494
tp190
a(I2281
I4287
tp191
a(I2157
I4603
tp192
a(I2219
I4468
tp193
a(I2195
I4512
tp194
a(I2237
I4417
tp195
a(I2091
I4546
tp196
a(I2243
I4466
tp197
a(I2263
I4409
tp198
a(I2240
I4406
tp199
a(I2185
I4255
tp200
a(I2367
I4521
tp201
a(I2255
I4421
tp202
a(I2170
I4447
tp203
a(I2284
I4498
tp204
a(I2219
I4520
tp205
a(I2311
I4516
tp206
a(I2260
I4622
tp207
a(I2182
I4381
tp208
a(I2147
I4465
tp209
a(I2211
I4493
tp210
a(I2206
I4419
tp211
a(I2283
I4197
tp212
a(I2004
I4621
tp213
a(I2082
I4468
tp214
a(I2102
I4517
tp215
a(I2225
I4432
tp216
a.