(lp0
(I2233
I4048
tp1
a(I2233
I4048
tp2
a(I2233
I4048
tp3
a(I4192
I5768
tp4
a(I4192
I5768
tp5
a(I4192
I5768
tp6
a(I4192
I5768
tp7
a(I4192
I5768
tp8
a(I1850
I5123
tp9
a(I1850
I5123
tp10
a(I1850
I5123
tp11
a(I1850
I5123
tp12
a(I1850
I5123
tp13
a(I1869
I4853
tp14
a(I1869
I4853
tp15
a(I2225
I4433
tp16
a.