(dp0
I0
(lp1
I219
aI220
aI221
aI222
aI223
aI224
aI225
aI226
aI227
aI228
aI229
aI230
aI231
aI232
aI233
aI234
aI235
aI236
aI237
aI238
aI239
aI240
aI241
aI242
aI243
aI244
aI245
aI246
aI247
aI248
asI1
(lp2
I219
aI224
aI226
aI229
aI231
aI234
aI237
aI242
aI243
aI245
asI2
(lp3
I219
aI223
aI226
aI228
aI232
aI234
aI238
aI240
aI242
aI245
aI248
asI3
(lp4
I220
aI222
aI226
aI228
aI232
aI236
aI240
aI242
aI244
aI247
asI4
(lp5
I219
aI225
aI227
aI230
aI232
aI235
aI239
aI241
aI244
aI245
aI247
asI5
(lp6
I220
aI221
aI228
aI229
aI233
aI235
aI237
aI240
aI244
aI246
aI248
as.