(dp0
I157
(lp1
I0
aI5
aI3
aI4
aI1
asI158
(lp2
I0
aI2
aI5
aI4
asI159
(lp3
I0
aI3
aI2
aI1
aI5
asI160
(lp4
I0
aI1
aI4
aI3
asI161
(lp5
I0
aI2
aI3
aI1
aI5
asI162
(lp6
I0
aI4
aI2
aI4
aI1
asI163
(lp7
I0
aI2
aI5
asI164
(lp8
I0
aI3
aI4
aI1
aI2
aI3
asI165
(lp9
I0
aI5
aI1
aI5
aI4
asI166
(lp10
I0
aI3
aI2
asI167
(lp11
I0
aI4
aI5
aI1
aI2
asI168
(lp12
I0
aI3
aI2
asI169
(lp13
I0
aI1
aI3
asI170
(lp14
I0
aI4
aI5
aI4
asI171
(lp15
I0
aI5
aI1
aI2
asI172
(lp16
I0
aI3
aI3
aI5
aI1
aI2
asI173
(lp17
I0
aI4
aI4
aI5
aI2
asI174
(lp18
I0
aI3
aI1
aI2
asI175
(lp19
I0
aI3
aI1
asI176
(lp20
I0
aI4
aI5
aI4
aI2
asI177
(lp21
I0
aI3
aI5
aI1
aI3
asI178
(lp22
I0
aI2
aI1
asI179
(lp23
I0
aI5
aI4
aI3
asI180
(lp24
I0
aI2
aI1
asI181
(lp25
I0
aI5
aI4
aI5
asI182
(lp26
I0
aI4
aI1
aI2
aI3
aI5
asI183
(lp27
I0
aI4
aI1
aI2
aI3
aI3
asI184
(lp28
I0
aI2
aI5
aI1
aI4
asI185
(lp29
I0
aI3
aI5
aI4
aI1
aI2
asI186
(lp30
I0
aI3
aI5
aI2
aI1
aI4
as.