(dp0
I219
(lp1
I0
aI4
aI2
aI1
asI220
(lp2
I0
aI3
aI5
asI221
(lp3
I0
aI5
asI222
(lp4
I0
aI3
asI223
(lp5
I0
aI2
asI224
(lp6
I0
aI1
asI225
(lp7
I0
aI4
asI226
(lp8
I0
aI3
aI2
aI1
asI227
(lp9
I0
aI4
asI228
(lp10
I0
aI5
aI3
aI2
asI229
(lp11
I0
aI1
aI5
asI230
(lp12
I0
aI4
asI231
(lp13
I0
aI1
asI232
(lp14
I0
aI3
aI2
aI4
asI233
(lp15
I0
aI5
asI234
(lp16
I0
aI1
aI2
asI235
(lp17
I0
aI5
aI4
asI236
(lp18
I0
aI3
aI3
asI237
(lp19
I0
aI1
aI5
asI238
(lp20
I0
aI2
asI239
(lp21
I0
aI4
asI240
(lp22
I0
aI2
aI5
aI3
asI241
(lp23
I0
aI4
asI242
(lp24
I0
aI1
aI3
aI2
asI243
(lp25
I0
aI1
asI244
(lp26
I0
aI5
aI4
aI3
asI245
(lp27
I0
aI2
aI4
aI1
asI246
(lp28
I0
aI5
asI247
(lp29
I0
aI3
aI4
asI248
(lp30
I0
aI2
aI5
as.