(lp0
(lp1
(I2830
I3716
tp2
a(I4523
I5081
tp3
aa(lp4
g2
a(I4730
I4891
tp5
a(I1439
I3180
tp6
a(I4610
I5704
tp7
aa(lp8
g2
a(I4796
I4525
tp9
ag7
aa(lp10
g2
ag5
ag9
aa(lp11
g2
ag3
ag6
ag7
aa(lp12
g2
ag9
ag3
aa(lp13
g2
ag5
ag6
ag5
aa(lp14
g2
ag3
ag6
ag9
aa(lp15
g2
ag7
ag6
aa(lp16
g2
ag7
aa(lp17
g2
ag9
ag5
aa(lp18
g2
ag3
aa(lp19
g2
ag5
aa(lp20
g2
ag7
aa(lp21
g2
ag6
ag9
aa(lp22
g2
ag3
aa(lp23
g2
ag3
aa(lp24
g2
ag9
ag6
ag5
aa(lp25
g2
ag7
aa(lp26
g2
ag9
ag7
ag5
aa(lp27
g2
ag6
ag3
aa(lp28
g2
ag9
ag5
ag7
aa(lp29
g2
ag6
ag3
ag5
aa(lp30
g2
ag3
ag9
aa(lp31
g2
ag7
ag6
aa(lp32
g2
ag7
ag9
ag6
aa(lp33
g2
ag3
ag5
ag7
aa(lp34
g2
ag6
ag9
ag3
aa(lp35
g2
ag5
ag6
aa(lp36
g2
ag5
ag9
aa.