(lp0
(I4909
I4516
tp1
a(I4916
I4478
tp2
a(I4977
I4493
tp3
a(I4978
I4533
tp4
a(I5167
I4544
tp5
a(I4929
I4517
tp6
a(I4962
I4429
tp7
a(I4951
I4495
tp8
a(I4928
I4500
tp9
a(I4728
I4424
tp10
a(I5095
I4429
tp11
a(I4960
I4549
tp12
a(I5082
I4454
tp13
a(I4898
I4538
tp14
a(I5127
I4533
tp15
a(I4948
I4512
tp16
a(I4982
I4502
tp17
a(I4962
I4504
tp18
a(I5014
I4497
tp19
a(I4958
I4431
tp20
a(I4881
I4368
tp21
a(I5043
I4549
tp22
a(I4823
I4335
tp23
a(I4674
I4567
tp24
a(I4989
I4461
tp25
a(I4935
I4430
tp26
a(I4912
I4681
tp27
a(I5068
I4534
tp28
a(I4943
I4692
tp29
a(I4886
I4566
tp30
a(I4936
I4524
tp31
a(I4922
I4463
tp32
a(I5066
I4395
tp33
a(I4991
I4495
tp34
a(I4819
I4483
tp35
a(I5040
I4551
tp36
a(I5068
I4464
tp37
a(I5074
I4344
tp38
a(I4895
I4641
tp39
a(I4966
I4502
tp40
a(I5012
I4526
tp41
a(I5115
I4235
tp42
a(I5150
I4459
tp43
a(I4895
I4481
tp44
a(I5007
I4236
tp45
a(I4874
I4530
tp46
a(I4848
I4720
tp47
a(I4943
I4519
tp48
a(I4952
I4395
tp49
a(I4959
I4413
tp50
a(I2850
I4632
tp51
a(I2909
I4596
tp52
a(I3032
I4674
tp53
a(I2858
I4766
tp54
a(I2834
I4808
tp55
a(I2911
I4704
tp56
a(I2925
I4791
tp57
a(I2886
I4713
tp58
a(I2895
I4664
tp59
a(I2906
I4731
tp60
a(I2933
I4727
tp61
a(I2893
I4810
tp62
a(I2908
I4709
tp63
a(I2909
I4708
tp64
a(I2930
I4641
tp65
a(I2989
I4790
tp66
a(I2912
I4712
tp67
a(I2930
I4718
tp68
a(I3008
I4658
tp69
a(I2868
I4771
tp70
a(I2938
I4546
tp71
a(I2786
I4818
tp72
a(I2975
I4670
tp73
a(I3016
I4659
tp74
a(I2937
I4742
tp75
a(I2872
I4742
tp76
a(I2921
I4697
tp77
a(I2905
I4752
tp78
a(I2882
I4750
tp79
a(I2946
I4707
tp80
a(I2934
I4750
tp81
a(I2865
I4717
tp82
a(I2917
I4663
tp83
a(I2951
I4691
tp84
a(I3068
I4806
tp85
a(I2944
I4665
tp86
a(I2876
I4638
tp87
a(I1989
I3878
tp88
a(I2101
I4058
tp89
a(I2071
I4067
tp90
a(I2077
I4171
tp91
a(I2057
I4027
tp92
a(I2093
I4066
tp93
a(I2053
I4127
tp94
a(I2074
I4067
tp95
a(I2020
I3962
tp96
a(I2078
I4068
tp97
a(I2194
I3964
tp98
a(I2116
I4122
tp99
a(I2248
I4138
tp100
a(I1968
I4125
tp101
a(I1960
I4026
tp102
a(I2183
I4144
tp103
a(I2122
I4028
tp104
a(I2225
I3975
tp105
a(I1905
I4068
tp106
a(I2112
I4059
tp107
a(I2103
I4072
tp108
a(I2052
I4103
tp109
a(I1986
I4009
tp110
a(I2105
I3990
tp111
a(I2076
I4060
tp112
a(I1992
I4085
tp113
a(I2033
I3960
tp114
a(I2062
I4078
tp115
a(I2031
I4086
tp116
a(I2210
I4168
tp117
a(I2097
I4067
tp118
a(I2054
I4139
tp119
a(I2025
I3971
tp120
a(I1918
I4005
tp121
a(I3913
I4557
tp122
a(I3894
I4663
tp123
a(I3929
I4429
tp124
a(I3955
I4434
tp125
a(I3982
I4233
tp126
a(I3846
I4553
tp127
a(I3878
I4308
tp128
a(I3858
I4346
tp129
a(I3970
I4369
tp130
a(I3912
I4417
tp131
a(I3883
I4310
tp132
a(I3943
I4417
tp133
a(I3782
I4300
tp134
a(I3988
I4385
tp135
a(I3832
I4554
tp136
a(I4058
I4570
tp137
a(I3940
I4436
tp138
a(I3891
I4475
tp139
a(I4081
I4444
tp140
a(I3896
I4289
tp141
a(I3933
I4486
tp142
a(I3958
I4450
tp143
a(I3996
I4430
tp144
a(I3760
I4575
tp145
a(I3944
I4487
tp146
a(I3950
I4445
tp147
a(I3905
I4439
tp148
a(I3939
I4440
tp149
a(I3943
I4455
tp150
a(I3882
I4355
tp151
a(I3898
I4330
tp152
a(I4083
I4351
tp153
a(I3841
I4281
tp154
a(I3932
I4462
tp155
a(I4001
I4523
tp156
a(I3950
I4446
tp157
a(I3948
I4445
tp158
a(I3952
I4449
tp159
a(I3930
I4454
tp160
a(I4042
I4530
tp161
a(I4186
I4395
tp162
a(I3063
I3988
tp163
a(I3051
I4163
tp164
a(I3047
I3947
tp165
a(I3068
I4075
tp166
a(I3088
I3938
tp167
a(I2997
I3773
tp168
a(I3207
I3884
tp169
a(I3074
I4062
tp170
a(I2995
I3942
tp171
a(I3152
I3968
tp172
a(I3158
I3899
tp173
a(I2977
I3952
tp174
a(I2995
I3996
tp175
a(I3157
I3868
tp176
a(I3159
I3988
tp177
a(I3066
I4045
tp178
a(I3140
I3987
tp179
a(I2976
I3816
tp180
a(I3079
I3955
tp181
a(I3083
I3883
tp182
a(I3124
I3953
tp183
a(I3072
I3964
tp184
a(I3082
I3961
tp185
a(I2928
I3856
tp186
a(I2975
I3900
tp187
a(I3073
I4059
tp188
a(I3011
I4030
tp189
a(I3037
I3997
tp190
a(I3093
I3972
tp191
a(I3073
I4069
tp192
a(I3076
I3967
tp193
a(I3056
I3896
tp194
a(I3134
I3899
tp195
a(I3156
I3875
tp196
a(I3273
I4019
tp197
a(I3074
I3964
tp198
a(I3093
I4070
tp199
a(I3158
I3858
tp200
a(I2978
I4019
tp201
a(I3059
I3973
tp202
a.