(lp0
(I4668
I4584
tp1
a(I4795
I4532
tp2
a(I4736
I4574
tp3
a(I4796
I4524
tp4
a(I4836
I4515
tp5
a(I4972
I4430
tp6
a(I4564
I4582
tp7
a(I4848
I4612
tp8
a(I4906
I4439
tp9
a(I4857
I4326
tp10
a(I4818
I4466
tp11
a(I4728
I4491
tp12
a(I4850
I4679
tp13
a(I4824
I4595
tp14
a(I4620
I4534
tp15
a(I4810
I4731
tp16
a(I4808
I4507
tp17
a(I4925
I4435
tp18
a(I4839
I4523
tp19
a(I5034
I4561
tp20
a(I4844
I4594
tp21
a(I4773
I4390
tp22
a(I4810
I4644
tp23
a(I4662
I4559
tp24
a(I4809
I4470
tp25
a(I4938
I4501
tp26
a(I4620
I4539
tp27
a(I4817
I4539
tp28
a(I4721
I4388
tp29
a(I4938
I4405
tp30
a(I4837
I4326
tp31
a(I4902
I4453
tp32
a(I4961
I4722
tp33
a(I4687
I4556
tp34
a(I4864
I4449
tp35
a(I4844
I4420
tp36
a(I4764
I4553
tp37
a(I4763
I4580
tp38
a(I4975
I4621
tp39
a(I1439
I3195
tp40
a(I1386
I3113
tp41
a(I1422
I3174
tp42
a(I1442
I3184
tp43
a(I1349
I3241
tp44
a(I1395
I3252
tp45
a(I1523
I3349
tp46
a(I1436
I2933
tp47
a(I1313
I3106
tp48
a(I1508
I3195
tp49
a(I1531
I3392
tp50
a(I1222
I3207
tp51
a(I1553
I3233
tp52
a(I1370
I3155
tp53
a(I1349
I3211
tp54
a(I1396
I3232
tp55
a(I1563
I3117
tp56
a(I1352
I3051
tp57
a(I1425
I3193
tp58
a(I1731
I3323
tp59
a(I1432
I3212
tp60
a(I1572
I2950
tp61
a(I1505
I3035
tp62
a(I1167
I3079
tp63
a(I1349
I3210
tp64
a(I1405
I3165
tp65
a(I1496
I3324
tp66
a(I1356
I3009
tp67
a(I1441
I3199
tp68
a(I1407
I3155
tp69
a(I1582
I3115
tp70
a(I1481
I3102
tp71
a(I1416
I3310
tp72
a(I1437
I3135
tp73
a(I1498
I3268
tp74
a(I1581
I3233
tp75
a(I1517
I3185
tp76
a(I1528
I3264
tp77
a(I1489
I2962
tp78
a(I1460
I3217
tp79
a(I1392
I3219
tp80
a(I4589
I5715
tp81
a(I4643
I5629
tp82
a(I4782
I5660
tp83
a(I4629
I5676
tp84
a(I4690
I5628
tp85
a(I4610
I5704
tp86
a(I4471
I5738
tp87
a(I4603
I5670
tp88
a(I4629
I5756
tp89
a(I4584
I5693
tp90
a(I4508
I5650
tp91
a(I4632
I5596
tp92
a(I4578
I5723
tp93
a(I4549
I5713
tp94
a(I4517
I5654
tp95
a(I4611
I5703
tp96
a(I4707
I5721
tp97
a(I4511
I5723
tp98
a(I4643
I5740
tp99
a(I4596
I5696
tp100
a(I4692
I5790
tp101
a(I4611
I5706
tp102
a(I4628
I5618
tp103
a(I4610
I5702
tp104
a(I4544
I5574
tp105
a(I4745
I5799
tp106
a(I4563
I5647
tp107
a(I4677
I5704
tp108
a(I4605
I5757
tp109
a(I4571
I5723
tp110
a(I4653
I5735
tp111
a(I4602
I5826
tp112
a(I4621
I5636
tp113
a(I4633
I5686
tp114
a(I4643
I5767
tp115
a(I4646
I5704
tp116
a(I4484
I5602
tp117
a(I4622
I5709
tp118
a(I4616
I5716
tp119
a(I4604
I5729
tp120
a(I4501
I5695
tp121
a(I4610
I5728
tp122
a(I4608
I5711
tp123
a(I4642
I5694
tp124
a(I4630
I5670
tp125
a(I4588
I5692
tp126
a(I4763
I4898
tp127
a(I4730
I4904
tp128
a(I4858
I4815
tp129
a(I4741
I4897
tp130
a(I4668
I5021
tp131
a(I4658
I4978
tp132
a(I4681
I4893
tp133
a(I4697
I4826
tp134
a(I4734
I4884
tp135
a(I4798
I4892
tp136
a(I4810
I4907
tp137
a(I4655
I4948
tp138
a(I4764
I4877
tp139
a(I4663
I4830
tp140
a(I4824
I4855
tp141
a(I4704
I5003
tp142
a(I4719
I4923
tp143
a(I4669
I4947
tp144
a(I4730
I4890
tp145
a(I4730
I4890
tp146
a(I4791
I4870
tp147
a(I4730
I4910
tp148
a(I4671
I4834
tp149
a(I4846
I5037
tp150
a(I4766
I4910
tp151
a(I4688
I4802
tp152
a(I4809
I4866
tp153
a(I4672
I4924
tp154
a(I4716
I4958
tp155
a(I4802
I4765
tp156
a(I4699
I4897
tp157
a(I4584
I5008
tp158
a(I4730
I4891
tp159
a(I4714
I4896
tp160
a(I4739
I5035
tp161
a(I4849
I4939
tp162
a(I4747
I4833
tp163
a(I4757
I4884
tp164
a(I4703
I4914
tp165
a(I4792
I4960
tp166
a(I4713
I4890
tp167
a(I4712
I4759
tp168
a(I4713
I4918
tp169
a(I4783
I4888
tp170
a(I4747
I4939
tp171
a(I4748
I4868
tp172
a(I4736
I4884
tp173
a(I4519
I5067
tp174
a(I4506
I5078
tp175
a(I4537
I5082
tp176
a(I4522
I5079
tp177
a(I4677
I5098
tp178
a(I4530
I5094
tp179
a(I4569
I5069
tp180
a(I4626
I5194
tp181
a(I4416
I5090
tp182
a(I4504
I5080
tp183
a(I4531
I4884
tp184
a(I4537
I5107
tp185
a(I4467
I5064
tp186
a(I4498
I5097
tp187
a(I4525
I5078
tp188
a(I4448
I5125
tp189
a(I4576
I5210
tp190
a(I4658
I5160
tp191
a(I4516
I5101
tp192
a(I4441
I4993
tp193
a(I4530
I5079
tp194
a(I4583
I4996
tp195
a(I4493
I5048
tp196
a(I4384
I5029
tp197
a(I4520
I5092
tp198
a(I4638
I5082
tp199
a(I4550
I5101
tp200
a(I4516
I5208
tp201
a(I4608
I5191
tp202
a(I4572
I5113
tp203
a(I4495
I5046
tp204
a(I4528
I5123
tp205
a(I4432
I5136
tp206
a(I4557
I5061
tp207
a(I4445
I4997
tp208
a(I4642
I4966
tp209
a(I4564
I5237
tp210
a(I4472
I5130
tp211
a(I4533
I5078
tp212
a(I4523
I5081
tp213
a(I4571
I5074
tp214
a(I4687
I5048
tp215
a(I4418
I4936
tp216
a(I4511
I5046
tp217
a(I4658
I5154
tp218
a(I4581
I5057
tp219
a(I4607
I5015
tp220
a(I4516
I5065
tp221
a(I4583
I5077
tp222
a(I4583
I4964
tp223
a.