(lp0
(I1866
I3122
tp1
a(I1866
I3299
tp2
a(I1985
I3110
tp3
a(I1608
I3107
tp4
a(I1911
I2900
tp5
a(I1642
I2980
tp6
a(I1711
I3218
tp7
a(I1788
I2989
tp8
a(I1679
I3061
tp9
a(I2017
I3128
tp10
a(I1875
I3271
tp11
a(I1660
I3092
tp12
a(I1614
I3000
tp13
a(I1943
I3027
tp14
a(I1873
I3109
tp15
a(I2002
I3143
tp16
a(I1975
I3214
tp17
a(I1646
I3028
tp18
a(I1709
I2946
tp19
a(I1823
I3285
tp20
a(I1815
I3246
tp21
a(I1885
I2938
tp22
a(I1821
I3061
tp23
a(I1886
I2935
tp24
a(I1952
I3107
tp25
a(I1874
I2964
tp26
a(I1716
I3100
tp27
a(I2375
I3361
tp28
a(I2446
I3555
tp29
a(I2220
I3566
tp30
a(I2426
I3558
tp31
a(I2076
I3541
tp32
a(I2181
I3562
tp33
a(I2174
I3360
tp34
a(I2128
I3626
tp35
a(I2207
I3366
tp36
a(I2163
I3322
tp37
a(I2197
I3249
tp38
a(I2046
I3551
tp39
a(I2166
I3494
tp40
a(I2250
I3343
tp41
a(I2039
I3365
tp42
a(I2366
I3430
tp43
a(I2126
I3466
tp44
a(I2229
I3485
tp45
a(I2320
I3288
tp46
a(I2326
I3346
tp47
a(I2370
I3569
tp48
a(I2222
I3298
tp49
a(I2325
I3472
tp50
a(I2445
I3565
tp51
a(I2357
I3613
tp52
a(I2386
I3441
tp53
a(I2195
I3409
tp54
a(I2208
I3584
tp55
a(I2419
I3433
tp56
a(I2082
I3608
tp57
a(I4883
I4867
tp58
a(I4803
I4934
tp59
a(I4799
I4765
tp60
a(I4838
I4745
tp61
a(I5060
I5132
tp62
a(I5120
I4884
tp63
a(I4915
I5089
tp64
a(I4823
I4895
tp65
a(I4863
I5085
tp66
a(I4872
I4656
tp67
a(I4944
I4918
tp68
a(I5015
I4806
tp69
a(I4866
I4800
tp70
a(I4894
I4762
tp71
a(I5090
I5070
tp72
a(I4729
I4838
tp73
a(I4983
I4879
tp74
a(I5166
I5069
tp75
a(I4953
I4620
tp76
a(I4918
I4773
tp77
a(I4735
I4866
tp78
a(I4903
I4773
tp79
a(I5016
I5120
tp80
a(I4764
I5013
tp81
a(I4881
I5061
tp82
a(I5074
I4900
tp83
a(I5067
I4921
tp84
a(I5180
I4930
tp85
a(I5000
I5028
tp86
a(I4776
I5035
tp87
a(I4635
I3444
tp88
a(I4840
I3446
tp89
a(I4737
I3641
tp90
a(I4855
I3319
tp91
a(I4666
I3368
tp92
a(I4841
I3480
tp93
a(I4869
I3566
tp94
a(I4832
I3473
tp95
a(I4814
I3650
tp96
a(I4714
I3450
tp97
a(I4683
I3493
tp98
a(I4998
I3354
tp99
a(I4889
I3502
tp100
a(I4762
I3639
tp101
a(I4799
I3501
tp102
a(I4690
I3611
tp103
a(I4764
I3297
tp104
a(I4929
I3469
tp105
a(I5036
I3475
tp106
a(I5004
I3521
tp107
a(I4909
I3637
tp108
a(I4878
I3651
tp109
a(I4708
I3409
tp110
a(I4864
I3437
tp111
a(I4957
I3646
tp112
a(I3001
I3787
tp113
a(I3175
I3729
tp114
a(I3247
I3651
tp115
a(I3295
I3493
tp116
a(I2939
I3646
tp117
a(I3273
I3518
tp118
a(I3062
I3479
tp119
a(I3112
I3628
tp120
a(I3372
I3549
tp121
a(I3122
I3592
tp122
a(I3057
I3594
tp123
a(I3095
I3596
tp124
a(I3176
I3708
tp125
a(I3342
I3465
tp126
a(I3231
I3487
tp127
a(I3057
I3470
tp128
a(I3301
I3675
tp129
a(I3292
I3452
tp130
a(I2966
I3737
tp131
a(I3177
I3854
tp132
a(I3355
I3696
tp133
a(I3037
I3788
tp134
a.