(lp0
(I4796
I4525
tp1
a(I4796
I4525
tp2
a(I4796
I4525
tp3
a(I1439
I3180
tp4
a(I1439
I3180
tp5
a(I1439
I3180
tp6
a(I4610
I5704
tp7
a(I4730
I4891
tp8
a(I4730
I4891
tp9
a(I4730
I4891
tp10
a(I4523
I5081
tp11
a.