(lp0
(I4952
I4498
tp1
a(I4952
I4498
tp2
a(I4952
I4498
tp3
a(I2911
I4708
tp4
a(I2911
I4708
tp5
a(I2075
I4067
tp6
a(I2075
I4067
tp7
a(I2075
I4067
tp8
a(I3952
I4449
tp9
a(I3952
I4449
tp10
a(I3076
I3967
tp11
a.