(lp0
(I1818
I3100
tp1
a(I1818
I3100
tp2
a(I1818
I3100
tp3
a(I2252
I3448
tp4
a(I2252
I3448
tp5
a(I2252
I3448
tp6
a(I2252
I3448
tp7
a(I4968
I4880
tp8
a(I4968
I4880
tp9
a(I4968
I4880
tp10
a(I4826
I3484
tp11
a(I4826
I3484
tp12
a(I4826
I3484
tp13
a(I3162
I3631
tp14
a(I3162
I3631
tp15
a(I3162
I3631
tp16
a(I3162
I3631
tp17
a.