(dp0
I0
(lp1
I84
aI85
aI86
aI87
aI88
aI89
aI90
aI91
aI92
aI93
aI94
aI95
aI96
aI97
aI98
aI99
aI100
aI101
aI102
aI103
aI104
aI105
aI106
aI107
aI108
aI109
aI110
aI111
aI112
aI113
asI1
(lp2
I85
aI88
aI89
aI90
aI91
aI93
aI94
aI95
aI97
aI99
aI100
aI103
aI105
aI106
aI108
aI109
aI110
aI111
aI113
asI2
(lp3
I84
aI86
aI88
aI89
aI90
aI91
aI93
aI94
aI96
aI98
aI100
aI101
aI102
aI104
aI107
aI108
aI110
aI112
aI113
asI3
(lp4
I84
aI87
aI88
aI89
aI90
aI91
aI92
aI93
aI96
aI97
aI99
aI100
aI101
aI102
aI106
aI107
aI109
aI110
aI112
as.