(dp0
I0
(lp1
I82
aI83
aI84
aI85
aI86
aI87
aI88
aI89
aI90
aI91
aI92
aI93
aI94
aI95
aI96
aI97
aI98
aI99
aI100
aI101
aI102
aI103
aI104
aI105
aI106
aI107
aI108
aI109
aI110
aI111
asI1
(lp2
I82
aI83
aI85
aI87
aI88
aI90
aI91
aI93
aI94
aI95
aI97
aI98
aI100
aI102
aI103
aI104
aI105
aI106
aI108
aI109
aI111
asI2
(lp3
I82
aI83
aI84
aI86
aI88
aI89
aI91
aI92
aI93
aI95
aI96
aI97
aI98
aI99
aI101
aI102
aI103
aI104
aI105
aI106
aI107
aI108
aI109
aI110
asI3
(lp4
I82
aI83
aI84
aI86
aI87
aI89
aI90
aI91
aI92
aI93
aI94
aI96
aI97
aI98
aI100
aI101
aI102
aI104
aI105
aI106
aI107
aI108
aI109
aI110
aI111
as.