(dp0
I84
(lp1
I0
aI2
aI3
asI85
(lp2
I0
aI1
aI1
asI86
(lp3
I0
aI2
asI87
(lp4
I0
aI3
asI88
(lp5
I0
aI1
aI2
aI3
asI89
(lp6
I0
aI2
aI1
aI3
asI90
(lp7
I0
aI3
aI1
aI2
asI91
(lp8
I0
aI1
aI3
aI2
asI92
(lp9
I0
aI3
asI93
(lp10
I0
aI2
aI1
aI3
asI94
(lp11
I0
aI1
aI2
aI2
asI95
(lp12
I0
aI1
asI96
(lp13
I0
aI3
aI2
asI97
(lp14
I0
aI1
aI3
asI98
(lp15
I0
aI2
asI99
(lp16
I0
aI1
aI3
aI1
asI100
(lp17
I0
aI2
aI3
aI1
asI101
(lp18
I0
aI3
aI2
asI102
(lp19
I0
aI3
aI2
asI103
(lp20
I0
aI1
asI104
(lp21
I0
aI2
asI105
(lp22
I0
aI1
asI106
(lp23
I0
aI3
aI3
aI1
asI107
(lp24
I0
aI2
aI3
asI108
(lp25
I0
aI1
aI2
aI2
asI109
(lp26
I0
aI3
aI1
asI110
(lp27
I0
aI1
aI2
aI3
asI111
(lp28
I0
aI1
asI112
(lp29
I0
aI2
aI3
aI3
asI113
(lp30
I0
aI1
aI2
aI1
as.