(lp0
(lp1
(I4741
I4266
tp2
a(I2838
I5015
tp3
a(I4952
I5317
tp4
a(I2557
I5705
tp5
aa(lp6
g2
a(I2923
I4265
tp7
aa(lp8
g2
a(I2291
I4193
tp9
aa(lp10
g2
ag7
ag3
aa(lp11
g2
ag5
aa(lp12
g2
ag9
ag4
aa(lp13
g2
ag3
ag4
aa(lp14
g2
ag9
ag7
ag5
aa(lp15
g2
ag5
ag9
aa(lp16
g2
ag3
ag4
aa(lp17
g2
ag7
ag5
ag3
aa(lp18
g2
ag9
ag4
aa(lp19
g2
ag7
ag7
aa(lp20
g2
ag3
ag4
aa(lp21
g2
ag9
ag5
aa(lp22
g2
ag3
ag4
aa(lp23
g2
ag5
ag7
aa(lp24
g2
ag9
ag7
ag4
aa(lp25
g2
ag3
aa(lp26
g2
ag5
ag9
aa(lp27
g2
ag4
aa(lp28
g2
ag9
ag5
aa(lp29
g2
ag3
aa(lp30
g2
ag7
ag5
aa(lp31
g2
ag4
ag7
aa(lp32
g2
ag3
ag9
aa(lp33
g2
ag4
ag5
aa(lp34
g2
ag3
ag7
aa(lp35
g2
ag9
ag9
ag3
aa(lp36
g2
ag5
ag7
aa.