(lp0
(lp1
(I4462
I3394
tp2
a(I1788
I4077
tp3
a(I3447
I5111
tp4
a(I2029
I3109
tp5
a(I4286
I4351
tp6
a(I3133
I4495
tp7
aa(lp8
g2
ag7
ag3
ag6
ag4
ag5
aa(lp9
g2
ag3
ag4
ag6
ag5
ag7
aa(lp10
g2
ag4
ag7
ag5
ag3
aa(lp11
g2
ag6
aa(lp12
g2
ag5
ag4
ag6
ag3
aa(lp13
g2
ag7
ag5
ag3
aa(lp14
g2
ag7
ag4
ag6
ag5
ag3
aa(lp15
g2
ag7
ag6
ag4
ag5
ag3
aa(lp16
g2
ag7
aa(lp17
g2
ag6
aa(lp18
g2
ag4
aa(lp19
g2
ag3
ag6
ag7
ag4
ag5
aa(lp20
g2
ag3
ag5
ag4
ag7
ag6
aa(lp21
g2
ag3
ag4
ag5
ag7
ag6
aa(lp22
g2
ag4
ag3
ag5
ag6
ag7
aa(lp23
g2
ag6
aa(lp24
g2
ag5
ag4
ag3
aa(lp25
g2
ag7
ag6
ag7
ag5
ag4
aa(lp26
g2
ag3
ag7
ag3
aa(lp27
g2
ag6
ag5
ag4
aa(lp28
g2
ag5
ag6
ag7
ag3
aa(lp29
g2
ag4
ag7
ag4
aa(lp30
g2
ag3
aa(lp31
g2
ag6
ag5
ag4
ag7
ag3
aa(lp32
g2
ag5
ag6
ag6
aa(lp33
g2
ag7
ag5
aa(lp34
g2
ag4
ag3
ag5
aa(lp35
g2
ag4
ag7
ag6
aa(lp36
g2
ag3
ag7
ag4
ag3
aa.