(lp0
(lp1
(I1950
I4722
tp2
a(I2771
I4571
tp3
a(I1520
I3825
tp4
aa(lp5
g2
a(I4432
I3953
tp6
a(I4207
I5394
tp7
aa(lp8
g2
a(I4625
I5365
tp9
ag9
ag7
aa(lp10
g2
ag6
aa(lp11
g2
ag4
ag3
ag4
aa(lp12
g2
ag3
ag9
ag6
aa(lp13
g2
ag7
ag6
aa(lp14
g2
ag3
aa(lp15
g2
ag4
ag9
ag7
aa(lp16
g2
ag3
ag7
ag9
aa(lp17
g2
ag6
ag4
aa(lp18
g2
ag3
ag7
ag9
aa(lp19
g2
ag4
ag6
ag7
aa(lp20
g2
ag4
aa(lp21
g2
ag3
ag9
aa(lp22
g2
ag6
ag6
aa(lp23
g2
ag9
ag7
aa(lp24
g2
ag3
ag4
ag7
aa(lp25
g2
ag3
ag6
ag9
aa(lp26
g2
ag4
ag7
ag9
aa(lp27
g2
ag4
ag6
aa(lp28
g2
ag3
aa(lp29
g2
ag7
aa(lp30
g2
ag6
ag4
aa(lp31
g2
ag9
aa(lp32
g2
ag3
ag4
ag3
aa(lp33
g2
ag7
ag6
aa(lp34
g2
ag9
ag6
ag9
aa(lp35
g2
ag7
ag3
ag4
aa(lp36
g2
ag9
aa.