(dp0
I82
(lp1
I0
aI1
aI2
aI3
aI1
aI2
asI83
(lp2
I0
aI3
aI3
aI1
aI2
aI1
asI84
(lp3
I0
aI2
aI3
aI2
aI3
asI85
(lp4
I0
aI1
aI1
asI86
(lp5
I0
aI3
aI2
aI3
aI2
asI87
(lp6
I0
aI1
aI3
aI1
asI88
(lp7
I0
aI2
aI1
asI89
(lp8
I0
aI2
aI3
aI2
asI90
(lp9
I0
aI1
aI3
aI3
aI1
asI91
(lp10
I0
aI2
aI3
aI1
aI2
aI1
asI92
(lp11
I0
aI2
aI3
asI93
(lp12
I0
aI3
aI2
aI1
aI2
aI3
asI94
(lp13
I0
aI1
aI3
asI95
(lp14
I0
aI1
aI2
asI96
(lp15
I0
aI3
aI2
asI97
(lp16
I0
aI1
aI3
aI2
aI1
asI98
(lp17
I0
aI1
aI3
aI2
aI3
aI1
asI99
(lp18
I0
aI2
aI2
asI100
(lp19
I0
aI1
aI3
aI1
aI3
asI101
(lp20
I0
aI2
aI3
asI102
(lp21
I0
aI2
aI1
aI3
asI103
(lp22
I0
aI2
aI1
aI2
aI1
asI104
(lp23
I0
aI3
aI3
aI1
aI2
aI2
asI105
(lp24
I0
aI3
aI1
aI2
aI3
aI1
asI106
(lp25
I0
aI3
aI2
aI1
aI1
asI107
(lp26
I0
aI2
aI3
aI3
aI2
asI108
(lp27
I0
aI1
aI2
aI3
aI1
aI1
asI109
(lp28
I0
aI2
aI3
aI1
aI2
asI110
(lp29
I0
aI3
aI2
asI111
(lp30
I0
aI1
aI3
as.