(lp0
(lp1
(I2669
I3949
tp2
a(I1352
I3140
tp3
a(I4381
I5610
tp4
a(I1337
I4644
tp5
aa(lp6
g2
a(I2447
I4940
tp7
a(I1897
I5738
tp8
ag8
aa(lp9
g2
ag4
ag7
aa(lp10
g2
ag5
ag3
aa(lp11
g2
ag4
ag7
ag8
aa(lp12
g2
ag3
aa(lp13
g2
ag5
aa(lp14
g2
ag7
aa(lp15
g2
ag8
ag5
aa(lp16
g2
ag4
ag3
ag4
aa(lp17
g2
ag8
ag5
ag7
aa(lp18
g2
ag3
ag5
aa(lp19
g2
ag4
ag8
ag3
aa(lp20
g2
ag7
ag7
aa(lp21
g2
ag4
aa(lp22
g2
ag5
ag3
aa(lp23
g2
ag8
ag4
aa(lp24
g2
ag8
aa(lp25
g2
ag5
aa(lp26
g2
ag7
ag3
aa(lp27
g2
ag5
aa(lp28
g2
ag8
aa(lp29
g2
ag3
ag4
aa(lp30
g2
ag7
ag4
aa(lp31
g2
ag8
aa(lp32
g2
ag3
ag7
aa(lp33
g2
ag5
aa(lp34
g2
ag3
ag5
ag4
aa(lp35
g2
ag7
aa(lp36
g2
ag8
ag5
ag8
aa.