(lp0
(I2999
I4242
tp1
a(I3006
I4432
tp2
a(I3146
I4102
tp3
a(I3196
I4192
tp4
a(I3015
I3924
tp5
a(I2871
I4340
tp6
a(I3053
I3941
tp7
a(I3205
I3946
tp8
a(I3120
I4228
tp9
a(I3234
I4137
tp10
a(I3188
I4382
tp11
a(I2888
I3982
tp12
a(I3017
I4308
tp13
a(I3022
I4044
tp14
a(I3289
I4242
tp15
a(I2851
I4080
tp16
a(I2953
I4339
tp17
a(I3174
I4089
tp18
a(I3321
I4213
tp19
a(I3149
I4404
tp20
a(I2929
I4096
tp21
a(I3071
I3971
tp22
a(I3152
I3924
tp23
a(I3195
I4069
tp24
a(I3176
I4315
tp25
a(I2949
I4442
tp26
a(I2708
I4555
tp27
a(I2847
I4436
tp28
a(I2681
I4571
tp29
a(I2858
I4373
tp30
a(I2811
I4265
tp31
a(I2637
I4446
tp32
a(I2678
I4436
tp33
a(I2698
I4271
tp34
a(I2832
I4270
tp35
a(I2898
I4410
tp36
a(I2615
I4469
tp37
a(I2609
I4351
tp38
a(I2708
I4496
tp39
a(I2768
I4429
tp40
a(I2782
I4416
tp41
a(I2852
I4568
tp42
a(I2763
I4551
tp43
a(I2653
I4348
tp44
a(I2694
I4377
tp45
a(I2664
I4454
tp46
a(I3004
I3585
tp47
a(I3011
I3428
tp48
a(I2700
I3361
tp49
a(I2949
I3321
tp50
a(I2869
I3425
tp51
a(I2673
I3384
tp52
a(I2799
I3369
tp53
a(I2733
I3584
tp54
a(I2856
I3557
tp55
a(I3011
I3410
tp56
a(I3003
I3453
tp57
a(I2840
I3298
tp58
a(I2726
I3506
tp59
a(I2691
I3516
tp60
a(I2906
I3279
tp61
a(I2659
I3415
tp62
a(I2838
I3518
tp63
a(I2713
I3488
tp64
a(I2808
I3635
tp65
a(I2876
I3394
tp66
a(I2847
I3403
tp67
a.