(lp0
(I4225
I5489
tp1
a(I4360
I5441
tp2
a(I4378
I5420
tp3
a(I4077
I5384
tp4
a(I4110
I5429
tp5
a(I4210
I5317
tp6
a(I4308
I5264
tp7
a(I4150
I5395
tp8
a(I4102
I5235
tp9
a(I4093
I5441
tp10
a(I4233
I5267
tp11
a(I4174
I5439
tp12
a(I4140
I5343
tp13
a(I4032
I5454
tp14
a(I4136
I5313
tp15
a(I4049
I5330
tp16
a(I4124
I5513
tp17
a(I4133
I5487
tp18
a(I4469
I3899
tp19
a(I4518
I3950
tp20
a(I4432
I3871
tp21
a(I4413
I3952
tp22
a(I4393
I3989
tp23
a(I4475
I3982
tp24
a(I4398
I4023
tp25
a(I4389
I3980
tp26
a(I4462
I4014
tp27
a(I4477
I3931
tp28
a(I4485
I3904
tp29
a(I4453
I4050
tp30
a(I4379
I4008
tp31
a(I4363
I3922
tp32
a(I4418
I3981
tp33
a(I1579
I3658
tp34
a(I1375
I3944
tp35
a(I1449
I3759
tp36
a(I1551
I3832
tp37
a(I1657
I3749
tp38
a(I1574
I3850
tp39
a(I1349
I3789
tp40
a(I1720
I3872
tp41
a(I1540
I3865
tp42
a(I1545
I3952
tp43
a(I1716
I3852
tp44
a(I1463
I4012
tp45
a(I1538
I3906
tp46
a(I1587
I4030
tp47
a(I1640
I3794
tp48
a(I1660
I3704
tp49
a(I1673
I3921
tp50
a(I1436
I4016
tp51
a(I1677
I3815
tp52
a(I2787
I4570
tp53
a(I2806
I4664
tp54
a(I2769
I4478
tp55
a(I2704
I4678
tp56
a(I2664
I4588
tp57
a(I2692
I4560
tp58
a(I2718
I4651
tp59
a(I2766
I4465
tp60
a(I2666
I4548
tp61
a(I2648
I4534
tp62
a(I2841
I4584
tp63
a(I2802
I4609
tp64
a(I2874
I4606
tp65
a(I2774
I4615
tp66
a(I2794
I4655
tp67
a(I4510
I5246
tp68
a(I4740
I5382
tp69
a(I4656
I5324
tp70
a(I4649
I5173
tp71
a(I4731
I5468
tp72
a(I4606
I5174
tp73
a(I4607
I5285
tp74
a(I4610
I5315
tp75
a(I4734
I5289
tp76
a(I4633
I5353
tp77
a(I4650
I5446
tp78
a.