(lp0
(I2412
I5795
tp1
a(I2496
I5657
tp2
a(I2430
I5682
tp3
a(I2429
I5782
tp4
a(I2635
I5703
tp5
a(I2618
I5724
tp6
a(I2420
I5644
tp7
a(I2479
I5707
tp8
a(I2457
I5733
tp9
a(I2501
I5685
tp10
a(I2556
I5550
tp11
a(I2488
I5744
tp12
a(I2527
I5595
tp13
a(I2496
I5826
tp14
a(I2390
I5663
tp15
a(I2564
I5798
tp16
a(I2642
I5567
tp17
a(I2877
I4276
tp18
a(I2912
I4251
tp19
a(I3026
I4266
tp20
a(I2895
I4206
tp21
a(I2929
I4280
tp22
a(I2837
I4234
tp23
a(I2900
I4222
tp24
a(I2962
I4373
tp25
a(I2904
I4177
tp26
a(I2867
I4253
tp27
a(I2899
I4191
tp28
a(I2883
I4150
tp29
a(I2929
I4324
tp30
a(I2848
I4279
tp31
a(I2970
I4296
tp32
a(I2245
I4031
tp33
a(I2297
I4167
tp34
a(I2312
I4327
tp35
a(I2317
I4241
tp36
a(I2150
I4269
tp37
a(I2240
I4276
tp38
a(I2159
I4349
tp39
a(I2292
I4226
tp40
a(I2297
I4181
tp41
a(I2348
I4219
tp42
a(I2368
I4092
tp43
a(I2163
I4224
tp44
a(I2375
I4065
tp45
a(I2089
I4181
tp46
a(I2802
I4933
tp47
a(I2899
I4942
tp48
a(I2926
I5025
tp49
a(I2803
I4861
tp50
a(I2941
I4885
tp51
a(I2701
I4947
tp52
a(I2645
I4990
tp53
a(I2913
I4890
tp54
a(I2951
I5124
tp55
a(I2695
I4969
tp56
a(I2958
I4894
tp57
a(I2957
I4901
tp58
a(I2822
I5116
tp59
a(I2919
I4886
tp60
a(I3025
I4971
tp61
a(I2807
I4863
tp62
a(I2933
I4877
tp63
a(I2762
I4839
tp64
a(I2670
I5039
tp65
a(I2764
I4848
tp66
a(I4983
I5371
tp67
a(I4902
I5274
tp68
a(I5011
I5322
tp69
a(I4940
I5390
tp70
a(I5028
I5263
tp71
a(I4949
I5238
tp72
a(I4868
I5305
tp73
a(I4965
I5274
tp74
a(I4879
I5340
tp75
a(I5021
I5244
tp76
a(I4955
I5370
tp77
a(I5045
I5343
tp78
a(I4923
I5221
tp79
a(I5012
I5276
tp80
a(I5001
I5402
tp81
a(I5022
I5291
tp82
a.