(lp0
(I1133
I4724
tp1
a(I1324
I4799
tp2
a(I1387
I4494
tp3
a(I1379
I4604
tp4
a(I1176
I4524
tp5
a(I1269
I4537
tp6
a(I1269
I4608
tp7
a(I1426
I4466
tp8
a(I1340
I4426
tp9
a(I1529
I4560
tp10
a(I1571
I4661
tp11
a(I1785
I5713
tp12
a(I1911
I5724
tp13
a(I1942
I5658
tp14
a(I1914
I5717
tp15
a(I1889
I5748
tp16
a(I1930
I5674
tp17
a(I1981
I5827
tp18
a(I1911
I5782
tp19
a(I1784
I5689
tp20
a(I1811
I5711
tp21
a(I2001
I5793
tp22
a(I2414
I4702
tp23
a(I2343
I5066
tp24
a(I2429
I5042
tp25
a(I2526
I5149
tp26
a(I2517
I5034
tp27
a(I2637
I4842
tp28
a(I2427
I4901
tp29
a(I2435
I5216
tp30
a(I2225
I4945
tp31
a(I2428
I4923
tp32
a(I2585
I5059
tp33
a(I2373
I4925
tp34
a(I4249
I5408
tp35
a(I4531
I5669
tp36
a(I4437
I5375
tp37
a(I4296
I5566
tp38
a(I4517
I5502
tp39
a(I4479
I5513
tp40
a(I4258
I5442
tp41
a(I4453
I5392
tp42
a(I4330
I5502
tp43
a(I4495
I5576
tp44
a(I1343
I3042
tp45
a(I1266
I3175
tp46
a(I1283
I3189
tp47
a(I1314
I3093
tp48
a(I1339
I3104
tp49
a(I1416
I3137
tp50
a(I1277
I3184
tp51
a(I1347
I3087
tp52
a(I1371
I3185
tp53
a(I1275
I3076
tp54
a(I1284
I3116
tp55
a(I1375
I3047
tp56
a(I1259
I3094
tp57
a(I1366
I3180
tp58
a(I1274
I3098
tp59
a(I1294
I3137
tp60
a(I1401
I3094
tp61
a(I1402
I3107
tp62
a.