(lp0
(I2953
I4605
tp1
a(I3200
I4578
tp2
a(I3128
I4571
tp3
a(I3197
I4458
tp4
a(I3185
I4748
tp5
a(I2921
I4558
tp6
a(I3177
I4428
tp7
a(I3124
I4386
tp8
a(I3019
I4709
tp9
a(I2984
I4660
tp10
a(I3316
I4556
tp11
a(I3228
I4456
tp12
a(I3336
I4408
tp13
a(I2904
I4483
tp14
a(I2873
I4456
tp15
a(I3044
I4443
tp16
a(I3231
I4392
tp17
a(I1901
I3288
tp18
a(I1977
I3143
tp19
a(I2025
I3040
tp20
a(I2220
I2951
tp21
a(I2017
I3282
tp22
a(I1999
I2980
tp23
a(I1909
I3037
tp24
a(I1969
I3207
tp25
a(I2097
I2948
tp26
a(I2006
I2914
tp27
a(I2204
I3150
tp28
a(I2038
I3140
tp29
a(I2106
I3321
tp30
a(I1872
I3165
tp31
a(I1924
I3094
tp32
a(I2201
I3152
tp33
a(I3517
I4901
tp34
a(I3516
I5213
tp35
a(I3377
I5224
tp36
a(I3622
I5025
tp37
a(I3269
I5037
tp38
a(I3725
I5032
tp39
a(I3360
I5277
tp40
a(I3378
I4907
tp41
a(I3636
I5327
tp42
a(I3186
I5099
tp43
a(I1672
I4280
tp44
a(I1942
I3900
tp45
a(I1808
I3852
tp46
a(I1887
I3931
tp47
a(I1925
I3988
tp48
a(I1850
I4025
tp49
a(I1937
I4036
tp50
a(I1914
I3853
tp51
a(I1743
I3834
tp52
a(I1541
I4116
tp53
a(I1590
I3954
tp54
a(I1563
I4096
tp55
a(I4364
I4316
tp56
a(I4238
I4382
tp57
a(I4338
I4284
tp58
a(I4294
I4494
tp59
a(I4279
I4271
tp60
a(I4169
I4270
tp61
a(I4150
I4360
tp62
a(I4264
I4532
tp63
a(I4230
I4285
tp64
a(I4408
I4355
tp65
a(I4104
I4401
tp66
a(I4328
I4378
tp67
a(I4234
I4154
tp68
a(I4464
I4267
tp69
a(I4403
I4226
tp70
a(I4328
I4328
tp71
a(I4222
I4248
tp72
a(I4240
I4439
tp73
a(I4345
I4285
tp74
a.