(lp0
(I3066
I4185
tp1
a(I3066
I4185
tp2
a(I3066
I4185
tp3
a(I3066
I4185
tp4
a(I2788
I4419
tp5
a(I2788
I4419
tp6
a(I2788
I4419
tp7
a(I2856
I3468
tp8
a(I2856
I3468
tp9
a(I2856
I3468
tp10
a(I2856
I3468
tp11
a.