(dp0
I85
(lp1
I0
aI3
aI1
aI2
asI86
(lp2
I0
aI3
aI1
asI87
(lp3
I0
aI2
aI1
aI2
asI88
(lp4
I0
aI3
aI3
asI89
(lp5
I0
aI1
aI2
aI1
aI3
asI90
(lp6
I0
aI2
aI3
aI1
asI91
(lp7
I0
aI2
aI1
aI3
asI92
(lp8
I0
aI2
aI2
aI3
asI93
(lp9
I0
aI1
aI3
aI2
asI94
(lp10
I0
aI1
aI2
aI3
aI1
aI3
asI95
(lp11
I0
aI1
aI2
asI96
(lp12
I0
aI1
aI2
aI3
aI3
asI97
(lp13
I0
aI2
aI1
aI2
aI1
aI3
asI98
(lp14
I0
aI2
aI1
asI99
(lp15
I0
aI3
aI2
asI100
(lp16
I0
aI1
aI3
asI101
(lp17
I0
aI1
aI3
aI2
asI102
(lp18
I0
aI3
aI1
aI2
asI103
(lp19
I0
aI1
aI2
asI104
(lp20
I0
aI3
aI1
asI105
(lp21
I0
aI3
aI2
aI2
aI3
aI1
asI106
(lp22
I0
aI2
aI3
aI1
asI107
(lp23
I0
aI2
aI3
aI1
asI108
(lp24
I0
aI2
aI3
aI1
asI109
(lp25
I0
aI2
aI3
aI1
aI3
aI1
asI110
(lp26
I0
aI2
aI3
asI111
(lp27
I0
aI2
aI1
aI2
aI1
asI112
(lp28
I0
aI3
aI1
aI2
aI3
aI3
asI113
(lp29
I0
aI2
aI1
aI3
asI114
(lp30
I0
aI1
aI2
aI1
aI3
aI2
as.