(lp0
(I3690
I5536
tp1
a(I3662
I5427
tp2
a(I3867
I5306
tp3
a(I3772
I5637
tp4
a(I3779
I5634
tp5
a(I3654
I5379
tp6
a(I3709
I5523
tp7
a(I3862
I5447
tp8
a(I3980
I5387
tp9
a(I3659
I5476
tp10
a(I3899
I5557
tp11
a(I4010
I5567
tp12
a(I4031
I5499
tp13
a(I4000
I5398
tp14
a(I3845
I5567
tp15
a(I3845
I5281
tp16
a(I3945
I5502
tp17
a(I3948
I5495
tp18
a(I3640
I5476
tp19
a(I3732
I5458
tp20
a(I3821
I5360
tp21
a(I3772
I5616
tp22
a(I3702
I5366
tp23
a(I3164
I3893
tp24
a(I2783
I3889
tp25
a(I3084
I4000
tp26
a(I3049
I3927
tp27
a(I3204
I3701
tp28
a(I3000
I3572
tp29
a(I3117
I3696
tp30
a(I3141
I3873
tp31
a(I3137
I3680
tp32
a(I3116
I3497
tp33
a(I2917
I3813
tp34
a(I2857
I3603
tp35
a(I3200
I3654
tp36
a(I2727
I3848
tp37
a(I3071
I3892
tp38
a(I2729
I3683
tp39
a(I2923
I3557
tp40
a(I2967
I3705
tp41
a(I3139
I3581
tp42
a(I3033
I3959
tp43
a(I3051
I3749
tp44
a(I3135
I3778
tp45
a(I3233
I3835
tp46
a(I2770
I3873
tp47
a(I3159
I3875
tp48
a(I3222
I3698
tp49
a(I3240
I3784
tp50
a(I2934
I3693
tp51
a(I2921
I3818
tp52
a(I1519
I3446
tp53
a(I2013
I3448
tp54
a(I1608
I3587
tp55
a(I1731
I3346
tp56
a(I1928
I3489
tp57
a(I1898
I3625
tp58
a(I1659
I3516
tp59
a(I1977
I3524
tp60
a(I1740
I3666
tp61
a(I1725
I3352
tp62
a(I1474
I3343
tp63
a(I1459
I3560
tp64
a(I1560
I3548
tp65
a(I1887
I3443
tp66
a(I1520
I3495
tp67
a(I1743
I3407
tp68
a(I1964
I3565
tp69
a(I1559
I3292
tp70
a(I1505
I3433
tp71
a(I1771
I3732
tp72
a.