(dp0
I0
(lp1
I148
aI149
aI150
aI151
aI152
aI153
aI154
aI155
aI156
aI157
aI158
aI159
aI160
aI161
aI162
aI163
aI164
aI165
aI166
aI167
aI168
aI169
aI170
aI171
aI172
aI173
aI174
aI175
aI176
aI177
asI1
(lp2
I149
aI150
aI153
aI155
aI158
aI162
aI163
aI164
aI165
aI167
aI168
aI169
aI172
aI173
aI174
aI175
aI176
asI2
(lp3
I149
aI153
aI154
aI156
aI157
aI159
aI161
aI163
aI164
aI167
aI168
aI170
aI171
aI172
aI174
aI176
asI3
(lp4
I148
aI151
aI152
aI154
aI158
aI159
aI161
aI162
aI164
aI165
aI166
aI167
aI169
aI171
aI173
aI174
aI176
asI4
(lp5
I148
aI150
aI153
aI154
aI156
aI157
aI160
aI162
aI163
aI165
aI166
aI168
aI170
aI172
aI174
aI175
aI177
asI5
(lp6
I148
aI151
aI152
aI154
aI155
aI157
aI159
aI160
aI162
aI164
aI165
aI167
aI168
aI172
aI173
aI174
aI176
aI177
as.