(dp0
I0
(lp1
I216
aI217
aI218
aI219
aI220
aI221
aI222
aI223
aI224
aI225
aI226
aI227
aI228
aI229
aI230
aI231
aI232
aI233
aI234
aI235
aI236
aI237
aI238
aI239
aI240
aI241
aI242
aI243
aI244
aI245
asI1
(lp2
I217
aI220
aI223
aI226
aI227
aI230
aI231
aI235
aI236
aI240
aI242
asI2
(lp3
I218
aI221
aI223
aI224
aI226
aI230
aI233
aI235
aI237
aI239
aI242
aI244
asI3
(lp4
I218
aI220
aI223
aI225
aI227
aI229
aI231
aI235
aI236
aI239
aI241
aI245
asI4
(lp5
I217
aI221
aI222
aI226
aI228
aI234
aI237
aI240
aI243
asI5
(lp6
I216
aI219
aI222
aI224
aI228
aI229
aI232
aI234
aI238
aI240
aI242
aI243
as.