(dp0
I0
(lp1
I209
aI210
aI211
aI212
aI213
aI214
aI215
aI216
aI217
aI218
aI219
aI220
aI221
aI222
aI223
aI224
aI225
aI226
aI227
aI228
aI229
aI230
aI231
aI232
aI233
aI234
aI235
aI236
aI237
aI238
asI1
(lp2
I210
aI211
aI214
aI217
aI222
aI223
aI227
aI230
aI233
aI235
aI237
asI2
(lp3
I209
aI211
aI213
aI215
aI218
aI223
aI228
aI229
aI232
aI235
aI237
asI3
(lp4
I210
aI211
aI214
aI216
aI218
aI221
aI224
aI227
aI230
aI232
aI234
aI238
asI4
(lp5
I209
aI210
aI213
aI216
aI218
aI219
aI226
aI229
aI233
aI234
aI237
asI5
(lp6
I209
aI212
aI213
aI215
aI217
aI220
aI225
aI227
aI230
aI231
aI234
aI236
as.