(dp0
I148
(lp1
I0
aI5
aI3
aI4
asI149
(lp2
I0
aI1
aI2
aI2
asI150
(lp3
I0
aI4
aI1
asI151
(lp4
I0
aI5
aI3
asI152
(lp5
I0
aI3
aI5
asI153
(lp6
I0
aI4
aI1
aI2
aI1
asI154
(lp7
I0
aI3
aI4
aI5
aI2
aI3
asI155
(lp8
I0
aI5
aI1
asI156
(lp9
I0
aI4
aI2
asI157
(lp10
I0
aI2
aI4
aI5
asI158
(lp11
I0
aI1
aI3
aI1
asI159
(lp12
I0
aI2
aI3
aI5
asI160
(lp13
I0
aI4
aI5
asI161
(lp14
I0
aI3
aI2
asI162
(lp15
I0
aI1
aI4
aI3
aI5
asI163
(lp16
I0
aI4
aI1
aI2
aI4
asI164
(lp17
I0
aI3
aI2
aI5
aI1
aI2
asI165
(lp18
I0
aI5
aI4
aI3
aI1
asI166
(lp19
I0
aI4
aI3
asI167
(lp20
I0
aI5
aI1
aI2
aI3
asI168
(lp21
I0
aI5
aI2
aI1
aI4
aI5
asI169
(lp22
I0
aI3
aI1
asI170
(lp23
I0
aI2
aI4
asI171
(lp24
I0
aI3
aI2
asI172
(lp25
I0
aI5
aI1
aI4
aI2
aI4
asI173
(lp26
I0
aI3
aI5
aI1
asI174
(lp27
I0
aI5
aI3
aI4
aI2
aI1
asI175
(lp28
I0
aI1
aI4
asI176
(lp29
I0
aI5
aI3
aI2
aI2
aI1
asI177
(lp30
I0
aI5
aI4
as.