(dp0
I209
(lp1
I0
aI4
aI2
aI5
asI210
(lp2
I0
aI3
aI1
aI4
asI211
(lp3
I0
aI1
aI2
aI3
asI212
(lp4
I0
aI5
asI213
(lp5
I0
aI4
aI5
aI2
asI214
(lp6
I0
aI1
aI3
asI215
(lp7
I0
aI5
aI2
asI216
(lp8
I0
aI4
aI3
asI217
(lp9
I0
aI1
aI5
aI1
asI218
(lp10
I0
aI2
aI3
aI4
asI219
(lp11
I0
aI4
asI220
(lp12
I0
aI5
asI221
(lp13
I0
aI3
asI222
(lp14
I0
aI1
asI223
(lp15
I0
aI2
aI2
aI1
asI224
(lp16
I0
aI3
asI225
(lp17
I0
aI5
asI226
(lp18
I0
aI4
aI4
asI227
(lp19
I0
aI5
aI3
aI1
asI228
(lp20
I0
aI2
asI229
(lp21
I0
aI2
aI4
asI230
(lp22
I0
aI3
aI1
aI5
asI231
(lp23
I0
aI5
asI232
(lp24
I0
aI3
aI2
asI233
(lp25
I0
aI1
aI4
asI234
(lp26
I0
aI3
aI4
aI5
asI235
(lp27
I0
aI2
aI1
asI236
(lp28
I0
aI5
asI237
(lp29
I0
aI4
aI1
aI2
asI238
(lp30
I0
aI3
as.