(dp0
I216
(lp1
I0
aI5
asI217
(lp2
I0
aI4
aI1
asI218
(lp3
I0
aI2
aI3
asI219
(lp4
I0
aI5
asI220
(lp5
I0
aI1
aI3
asI221
(lp6
I0
aI2
aI4
asI222
(lp7
I0
aI5
aI4
asI223
(lp8
I0
aI1
aI2
aI3
asI224
(lp9
I0
aI2
aI5
asI225
(lp10
I0
aI3
asI226
(lp11
I0
aI4
aI1
aI2
asI227
(lp12
I0
aI3
aI1
asI228
(lp13
I0
aI5
aI4
aI4
asI229
(lp14
I0
aI3
aI5
asI230
(lp15
I0
aI2
aI1
asI231
(lp16
I0
aI3
aI1
asI232
(lp17
I0
aI5
asI233
(lp18
I0
aI2
asI234
(lp19
I0
aI4
aI5
aI4
asI235
(lp20
I0
aI3
aI1
aI2
asI236
(lp21
I0
aI3
aI1
asI237
(lp22
I0
aI4
aI2
asI238
(lp23
I0
aI5
asI239
(lp24
I0
aI2
aI3
asI240
(lp25
I0
aI5
aI1
aI4
asI241
(lp26
I0
aI3
asI242
(lp27
I0
aI5
aI2
aI1
asI243
(lp28
I0
aI4
aI4
aI5
asI244
(lp29
I0
aI2
asI245
(lp30
I0
aI3
as.