(lp0
(I1529
I3950
tp1
a(I1495
I3971
tp2
a(I1474
I3881
tp3
a(I1476
I4019
tp4
a(I1471
I3766
tp5
a(I1559
I3883
tp6
a(I1537
I3837
tp7
a(I1530
I4075
tp8
a(I1407
I3730
tp9
a(I1512
I4038
tp10
a(I1392
I4086
tp11
a(I1655
I3834
tp12
a(I1632
I3934
tp13
a(I1571
I3985
tp14
a(I1597
I3946
tp15
a(I1549
I3951
tp16
a(I1478
I4128
tp17
a(I1429
I3926
tp18
a(I1473
I3785
tp19
a(I1455
I3884
tp20
a(I1564
I3999
tp21
a(I1494
I3934
tp22
a(I1503
I3876
tp23
a(I1653
I3969
tp24
a(I1316
I3987
tp25
a(I1488
I3944
tp26
a(I1395
I4062
tp27
a(I1621
I3800
tp28
a(I1462
I3963
tp29
a(I1636
I3851
tp30
a(I1405
I3935
tp31
a(I1492
I3796
tp32
a(I1553
I3992
tp33
a(I1524
I3902
tp34
a(I1360
I3790
tp35
a(I1543
I3865
tp36
a(I1493
I3889
tp37
a(I1496
I4027
tp38
a(I1477
I3806
tp39
a(I1510
I3926
tp40
a(I1466
I3989
tp41
a(I1415
I3843
tp42
a(I1599
I3854
tp43
a(I1290
I3830
tp44
a(I1451
I3959
tp45
a(I1461
I3862
tp46
a(I1504
I3931
tp47
a(I1659
I3936
tp48
a(I1528
I3889
tp49
a(I1495
I3775
tp50
a(I2961
I5824
tp51
a(I2921
I5821
tp52
a(I2995
I5640
tp53
a(I2984
I5834
tp54
a(I2981
I5834
tp55
a(I2948
I5723
tp56
a(I2995
I5820
tp57
a(I2951
I5825
tp58
a(I2976
I5815
tp59
a(I2928
I5819
tp60
a(I3051
I5967
tp61
a(I3028
I5869
tp62
a(I2985
I5848
tp63
a(I2983
I5809
tp64
a(I3039
I5870
tp65
a(I3028
I5807
tp66
a(I2996
I5807
tp67
a(I2932
I5642
tp68
a(I2832
I5710
tp69
a(I3101
I5900
tp70
a(I3004
I5928
tp71
a(I3044
I5928
tp72
a(I2970
I5734
tp73
a(I3018
I5915
tp74
a(I2777
I5717
tp75
a(I2981
I5832
tp76
a(I2975
I5840
tp77
a(I2811
I5865
tp78
a(I3101
I5714
tp79
a(I3010
I5898
tp80
a(I3059
I5796
tp81
a(I2986
I5834
tp82
a(I2985
I5837
tp83
a(I2995
I5878
tp84
a(I2964
I5969
tp85
a(I2982
I5835
tp86
a(I2972
I5826
tp87
a(I2769
I5780
tp88
a(I2931
I5820
tp89
a(I3128
I5819
tp90
a(I2993
I5856
tp91
a(I2984
I5819
tp92
a(I1210
I4863
tp93
a(I1018
I4902
tp94
a(I1100
I4888
tp95
a(I1420
I5106
tp96
a(I1178
I5049
tp97
a(I1198
I5110
tp98
a(I1180
I4965
tp99
a(I1184
I5173
tp100
a(I1108
I4909
tp101
a(I1184
I5031
tp102
a(I1167
I4995
tp103
a(I1208
I5047
tp104
a(I1377
I5091
tp105
a(I1218
I5000
tp106
a(I1100
I4851
tp107
a(I1213
I4997
tp108
a(I1198
I4972
tp109
a(I1203
I5009
tp110
a(I1181
I5207
tp111
a(I1210
I5015
tp112
a(I1209
I5013
tp113
a(I1199
I5084
tp114
a(I1219
I5137
tp115
a(I1325
I4941
tp116
a(I1354
I5039
tp117
a(I1245
I4903
tp118
a(I1274
I5070
tp119
a(I1213
I4990
tp120
a(I1195
I5007
tp121
a(I1089
I5152
tp122
a(I1172
I4945
tp123
a(I1357
I4792
tp124
a(I1218
I5005
tp125
a(I1214
I5018
tp126
a(I1203
I5059
tp127
a(I1250
I5032
tp128
a(I1190
I4981
tp129
a(I1314
I5026
tp130
a(I1272
I4899
tp131
a(I1104
I4960
tp132
a(I1209
I4907
tp133
a(I1240
I4949
tp134
a(I1255
I5015
tp135
a(I1345
I4991
tp136
a(I1136
I4951
tp137
a(I1209
I5076
tp138
a(I4331
I4018
tp139
a(I4364
I3951
tp140
a(I4344
I3841
tp141
a(I4441
I3606
tp142
a(I4387
I3859
tp143
a(I4428
I3931
tp144
a(I4200
I4025
tp145
a(I4412
I3790
tp146
a(I4396
I3857
tp147
a(I4421
I3780
tp148
a(I4475
I3878
tp149
a(I4341
I3893
tp150
a(I4400
I3859
tp151
a(I4399
I3879
tp152
a(I4372
I3864
tp153
a(I4395
I3858
tp154
a(I4399
I3771
tp155
a(I4378
I3860
tp156
a(I4320
I3725
tp157
a(I4413
I3880
tp158
a(I4358
I3955
tp159
a(I4350
I3856
tp160
a(I4471
I3847
tp161
a(I4412
I3846
tp162
a(I4587
I3852
tp163
a(I4395
I3858
tp164
a(I4399
I3859
tp165
a(I4295
I3917
tp166
a(I4313
I3885
tp167
a(I4146
I3978
tp168
a(I4364
I4068
tp169
a(I4353
I3779
tp170
a(I4464
I3826
tp171
a(I2128
I3625
tp172
a(I2112
I3660
tp173
a(I2184
I3599
tp174
a(I2173
I3773
tp175
a(I2107
I3696
tp176
a(I1900
I3686
tp177
a(I2101
I3682
tp178
a(I2142
I3795
tp179
a(I2301
I3595
tp180
a(I2265
I3632
tp181
a(I2087
I3730
tp182
a(I2170
I3708
tp183
a(I2104
I3693
tp184
a(I2104
I3678
tp185
a(I2096
I3697
tp186
a(I1980
I3760
tp187
a(I1999
I3653
tp188
a(I2043
I3736
tp189
a(I1951
I3731
tp190
a(I2210
I3779
tp191
a(I2085
I3780
tp192
a(I2173
I3533
tp193
a(I2106
I3753
tp194
a(I2079
I3761
tp195
a(I2180
I3661
tp196
a(I1988
I3664
tp197
a(I2148
I3667
tp198
a(I1988
I3731
tp199
a(I2020
I3791
tp200
a(I1972
I3752
tp201
a(I2126
I3777
tp202
a(I2231
I3857
tp203
a.