(lp0
(I1308
I2958
tp1
a(I1220
I2857
tp2
a(I1361
I3110
tp3
a(I1443
I3203
tp4
a(I1473
I2933
tp5
a(I1441
I3236
tp6
a(I1399
I2872
tp7
a(I1484
I3021
tp8
a(I1198
I3151
tp9
a(I1335
I3181
tp10
a(I1451
I3174
tp11
a(I1282
I3092
tp12
a(I1551
I3189
tp13
a(I1515
I3055
tp14
a(I1130
I2970
tp15
a(I1232
I3131
tp16
a(I1347
I2854
tp17
a(I1208
I3092
tp18
a(I1415
I3256
tp19
a(I1220
I2876
tp20
a(I3583
I6039
tp21
a(I3357
I5822
tp22
a(I3573
I6112
tp23
a(I3364
I5760
tp24
a(I3637
I5977
tp25
a(I3737
I5922
tp26
a(I3590
I5775
tp27
a(I3576
I5829
tp28
a(I3346
I5928
tp29
a(I3471
I5753
tp30
a(I3445
I5759
tp31
a(I3723
I5980
tp32
a(I3561
I6085
tp33
a(I3613
I5780
tp34
a(I3562
I5999
tp35
a(I3329
I5979
tp36
a(I3389
I5937
tp37
a(I3662
I5994
tp38
a(I3544
I5817
tp39
a(I3355
I5949
tp40
a(I3417
I5887
tp41
a(I3419
I5854
tp42
a(I3747
I5810
tp43
a(I3617
I5764
tp44
a(I3568
I6036
tp45
a(I3577
I5937
tp46
a(I3642
I6107
tp47
a(I3385
I5724
tp48
a(I3484
I6082
tp49
a(I3690
I5809
tp50
a(I1381
I5826
tp51
a(I1415
I6062
tp52
a(I1417
I5979
tp53
a(I1516
I5633
tp54
a(I1751
I5855
tp55
a(I1325
I5936
tp56
a(I1445
I5603
tp57
a(I1739
I5819
tp58
a(I1433
I6033
tp59
a(I1684
I5944
tp60
a(I1308
I5777
tp61
a(I1625
I6003
tp62
a(I1771
I5802
tp63
a(I1704
I5835
tp64
a(I1759
I5838
tp65
a(I1661
I5852
tp66
a(I1800
I5959
tp67
a(I1746
I5809
tp68
a(I1785
I5716
tp69
a(I1678
I5733
tp70
a(I1664
I5972
tp71
a(I1437
I6006
tp72
a(I1592
I5631
tp73
a(I1592
I5883
tp74
a(I1373
I5892
tp75
a(I1392
I5774
tp76
a(I1775
I5741
tp77
a(I1386
I5799
tp78
a(I2797
I5140
tp79
a(I2684
I5185
tp80
a(I2622
I5186
tp81
a(I2774
I5191
tp82
a(I2562
I5246
tp83
a(I2822
I5316
tp84
a(I2891
I5462
tp85
a(I2726
I5350
tp86
a(I2686
I5402
tp87
a(I2833
I5493
tp88
a(I2733
I5311
tp89
a(I2871
I5450
tp90
a(I2738
I5173
tp91
a(I2673
I5320
tp92
a(I2794
I5284
tp93
a(I2844
I5467
tp94
a(I2793
I5271
tp95
a(I2804
I5470
tp96
a(I2886
I5384
tp97
a(I2624
I5435
tp98
a(I3129
I4245
tp99
a(I3453
I4416
tp100
a(I3344
I4284
tp101
a(I3332
I4385
tp102
a(I3161
I4305
tp103
a(I3344
I4208
tp104
a(I3451
I4469
tp105
a(I3500
I4256
tp106
a(I3360
I4330
tp107
a(I3205
I4221
tp108
a(I3598
I4397
tp109
a(I3609
I4470
tp110
a(I3269
I4238
tp111
a(I3173
I4350
tp112
a(I3375
I4308
tp113
a(I3381
I4315
tp114
a(I3301
I4546
tp115
a(I3284
I4491
tp116
a(I3295
I4390
tp117
a(I3164
I4584
tp118
a(I3239
I4325
tp119
a(I3245
I4540
tp120
a(I3437
I4150
tp121
a(I3528
I4353
tp122
a(I3221
I4183
tp123
a(I3494
I4218
tp124
a(I3130
I4389
tp125
a(I3117
I4295
tp126
a(I3379
I4289
tp127
a.