(lp0
(I3582
I5419
tp1
a(I3587
I5523
tp2
a(I3618
I5376
tp3
a(I3530
I5541
tp4
a(I3643
I5484
tp5
a(I3626
I5590
tp6
a(I3596
I5460
tp7
a(I3651
I5409
tp8
a(I3543
I5529
tp9
a(I3658
I5563
tp10
a(I3677
I5496
tp11
a(I3616
I5495
tp12
a(I3537
I5540
tp13
a(I3647
I5493
tp14
a(I3727
I5550
tp15
a(I3675
I5336
tp16
a(I3565
I5492
tp17
a(I3591
I5494
tp18
a(I3569
I5473
tp19
a(I3601
I5556
tp20
a(I3562
I5486
tp21
a(I3505
I5457
tp22
a(I3612
I5497
tp23
a(I3519
I5392
tp24
a(I3595
I5397
tp25
a(I3624
I5413
tp26
a(I3621
I5508
tp27
a(I3614
I5487
tp28
a(I3514
I5586
tp29
a(I3603
I5397
tp30
a(I3595
I5486
tp31
a(I3679
I5384
tp32
a(I3566
I5414
tp33
a(I3611
I5639
tp34
a(I4606
I5116
tp35
a(I4445
I5155
tp36
a(I4470
I5223
tp37
a(I4455
I5155
tp38
a(I4551
I5227
tp39
a(I4393
I5413
tp40
a(I4516
I5299
tp41
a(I4521
I5191
tp42
a(I4477
I5267
tp43
a(I4433
I5246
tp44
a(I4650
I5126
tp45
a(I4437
I5239
tp46
a(I4484
I5255
tp47
a(I4356
I5057
tp48
a(I4426
I5121
tp49
a(I4409
I5005
tp50
a(I4450
I5258
tp51
a(I4478
I5039
tp52
a(I4286
I5250
tp53
a(I4441
I5292
tp54
a(I4544
I5425
tp55
a(I4535
I5372
tp56
a(I4598
I5117
tp57
a(I4307
I5204
tp58
a(I4432
I5222
tp59
a(I4465
I5183
tp60
a(I4419
I5261
tp61
a(I4449
I5221
tp62
a(I4445
I5317
tp63
a(I4461
I5271
tp64
a(I4504
I5314
tp65
a(I4429
I5419
tp66
a(I4360
I5314
tp67
a(I4422
I5328
tp68
a(I4409
I5279
tp69
a(I4447
I5293
tp70
a(I4506
I5303
tp71
a(I4482
I5102
tp72
a(I4428
I5261
tp73
a(I1536
I3327
tp74
a(I1534
I3299
tp75
a(I1648
I3260
tp76
a(I1452
I3337
tp77
a(I1491
I3305
tp78
a(I1582
I3413
tp79
a(I1573
I3203
tp80
a(I1651
I3327
tp81
a(I1487
I3406
tp82
a(I1427
I3210
tp83
a(I1484
I3271
tp84
a(I1250
I3261
tp85
a(I1678
I3489
tp86
a(I1691
I3259
tp87
a(I1469
I3102
tp88
a(I1614
I3294
tp89
a(I1389
I3289
tp90
a(I1654
I3199
tp91
a(I1505
I3536
tp92
a(I1605
I3268
tp93
a(I1746
I3225
tp94
a(I1544
I3286
tp95
a(I1499
I3330
tp96
a(I1534
I3295
tp97
a(I1600
I3127
tp98
a(I1604
I3337
tp99
a(I1614
I3285
tp100
a(I1522
I3400
tp101
a(I1493
I3426
tp102
a(I1565
I3301
tp103
a(I1501
I3372
tp104
a(I1705
I3208
tp105
a(I1445
I3348
tp106
a(I2350
I5904
tp107
a(I2334
I5844
tp108
a(I2362
I5810
tp109
a(I2344
I5714
tp110
a(I2313
I5793
tp111
a(I2310
I5828
tp112
a(I2306
I5642
tp113
a(I2260
I5805
tp114
a(I2409
I5832
tp115
a(I2198
I5670
tp116
a(I2331
I5878
tp117
a(I2467
I5638
tp118
a(I2361
I5847
tp119
a(I2344
I5800
tp120
a(I2309
I5798
tp121
a(I2268
I5886
tp122
a(I2293
I5701
tp123
a(I2195
I5826
tp124
a(I2270
I5742
tp125
a(I2299
I5748
tp126
a(I2222
I5770
tp127
a(I2157
I5815
tp128
a(I2383
I5774
tp129
a(I2300
I5727
tp130
a(I2315
I5931
tp131
a(I2118
I5729
tp132
a(I2493
I5668
tp133
a(I2340
I5785
tp134
a(I2414
I5707
tp135
a(I2334
I5787
tp136
a(I2226
I5809
tp137
a(I2518
I5952
tp138
a(I2143
I5803
tp139
a(I2331
I5827
tp140
a(I2237
I5849
tp141
a(I2410
I5840
tp142
a(I2239
I5777
tp143
a(I2232
I5817
tp144
a(I2285
I5781
tp145
a(I2166
I5607
tp146
a(I2280
I5809
tp147
a(I2339
I5746
tp148
a(I2311
I5782
tp149
a(I2406
I5579
tp150
a(I2371
I5744
tp151
a(I2342
I5794
tp152
a(I2195
I5768
tp153
a(I2162
I5956
tp154
a(I2325
I5789
tp155
a(I2218
I5938
tp156
a(I1511
I3602
tp157
a(I1436
I3523
tp158
a(I1491
I3611
tp159
a(I1469
I3709
tp160
a(I1380
I3611
tp161
a(I1407
I3641
tp162
a(I1420
I3606
tp163
a(I1466
I3452
tp164
a(I1512
I3593
tp165
a(I1506
I3547
tp166
a(I1520
I3564
tp167
a(I1314
I3663
tp168
a(I1510
I3635
tp169
a(I1315
I3609
tp170
a(I1569
I3545
tp171
a(I1448
I3610
tp172
a(I1691
I3683
tp173
a(I1443
I3662
tp174
a(I1494
I3615
tp175
a(I1687
I3585
tp176
a(I1432
I3547
tp177
a(I1786
I3639
tp178
a(I1541
I3573
tp179
a(I1579
I3411
tp180
a(I1436
I3497
tp181
a(I1455
I3695
tp182
a(I1509
I3611
tp183
a(I1503
I3538
tp184
a(I1521
I3684
tp185
a(I1341
I3552
tp186
a(I1387
I3612
tp187
a(I1489
I3627
tp188
a(I1507
I3710
tp189
a(I1429
I3612
tp190
a(I1563
I3667
tp191
a(I1450
I3771
tp192
a(I1590
I3794
tp193
a.