(lp0
(I1369
I3019
tp1
a(I1369
I3019
tp2
a(I3546
I5895
tp3
a(I3546
I5895
tp4
a(I3546
I5895
tp5
a(I3546
I5895
tp6
a(I1570
I5840
tp7
a(I1570
I5840
tp8
a(I1570
I5840
tp9
a(I2752
I5307
tp10
a(I2752
I5307
tp11
a(I2752
I5307
tp12
a(I2752
I5307
tp13
a(I3346
I4409
tp14
a(I3346
I4409
tp15
a.