(dp0
I0
(lp1
I86
aI87
aI88
aI89
aI90
aI91
aI92
aI93
aI94
aI95
aI96
aI97
aI98
aI99
aI100
aI101
aI102
aI103
aI104
aI105
aI106
aI107
aI108
aI109
aI110
aI111
aI112
aI113
aI114
aI115
asI1
(lp2
I86
aI87
aI88
aI90
aI91
aI93
aI94
aI95
aI97
aI98
aI99
aI101
aI102
aI103
aI104
aI105
aI106
aI107
aI108
aI109
aI110
aI111
aI112
aI113
aI114
aI115
asI2
(lp3
I86
aI87
aI89
aI91
aI92
aI93
aI94
aI95
aI96
aI97
aI98
aI100
aI101
aI102
aI103
aI105
aI106
aI107
aI108
aI109
aI110
aI111
aI112
aI114
aI115
asI3
(lp4
I86
aI87
aI88
aI90
aI92
aI93
aI94
aI96
aI97
aI99
aI100
aI101
aI102
aI103
aI104
aI105
aI106
aI107
aI108
aI109
aI110
aI111
aI112
aI113
aI115
as.