(dp0
I0
(lp1
I128
aI129
aI130
aI131
aI132
aI133
aI134
aI135
aI136
aI107
aI108
aI109
aI110
aI111
aI112
aI113
aI114
aI115
aI116
aI117
aI118
aI119
aI120
aI121
aI122
aI123
aI124
aI125
aI126
aI127
asI1
(lp2
I128
aI129
aI130
aI131
aI132
aI133
aI136
aI107
aI108
aI109
aI110
aI112
aI113
aI114
aI115
aI116
aI117
aI119
aI121
aI123
aI124
aI125
aI126
aI127
asI2
(lp3
I128
aI130
aI131
aI132
aI133
aI134
aI135
aI136
aI107
aI108
aI109
aI110
aI111
aI112
aI113
aI114
aI115
aI116
aI117
aI118
aI119
aI120
aI121
aI122
aI123
aI124
aI125
aI126
aI127
asI3
(lp4
I129
aI130
aI131
aI132
aI134
aI135
aI136
aI107
aI108
aI109
aI110
aI111
aI112
aI113
aI114
aI115
aI116
aI117
aI118
aI119
aI120
aI121
aI122
aI123
aI124
aI125
aI126
aI127
as.