(lp0
(lp1
(I2234
I5339
tp2
a(I4005
I4490
tp3
a(I2459
I5392
tp4
a(I2065
I3381
tp5
aa(lp6
g2
ag5
ag4
ag3
aa(lp7
g2
ag5
ag4
aa(lp8
g2
ag3
aa(lp9
g2
ag4
ag3
aa(lp10
g2
ag5
ag3
aa(lp11
g2
ag5
ag4
ag3
aa(lp12
g2
ag5
aa(lp13
g2
ag4
ag3
aa(lp14
g2
ag4
ag5
aa(lp15
g2
ag4
ag3
ag5
aa(lp16
g2
ag4
ag3
aa(lp17
g2
ag5
ag3
aa(lp18
g2
ag4
aa(lp19
g2
ag5
ag4
ag3
aa(lp20
g2
ag5
ag4
ag3
aa(lp21
g2
ag5
aa(lp22
g2
ag5
ag3
aa(lp23
g2
ag4
ag3
ag5
aa(lp24
g2
ag4
ag5
ag4
aa(lp25
g2
ag3
aa(lp26
g2
ag5
aa(lp27
g2
ag4
ag3
aa(lp28
g2
ag4
ag5
ag3
aa(lp29
g2
ag3
ag5
ag4
aa(lp30
g2
ag5
ag3
ag4
aa(lp31
g2
ag5
ag4
ag3
aa(lp32
g2
ag4
ag5
ag3
aa(lp33
g2
ag5
aa(lp34
g2
ag3
ag4
ag5
aa.