(dp0
I128
(lp1
I0
aI2
aI1
aI2
asI129
(lp2
I0
aI1
aI3
asI130
(lp3
I0
aI1
aI3
aI2
aI1
asI131
(lp4
I0
aI2
aI3
aI3
aI1
asI132
(lp5
I0
aI2
aI3
aI1
asI133
(lp6
I0
aI2
aI1
asI134
(lp7
I0
aI2
aI3
asI135
(lp8
I0
aI2
aI3
asI136
(lp9
I0
aI1
aI2
aI1
aI3
aI2
asI107
(lp10
I0
aI2
aI3
aI1
asI108
(lp11
I0
aI2
aI3
aI1
asI109
(lp12
I0
aI3
aI1
aI2
aI1
asI110
(lp13
I0
aI2
aI3
aI2
aI3
aI1
asI111
(lp14
I0
aI3
aI2
asI112
(lp15
I0
aI1
aI3
aI1
aI2
aI1
asI113
(lp16
I0
aI3
aI2
aI3
aI1
aI2
asI114
(lp17
I0
aI1
aI2
aI3
aI2
aI3
asI115
(lp18
I0
aI1
aI3
aI2
asI116
(lp19
I0
aI1
aI2
aI3
asI117
(lp20
I0
aI1
aI2
aI1
aI3
asI118
(lp21
I0
aI2
aI3
asI119
(lp22
I0
aI1
aI2
aI3
aI1
aI1
asI120
(lp23
I0
aI3
aI2
aI3
asI121
(lp24
I0
aI2
aI1
aI1
aI3
asI122
(lp25
I0
aI2
aI3
aI2
asI123
(lp26
I0
aI1
aI3
aI2
asI124
(lp27
I0
aI1
aI1
aI2
aI3
asI125
(lp28
I0
aI1
aI2
aI3
aI3
aI1
asI126
(lp29
I0
aI2
aI1
aI3
aI2
asI127
(lp30
I0
aI3
aI2
aI1
aI3
as.