(dp0
I136
(lp1
I0
aI1
aI2
aI3
aI3
asI137
(lp2
I0
aI2
aI1
asI138
(lp3
I0
aI1
aI2
aI3
asI139
(lp4
I0
aI3
aI1
asI140
(lp5
I0
aI2
aI3
asI141
(lp6
I0
aI2
aI1
aI1
aI2
aI3
asI142
(lp7
I0
aI3
aI2
aI1
aI3
asI143
(lp8
I0
aI2
aI1
aI2
aI3
asI144
(lp9
I0
aI1
aI3
aI2
aI1
asI145
(lp10
I0
aI2
aI3
aI1
asI146
(lp11
I0
aI3
aI1
aI2
aI3
aI1
asI147
(lp12
I0
aI2
aI1
aI2
aI3
asI148
(lp13
I0
aI2
aI1
aI3
asI149
(lp14
I0
aI1
aI2
asI150
(lp15
I0
aI3
aI3
aI1
aI2
asI151
(lp16
I0
aI1
aI2
aI3
aI3
aI2
asI152
(lp17
I0
aI1
aI3
aI1
asI153
(lp18
I0
aI2
aI1
aI3
asI154
(lp19
I0
aI2
aI1
aI3
asI155
(lp20
I0
aI2
aI1
asI156
(lp21
I0
aI3
aI2
aI1
aI2
aI3
asI157
(lp22
I0
aI2
aI1
aI3
aI1
aI3
asI158
(lp23
I0
aI2
aI1
aI2
aI3
asI159
(lp24
I0
aI1
aI2
aI3
asI160
(lp25
I0
aI3
aI2
aI1
aI1
aI3
asI161
(lp26
I0
aI2
aI3
aI2
asI162
(lp27
I0
aI1
aI1
aI3
aI2
aI3
asI163
(lp28
I0
aI2
aI1
asI164
(lp29
I0
aI1
aI3
aI2
aI1
aI2
asI165
(lp30
I0
aI3
aI3
aI1
as.