(lp0
(lp1
(I3587
I5694
tp2
a(I2476
I4728
tp3
a(I1908
I5951
tp4
a(I3879
I4011
tp5
ag5
aa(lp6
g2
ag4
ag3
aa(lp7
g2
ag3
ag4
ag5
aa(lp8
g2
ag5
ag3
aa(lp9
g2
ag4
ag5
aa(lp10
g2
ag4
ag3
ag3
ag4
ag5
aa(lp11
g2
ag5
ag4
ag3
ag5
aa(lp12
g2
ag4
ag3
ag4
ag5
aa(lp13
g2
ag3
ag5
ag4
ag3
aa(lp14
g2
ag4
ag5
ag3
aa(lp15
g2
ag5
ag3
ag4
ag5
ag3
aa(lp16
g2
ag4
ag3
ag4
ag5
aa(lp17
g2
ag4
ag3
ag5
aa(lp18
g2
ag3
ag4
aa(lp19
g2
ag5
ag5
ag3
ag4
aa(lp20
g2
ag3
ag4
ag5
ag5
ag4
aa(lp21
g2
ag3
ag5
ag3
aa(lp22
g2
ag4
ag3
ag5
aa(lp23
g2
ag4
ag3
ag5
aa(lp24
g2
ag4
ag3
aa(lp25
g2
ag5
ag4
ag3
ag4
ag5
aa(lp26
g2
ag4
ag3
ag5
ag3
ag5
aa(lp27
g2
ag4
ag3
ag4
ag5
aa(lp28
g2
ag3
ag4
ag5
aa(lp29
g2
ag5
ag4
ag3
ag3
ag5
aa(lp30
g2
ag4
ag5
ag4
aa(lp31
g2
ag3
ag3
ag5
ag4
ag5
aa(lp32
g2
ag4
ag3
aa(lp33
g2
ag3
ag5
ag4
ag3
ag4
aa(lp34
g2
ag5
ag5
ag3
aa.