(lp0
(I4173
I4417
tp1
a(I4018
I4497
tp2
a(I4014
I4517
tp3
a(I4034
I4519
tp4
a(I3993
I4634
tp5
a(I3954
I4510
tp6
a(I3900
I4481
tp7
a(I3819
I4500
tp8
a(I4143
I4436
tp9
a(I3879
I4496
tp10
a(I4080
I4533
tp11
a(I3911
I4445
tp12
a(I4007
I4434
tp13
a(I3983
I4317
tp14
a(I4014
I4460
tp15
a(I3997
I4565
tp16
a(I4019
I4439
tp17
a(I3970
I4467
tp18
a(I3964
I4520
tp19
a(I4079
I4508
tp20
a(I4031
I4535
tp21
a(I4116
I4509
tp22
a(I3949
I4459
tp23
a(I4021
I4492
tp24
a(I4013
I4489
tp25
a(I3991
I4604
tp26
a(I4081
I4449
tp27
a(I4072
I4458
tp28
a(I3823
I4368
tp29
a(I3987
I4485
tp30
a(I3855
I4646
tp31
a(I4151
I4520
tp32
a(I4062
I4441
tp33
a(I3969
I4372
tp34
a(I4004
I4490
tp35
a(I3980
I4281
tp36
a(I4061
I4372
tp37
a(I3923
I4593
tp38
a(I4069
I4437
tp39
a(I4135
I4446
tp40
a(I4021
I4500
tp41
a(I4165
I4565
tp42
a(I3969
I4414
tp43
a(I4033
I4449
tp44
a(I4008
I4466
tp45
a(I4006
I4490
tp46
a(I3987
I4501
tp47
a(I2440
I5398
tp48
a(I2453
I5532
tp49
a(I2332
I5428
tp50
a(I2507
I5356
tp51
a(I2519
I5301
tp52
a(I2477
I5331
tp53
a(I2483
I5322
tp54
a(I2475
I5322
tp55
a(I2374
I5415
tp56
a(I2470
I5464
tp57
a(I2461
I5410
tp58
a(I2480
I5416
tp59
a(I2476
I5383
tp60
a(I2418
I5252
tp61
a(I2461
I5406
tp62
a(I2464
I5564
tp63
a(I2472
I5403
tp64
a(I2382
I5323
tp65
a(I2413
I5326
tp66
a(I2486
I5332
tp67
a(I2439
I5398
tp68
a(I2431
I5392
tp69
a(I2450
I5413
tp70
a(I2436
I5386
tp71
a(I2459
I5391
tp72
a(I2463
I5473
tp73
a(I2481
I5324
tp74
a(I2469
I5275
tp75
a(I2442
I5349
tp76
a(I2407
I5404
tp77
a(I2383
I5478
tp78
a(I2480
I5528
tp79
a(I2465
I5344
tp80
a(I2466
I5392
tp81
a(I2477
I5408
tp82
a(I2461
I5389
tp83
a(I2440
I5378
tp84
a(I2438
I5395
tp85
a(I2483
I5342
tp86
a(I2463
I5394
tp87
a(I2467
I5422
tp88
a(I2386
I5382
tp89
a(I2448
I5396
tp90
a(I2459
I5392
tp91
a(I2420
I5331
tp92
a(I2430
I5383
tp93
a(I2462
I5378
tp94
a(I2439
I5365
tp95
a(I2092
I3322
tp96
a(I2052
I3349
tp97
a(I1962
I3296
tp98
a(I2065
I3382
tp99
a(I2064
I3386
tp100
a(I2088
I3386
tp101
a(I2109
I3464
tp102
a(I2146
I3340
tp103
a(I2070
I3377
tp104
a(I2093
I3250
tp105
a(I2069
I3466
tp106
a(I1973
I3366
tp107
a(I2066
I3387
tp108
a(I2090
I3464
tp109
a(I2065
I3384
tp110
a(I2042
I3309
tp111
a(I2072
I3381
tp112
a(I2044
I3217
tp113
a(I2034
I3555
tp114
a(I2149
I3367
tp115
a(I2044
I3321
tp116
a(I2032
I3433
tp117
a(I1981
I3237
tp118
a(I2102
I3311
tp119
a(I1989
I3223
tp120
a(I2022
I3381
tp121
a(I2058
I3301
tp122
a(I2074
I3393
tp123
a(I2068
I3386
tp124
a(I1971
I3410
tp125
a(I2075
I3474
tp126
a(I2237
I3419
tp127
a(I1917
I3407
tp128
a(I2162
I3519
tp129
a(I2064
I3386
tp130
a(I2096
I3397
tp131
a.