(lp0
(I2418
I4495
tp1
a(I2686
I4579
tp2
a(I2473
I4870
tp3
a(I2506
I4688
tp4
a(I2507
I4626
tp5
a(I2596
I4611
tp6
a(I2495
I4759
tp7
a(I2513
I4687
tp8
a(I2487
I4718
tp9
a(I2477
I4583
tp10
a(I2673
I4754
tp11
a(I2441
I4795
tp12
a(I2470
I4490
tp13
a(I2454
I4723
tp14
a(I2505
I4699
tp15
a(I2560
I4669
tp16
a(I2362
I4825
tp17
a(I2426
I4706
tp18
a(I2578
I4696
tp19
a(I2561
I4953
tp20
a(I2460
I4739
tp21
a(I2522
I4725
tp22
a(I2484
I4717
tp23
a(I2624
I4692
tp24
a(I2484
I4707
tp25
a(I2478
I4689
tp26
a(I2396
I4732
tp27
a(I2474
I4751
tp28
a(I2448
I4767
tp29
a(I2336
I4678
tp30
a(I2717
I4672
tp31
a(I2498
I4666
tp32
a(I2683
I4615
tp33
a(I2546
I4794
tp34
a(I2614
I4742
tp35
a(I2565
I4647
tp36
a(I2500
I4698
tp37
a(I2488
I4550
tp38
a(I2324
I4676
tp39
a(I2440
I4917
tp40
a(I1933
I5851
tp41
a(I1804
I5953
tp42
a(I1893
I5890
tp43
a(I1894
I5908
tp44
a(I1911
I5960
tp45
a(I1979
I5809
tp46
a(I1934
I5952
tp47
a(I1912
I5952
tp48
a(I1772
I6116
tp49
a(I1961
I6033
tp50
a(I1838
I6089
tp51
a(I1982
I6098
tp52
a(I1888
I5917
tp53
a(I1870
I5919
tp54
a(I1995
I6022
tp55
a(I1915
I5962
tp56
a(I1854
I6113
tp57
a(I1845
I5959
tp58
a(I1714
I5914
tp59
a(I1933
I5909
tp60
a(I1870
I6087
tp61
a(I1976
I6067
tp62
a(I1929
I5939
tp63
a(I1877
I6113
tp64
a(I1888
I5884
tp65
a(I1935
I5894
tp66
a(I1898
I5938
tp67
a(I1865
I5969
tp68
a(I1826
I5902
tp69
a(I2000
I6047
tp70
a(I1906
I5950
tp71
a(I1983
I6003
tp72
a(I2023
I6068
tp73
a(I1836
I5948
tp74
a(I1923
I5902
tp75
a(I2033
I6048
tp76
a(I1853
I5949
tp77
a(I1906
I5958
tp78
a(I3841
I3991
tp79
a(I3916
I3842
tp80
a(I3898
I3880
tp81
a(I3863
I4125
tp82
a(I3722
I4038
tp83
a(I3894
I3855
tp84
a(I3737
I3834
tp85
a(I3894
I4036
tp86
a(I3723
I3985
tp87
a(I3845
I4031
tp88
a(I3911
I3940
tp89
a(I3780
I4088
tp90
a(I3867
I4015
tp91
a(I3974
I4115
tp92
a(I3781
I3906
tp93
a(I3897
I4002
tp94
a(I3705
I4008
tp95
a(I3908
I3994
tp96
a(I3842
I3924
tp97
a(I3915
I4031
tp98
a(I3882
I4014
tp99
a(I3880
I4009
tp100
a(I3873
I4077
tp101
a(I4053
I3885
tp102
a(I3982
I3932
tp103
a(I4091
I3983
tp104
a(I4114
I3964
tp105
a(I3774
I3884
tp106
a(I3877
I4064
tp107
a(I3783
I3980
tp108
a(I3774
I4023
tp109
a(I3806
I4153
tp110
a(I3849
I3989
tp111
a(I3880
I4033
tp112
a(I3803
I3961
tp113
a(I3894
I3872
tp114
a(I3916
I3976
tp115
a(I3752
I3951
tp116
a(I4081
I4039
tp117
a(I3921
I3908
tp118
a(I3849
I3927
tp119
a(I3860
I3976
tp120
a(I3794
I3850
tp121
a(I3879
I4011
tp122
a(I3843
I3908
tp123
a(I3982
I4043
tp124
a(I3804
I4087
tp125
a(I3959
I4061
tp126
a(I3979
I4098
tp127
a.