(lp0
(I3918
I4972
tp1
a(I3988
I4933
tp2
a(I3883
I4665
tp3
a(I3820
I5017
tp4
a(I3849
I4787
tp5
a(I3679
I4967
tp6
a(I3874
I4927
tp7
a(I3954
I4899
tp8
a(I3838
I4685
tp9
a(I3837
I5023
tp10
a(I3788
I4999
tp11
a(I3710
I4713
tp12
a(I3941
I4677
tp13
a(I3929
I4817
tp14
a(I3910
I4886
tp15
a(I3935
I4779
tp16
a(I3738
I4813
tp17
a(I3823
I4884
tp18
a(I3881
I4705
tp19
a(I3736
I4759
tp20
a(I3865
I4805
tp21
a(I3895
I4980
tp22
a(I3659
I4772
tp23
a(I3774
I4785
tp24
a(I3619
I4760
tp25
a(I4808
I2957
tp26
a(I4865
I2986
tp27
a(I4861
I3049
tp28
a(I4925
I3007
tp29
a(I4734
I3214
tp30
a(I4761
I3227
tp31
a(I4805
I3001
tp32
a(I4648
I2911
tp33
a(I4768
I2892
tp34
a(I4617
I3087
tp35
a(I4640
I2994
tp36
a(I4603
I3195
tp37
a(I4698
I3015
tp38
a(I4714
I2975
tp39
a(I4638
I3010
tp40
a(I4923
I3032
tp41
a(I4875
I2889
tp42
a(I4628
I3084
tp43
a(I4721
I2907
tp44
a(I4633
I3015
tp45
a(I4818
I2878
tp46
a(I4642
I3136
tp47
a(I4558
I2921
tp48
a(I4302
I3522
tp49
a(I4004
I3853
tp50
a(I4023
I3761
tp51
a(I3951
I3777
tp52
a(I4254
I3611
tp53
a(I4247
I3754
tp54
a(I4316
I3901
tp55
a(I4349
I3818
tp56
a(I4236
I3755
tp57
a(I4192
I3652
tp58
a(I4236
I3489
tp59
a(I4205
I3727
tp60
a(I4097
I3653
tp61
a(I4035
I3855
tp62
a(I4140
I3501
tp63
a(I4330
I3928
tp64
a(I4373
I3687
tp65
a(I4303
I3774
tp66
a(I3975
I3644
tp67
a(I4236
I3601
tp68
a(I4248
I3842
tp69
a(I4243
I3524
tp70
a(I4151
I3537
tp71
a(I4275
I3553
tp72
a(I4112
I3635
tp73
a.