(lp0
(I4216
I5455
tp1
a(I4329
I5371
tp2
a(I4320
I5395
tp3
a(I4222
I5446
tp4
a(I4350
I5386
tp5
a(I4357
I5475
tp6
a(I4202
I5484
tp7
a(I4282
I5444
tp8
a(I4216
I5390
tp9
a(I4315
I5295
tp10
a(I4275
I5516
tp11
a(I4261
I5396
tp12
a(I4150
I5424
tp13
a(I4294
I5478
tp14
a(I4181
I5397
tp15
a(I4198
I5441
tp16
a(I4246
I5413
tp17
a(I4265
I5434
tp18
a(I4242
I5403
tp19
a(I4263
I5440
tp20
a(I4257
I5435
tp21
a(I4349
I5307
tp22
a(I4224
I5389
tp23
a(I4277
I5432
tp24
a(I4332
I5318
tp25
a(I4216
I5493
tp26
a(I4410
I5422
tp27
a(I4103
I5436
tp28
a(I4234
I5305
tp29
a(I4228
I5442
tp30
a(I4353
I5405
tp31
a(I4293
I5432
tp32
a(I2357
I3952
tp33
a(I2551
I3913
tp34
a(I2428
I4080
tp35
a(I2423
I4022
tp36
a(I2597
I4021
tp37
a(I2492
I3958
tp38
a(I2549
I4023
tp39
a(I2538
I3969
tp40
a(I2355
I3800
tp41
a(I2512
I3896
tp42
a(I2479
I4020
tp43
a(I2376
I3963
tp44
a(I2503
I3966
tp45
a(I2475
I4023
tp46
a(I2547
I3952
tp47
a(I2588
I4047
tp48
a(I2544
I4016
tp49
a(I2500
I4058
tp50
a(I2490
I4012
tp51
a(I2410
I4040
tp52
a(I2499
I3991
tp53
a(I2502
I3988
tp54
a(I2482
I3962
tp55
a(I2467
I4021
tp56
a(I2424
I3954
tp57
a(I2635
I4049
tp58
a(I2535
I3957
tp59
a(I2424
I4000
tp60
a(I2611
I3777
tp61
a(I2715
I3998
tp62
a(I2499
I4001
tp63
a(I2548
I4069
tp64
a(I2482
I4139
tp65
a(I2627
I4030
tp66
a(I2525
I4049
tp67
a(I2520
I4080
tp68
a(I2562
I3955
tp69
a(I2457
I4034
tp70
a(I2419
I4048
tp71
a(I2463
I4013
tp72
a(I2495
I3859
tp73
a(I3589
I3657
tp74
a(I3659
I3597
tp75
a(I3693
I3541
tp76
a(I3574
I3670
tp77
a(I3588
I3601
tp78
a(I3614
I3627
tp79
a(I3472
I3601
tp80
a(I3808
I3700
tp81
a(I3616
I3586
tp82
a(I3764
I3695
tp83
a(I3576
I3578
tp84
a(I3684
I3654
tp85
a(I3615
I3635
tp86
a(I3630
I3735
tp87
a(I3584
I3618
tp88
a(I3648
I3550
tp89
a(I3513
I3567
tp90
a(I3596
I3732
tp91
a(I3601
I3624
tp92
a(I3571
I3658
tp93
a(I3537
I3732
tp94
a.