(dp0
I0
(lp1
I132
aI133
aI134
aI135
aI136
aI137
aI138
aI139
aI140
aI141
aI142
aI143
aI144
aI145
aI146
aI147
aI148
aI149
aI150
aI151
aI152
aI153
aI154
aI155
aI156
aI157
aI158
aI159
aI160
aI161
asI1
(lp2
I132
aI133
aI134
aI137
aI140
aI141
aI142
aI144
aI145
aI146
aI148
aI149
aI152
aI153
aI158
aI160
asI2
(lp3
I132
aI133
aI134
aI136
aI138
aI141
aI142
aI144
aI145
aI146
aI149
aI150
aI152
aI155
aI157
aI159
aI160
aI161
asI3
(lp4
I132
aI133
aI134
aI135
aI139
aI140
aI141
aI143
aI144
aI145
aI146
aI147
aI151
aI154
aI156
aI159
aI160
aI161
as.