(dp0
I88
(lp1
I0
aI2
aI3
aI1
asI89
(lp2
I0
aI2
aI1
aI3
asI90
(lp3
I0
aI2
aI3
aI1
asI91
(lp4
I0
aI2
aI3
aI1
asI92
(lp5
I0
aI3
aI1
aI2
aI2
asI93
(lp6
I0
aI1
aI3
aI1
aI3
aI2
asI94
(lp7
I0
aI2
aI3
aI1
asI95
(lp8
I0
aI2
aI3
aI1
asI96
(lp9
I0
aI2
aI3
aI1
asI97
(lp10
I0
aI1
aI3
aI2
asI98
(lp11
I0
aI1
aI3
asI99
(lp12
I0
aI2
aI3
aI2
aI1
asI100
(lp13
I0
aI1
aI3
aI2
asI101
(lp14
I0
aI2
aI1
aI3
aI1
aI2
asI102
(lp15
I0
aI3
aI1
aI2
aI3
aI2
asI103
(lp16
I0
aI1
aI3
aI2
aI1
asI104
(lp17
I0
aI3
aI2
aI3
aI1
aI3
asI105
(lp18
I0
aI2
aI1
aI3
aI2
aI1
asI106
(lp19
I0
aI3
aI2
aI1
asI107
(lp20
I0
aI3
aI1
asI108
(lp21
I0
aI2
aI2
aI3
aI1
aI2
asI109
(lp22
I0
aI1
aI3
asI110
(lp23
I0
aI2
aI3
asI111
(lp24
I0
aI1
aI1
aI3
aI2
aI2
asI112
(lp25
I0
aI3
aI1
aI1
aI2
aI3
asI113
(lp26
I0
aI2
aI3
aI1
aI2
asI114
(lp27
I0
aI3
aI1
aI3
aI2
asI115
(lp28
I0
aI1
aI1
aI2
aI3
aI2
asI116
(lp29
I0
aI1
aI3
aI1
aI2
aI3
asI117
(lp30
I0
aI2
aI1
aI3
aI2
aI3
as.