(lp0
(lp1
(I4510
I3182
tp2
a(I4897
I5718
tp3
a(I1893
I3979
tp4
a(I1877
I4564
tp5
aa(lp6
g2
ag4
ag3
aa(lp7
g2
ag5
ag4
aa(lp8
g2
ag5
ag3
ag5
ag4
ag3
aa(lp9
g2
ag3
ag4
ag5
ag5
aa(lp10
g2
ag4
ag3
ag5
ag4
ag3
aa(lp11
g2
ag5
ag4
aa(lp12
g2
ag3
ag5
aa(lp13
g2
ag4
ag3
ag3
aa(lp14
g2
ag5
ag4
ag4
aa(lp15
g2
ag3
ag5
ag5
aa(lp16
g2
ag4
ag3
ag4
ag5
aa(lp17
g2
ag3
ag4
ag3
aa(lp18
g2
ag5
ag5
aa(lp19
g2
ag4
ag3
aa(lp20
g2
ag5
ag3
aa(lp21
g2
ag4
ag4
ag3
ag5
ag4
aa(lp22
g2
ag3
ag5
ag3
ag4
ag5
aa(lp23
g2
ag3
ag4
aa(lp24
g2
ag5
ag4
ag5
aa(lp25
g2
ag3
ag4
ag3
ag5
ag5
aa(lp26
g2
ag3
ag4
ag5
ag4
ag3
aa(lp27
g2
ag4
ag5
ag3
ag3
aa(lp28
g2
ag4
ag5
ag5
ag4
ag3
aa(lp29
g2
ag3
ag5
ag4
ag3
ag4
aa(lp30
g2
ag5
ag3
ag4
aa(lp31
g2
ag5
ag4
ag5
ag3
ag4
aa(lp32
g2
ag5
ag3
ag5
ag4
aa(lp33
g2
ag3
ag3
ag4
ag5
ag4
aa(lp34
g2
ag5
ag3
ag5
ag3
ag4
aa.