(dp0
I90
(lp1
I0
aI2
aI1
aI3
asI91
(lp2
I0
aI1
aI2
asI92
(lp3
I0
aI3
aI1
asI93
(lp4
I0
aI3
aI2
aI3
aI1
aI2
asI94
(lp5
I0
aI2
aI1
aI3
aI3
asI95
(lp6
I0
aI1
aI2
aI3
aI1
aI2
asI96
(lp7
I0
aI3
aI1
asI97
(lp8
I0
aI2
aI3
asI98
(lp9
I0
aI1
aI2
aI2
asI99
(lp10
I0
aI3
aI1
aI1
asI100
(lp11
I0
aI2
aI3
aI3
asI101
(lp12
I0
aI1
aI2
aI1
aI3
asI102
(lp13
I0
aI2
aI1
aI2
asI103
(lp14
I0
aI3
aI3
asI104
(lp15
I0
aI1
aI2
asI105
(lp16
I0
aI3
aI2
asI106
(lp17
I0
aI1
aI1
aI2
aI3
aI1
asI107
(lp18
I0
aI2
aI3
aI2
aI1
aI3
asI108
(lp19
I0
aI2
aI1
asI109
(lp20
I0
aI3
aI1
aI3
asI110
(lp21
I0
aI2
aI1
aI2
aI3
aI3
asI111
(lp22
I0
aI2
aI1
aI3
aI1
aI2
asI112
(lp23
I0
aI1
aI3
aI2
aI2
asI113
(lp24
I0
aI1
aI3
aI3
aI1
aI2
asI114
(lp25
I0
aI2
aI3
aI1
aI2
aI1
asI115
(lp26
I0
aI3
aI2
aI1
asI116
(lp27
I0
aI3
aI1
aI3
aI2
aI1
asI117
(lp28
I0
aI3
aI2
aI3
aI1
asI118
(lp29
I0
aI2
aI2
aI1
aI3
aI1
asI119
(lp30
I0
aI3
aI2
aI3
aI2
aI1
as.