(dp0
I132
(lp1
I0
aI3
aI2
aI1
asI133
(lp2
I0
aI2
aI1
aI3
asI134
(lp3
I0
aI2
aI1
aI3
asI135
(lp4
I0
aI3
asI136
(lp5
I0
aI2
asI137
(lp6
I0
aI1
asI138
(lp7
I0
aI2
asI139
(lp8
I0
aI3
asI140
(lp9
I0
aI1
aI1
aI3
asI141
(lp10
I0
aI2
aI1
aI3
asI142
(lp11
I0
aI2
aI1
aI2
asI143
(lp12
I0
aI3
asI144
(lp13
I0
aI3
aI2
aI1
asI145
(lp14
I0
aI3
aI2
aI1
asI146
(lp15
I0
aI3
aI1
aI2
asI147
(lp16
I0
aI3
asI148
(lp17
I0
aI1
asI149
(lp18
I0
aI2
aI1
asI150
(lp19
I0
aI2
asI151
(lp20
I0
aI3
aI3
asI152
(lp21
I0
aI1
aI2
asI153
(lp22
I0
aI1
asI154
(lp23
I0
aI3
asI155
(lp24
I0
aI2
asI156
(lp25
I0
aI3
asI157
(lp26
I0
aI2
asI158
(lp27
I0
aI1
aI1
asI159
(lp28
I0
aI2
aI3
asI160
(lp29
I0
aI2
aI1
aI3
asI161
(lp30
I0
aI2
aI3
as.