(dp0
I128
(lp1
I0
aI3
aI1
aI2
aI3
aI3
asI129
(lp2
I0
aI2
aI1
aI1
asI130
(lp3
I0
aI2
aI3
aI3
asI131
(lp4
I0
aI1
aI2
aI1
asI132
(lp5
I0
aI3
aI2
aI3
aI1
asI133
(lp6
I0
aI2
aI2
aI3
asI134
(lp7
I0
aI1
aI3
aI1
asI135
(lp8
I0
aI2
aI1
aI2
aI3
asI136
(lp9
I0
aI3
aI1
aI2
asI137
(lp10
I0
aI1
aI3
aI2
aI1
asI138
(lp11
I0
aI2
aI3
aI1
aI2
aI3
asI139
(lp12
I0
aI2
aI3
aI1
asI140
(lp13
I0
aI2
aI3
aI1
asI141
(lp14
I0
aI1
aI2
aI3
aI1
aI2
asI142
(lp15
I0
aI3
aI1
aI2
aI3
aI3
asI143
(lp16
I0
aI1
aI2
aI3
aI1
aI2
asI144
(lp17
I0
aI3
aI1
aI2
aI2
aI3
asI145
(lp18
I0
aI1
aI3
aI2
asI146
(lp19
I0
aI1
aI3
aI2
aI1
aI3
asI147
(lp20
I0
aI2
aI1
aI2
aI1
aI3
asI148
(lp21
I0
aI1
aI2
aI3
asI149
(lp22
I0
aI3
aI1
aI2
aI2
asI150
(lp23
I0
aI1
aI3
asI151
(lp24
I0
aI3
aI1
aI2
asI152
(lp25
I0
aI3
aI2
aI1
aI3
aI1
asI153
(lp26
I0
aI2
aI1
aI3
aI2
aI3
asI154
(lp27
I0
aI2
aI1
aI3
aI2
aI1
asI155
(lp28
I0
aI3
aI2
aI1
asI126
(lp29
I0
aI1
aI3
aI2
asI127
(lp30
I0
aI3
aI2
aI1
aI1
aI2
as.