(lp0
(lp1
(I3774
I4448
tp2
a(I3334
I5785
tp3
a(I2544
I4825
tp4
aa(lp5
g2
a(I1016
I5014
tp6
ag3
ag6
ag4
aa(lp7
g2
ag4
ag6
ag3
aa(lp8
g2
ag3
ag4
aa(lp9
g2
ag6
ag4
ag3
ag6
aa(lp10
g2
ag6
ag3
ag4
aa(lp11
g2
ag6
ag4
aa(lp12
g2
ag3
ag6
ag4
aa(lp13
g2
ag3
ag4
ag3
aa(lp14
g2
ag6
ag6
ag3
ag4
ag6
aa(lp15
g2
ag3
ag4
ag4
aa(lp16
g2
ag3
ag6
ag4
aa(lp17
g2
ag3
ag6
ag6
ag3
ag4
aa(lp18
g2
ag3
ag4
ag6
aa(lp19
g2
ag4
ag6
ag3
ag6
ag4
aa(lp20
g2
ag3
ag3
aa(lp21
g2
ag6
ag4
ag3
aa(lp22
g2
ag4
ag6
aa(lp23
g2
ag3
ag4
ag6
ag4
aa(lp24
g2
ag3
ag6
ag4
ag6
ag3
aa.