(dp0
I130
(lp1
I0
aI1
aI2
asI131
(lp2
I0
aI3
aI1
aI3
aI2
asI132
(lp3
I0
aI2
aI3
aI1
asI133
(lp4
I0
aI1
aI2
asI134
(lp5
I0
aI3
aI2
aI1
aI3
asI135
(lp6
I0
aI3
aI1
aI2
asI136
(lp7
I0
aI3
aI2
asI137
(lp8
I0
aI1
aI3
aI2
asI138
(lp9
I0
aI1
aI2
aI1
asI139
(lp10
I0
aI3
aI3
aI1
aI2
aI3
asI140
(lp11
I0
aI1
aI2
aI2
asI141
(lp12
I0
aI1
aI3
aI2
asI142
(lp13
I0
aI1
aI3
aI3
aI1
aI2
asI143
(lp14
I0
aI1
aI2
aI3
asI144
(lp15
I0
aI2
aI3
aI1
aI3
aI2
asI145
(lp16
I0
aI1
aI1
asI146
(lp17
I0
aI3
aI2
aI1
asI147
(lp18
I0
aI2
aI3
asI148
(lp19
I0
aI1
aI2
aI3
aI2
asI149
(lp20
I0
aI1
aI3
aI2
aI3
aI1
as.