(lp0
(I3426
I5759
tp1
a(I3141
I5737
tp2
a(I3257
I5760
tp3
a(I3190
I5778
tp4
a(I3244
I5653
tp5
a(I3352
I5787
tp6
a(I3139
I5880
tp7
a(I3324
I5771
tp8
a(I3174
I5743
tp9
a(I3333
I5775
tp10
a(I3406
I5874
tp11
a(I3425
I5722
tp12
a(I3162
I5706
tp13
a(I3359
I5818
tp14
a(I3230
I5922
tp15
a(I3512
I5644
tp16
a(I3318
I5787
tp17
a(I3365
I5757
tp18
a(I3444
I5635
tp19
a(I3460
I5675
tp20
a(I3229
I5745
tp21
a(I3401
I5859
tp22
a(I3463
I5750
tp23
a(I3346
I5731
tp24
a(I3233
I5728
tp25
a(I3279
I5720
tp26
a(I3340
I5782
tp27
a(I3345
I5732
tp28
a(I3345
I5800
tp29
a(I3154
I5756
tp30
a(I3373
I5727
tp31
a(I3307
I5771
tp32
a(I3337
I5727
tp33
a(I3357
I5738
tp34
a(I3358
I5773
tp35
a(I3337
I5784
tp36
a(I2554
I4845
tp37
a(I2523
I5001
tp38
a(I2501
I4830
tp39
a(I2513
I4822
tp40
a(I2532
I4910
tp41
a(I2488
I4831
tp42
a(I2529
I4762
tp43
a(I2578
I4830
tp44
a(I2653
I4896
tp45
a(I2461
I4847
tp46
a(I2537
I4825
tp47
a(I2517
I4811
tp48
a(I2507
I4827
tp49
a(I2563
I4897
tp50
a(I2557
I4809
tp51
a(I2493
I4920
tp52
a(I2539
I4825
tp53
a(I2540
I4830
tp54
a(I2607
I4767
tp55
a(I2514
I4718
tp56
a(I2560
I4809
tp57
a(I2580
I4874
tp58
a(I2604
I4813
tp59
a(I2436
I4739
tp60
a(I2545
I4826
tp61
a(I2492
I4777
tp62
a(I2460
I4766
tp63
a(I2558
I4844
tp64
a(I2534
I4828
tp65
a(I2489
I4844
tp66
a(I2531
I4843
tp67
a(I2464
I4880
tp68
a(I2452
I4733
tp69
a(I2634
I4877
tp70
a(I2589
I4939
tp71
a(I2606
I4926
tp72
a(I2555
I4833
tp73
a(I2527
I4847
tp74
a(I2400
I4899
tp75
a(I2643
I4757
tp76
a(I943
I5161
tp77
a(I894
I4879
tp78
a(I1018
I5034
tp79
a(I1066
I4880
tp80
a(I1003
I5098
tp81
a(I989
I5034
tp82
a(I959
I4907
tp83
a(I1041
I4905
tp84
a(I907
I5111
tp85
a(I1067
I4950
tp86
a(I1070
I5083
tp87
a(I1062
I4982
tp88
a(I1150
I4901
tp89
a(I949
I4842
tp90
a(I997
I4935
tp91
a(I985
I5009
tp92
a(I949
I4982
tp93
a(I1044
I5034
tp94
a(I960
I5050
tp95
a(I995
I4972
tp96
a(I1060
I5057
tp97
a(I1095
I5044
tp98
a(I1015
I5024
tp99
a(I999
I5039
tp100
a(I1033
I5015
tp101
a(I1042
I4997
tp102
a(I1140
I5025
tp103
a(I1036
I5025
tp104
a(I1097
I5072
tp105
a(I1023
I5013
tp106
a(I1108
I5036
tp107
a(I1115
I5129
tp108
a(I1178
I4969
tp109
a(I1014
I5022
tp110
a(I1058
I4965
tp111
a(I1072
I5054
tp112
a(I1034
I5001
tp113
a(I946
I5038
tp114
a(I1055
I5004
tp115
a(I994
I5003
tp116
a(I897
I5060
tp117
a(I956
I5066
tp118
a(I1047
I5023
tp119
a(I1137
I4974
tp120
a.