(lp0
(I4470
I3920
tp1
a(I4464
I3718
tp2
a(I4381
I3709
tp3
a(I4511
I3891
tp4
a(I4220
I3796
tp5
a(I4367
I3744
tp6
a(I4105
I3772
tp7
a(I4335
I3760
tp8
a(I4329
I3692
tp9
a(I4497
I3799
tp10
a(I4395
I3725
tp11
a(I4189
I3793
tp12
a(I4356
I3721
tp13
a(I4343
I3752
tp14
a(I4248
I3633
tp15
a(I4423
I3930
tp16
a(I4408
I3735
tp17
a(I4342
I3738
tp18
a(I4340
I3739
tp19
a(I4226
I3767
tp20
a(I4385
I3701
tp21
a(I4412
I3732
tp22
a(I4347
I3732
tp23
a(I4263
I3490
tp24
a(I4080
I3699
tp25
a(I4358
I3751
tp26
a(I4437
I3795
tp27
a(I4346
I3775
tp28
a(I4388
I3746
tp29
a(I4372
I3694
tp30
a(I4360
I3581
tp31
a(I4342
I3694
tp32
a(I4342
I3686
tp33
a(I4297
I3642
tp34
a(I4313
I3860
tp35
a(I4244
I3611
tp36
a(I4305
I3750
tp37
a(I4328
I3731
tp38
a(I4367
I3703
tp39
a(I4553
I3688
tp40
a(I4427
I3758
tp41
a(I4344
I3655
tp42
a(I4440
I3676
tp43
a(I1573
I3687
tp44
a(I1595
I3774
tp45
a(I1369
I3650
tp46
a(I1576
I3724
tp47
a(I1393
I3787
tp48
a(I1582
I3723
tp49
a(I1673
I3658
tp50
a(I1463
I3687
tp51
a(I1401
I3621
tp52
a(I1270
I3697
tp53
a(I1461
I3827
tp54
a(I1589
I3684
tp55
a(I1343
I3650
tp56
a(I1494
I3806
tp57
a(I1594
I3762
tp58
a(I1639
I3668
tp59
a(I1464
I3544
tp60
a(I1589
I3751
tp61
a(I1541
I3971
tp62
a(I1498
I3676
tp63
a(I1566
I3684
tp64
a(I1574
I3694
tp65
a(I1726
I3870
tp66
a(I1653
I3708
tp67
a(I1578
I3701
tp68
a(I1571
I3702
tp69
a(I1669
I3429
tp70
a(I1599
I3669
tp71
a(I1568
I3678
tp72
a(I1449
I3764
tp73
a(I1681
I3744
tp74
a(I1684
I3776
tp75
a(I1521
I3765
tp76
a(I1653
I3567
tp77
a(I1592
I3726
tp78
a(I1527
I3694
tp79
a(I1514
I3718
tp80
a(I1567
I3719
tp81
a(I1561
I3696
tp82
a(I1387
I3638
tp83
a(I1409
I5891
tp84
a(I1473
I5985
tp85
a(I1428
I5868
tp86
a(I1451
I5886
tp87
a(I1401
I5885
tp88
a(I1667
I6075
tp89
a(I1390
I6014
tp90
a(I1432
I5957
tp91
a(I1428
I5877
tp92
a(I1338
I6165
tp93
a(I1460
I5900
tp94
a(I1369
I5764
tp95
a(I1424
I5970
tp96
a(I1276
I5810
tp97
a(I1239
I5946
tp98
a(I1439
I6011
tp99
a(I1444
I5908
tp100
a(I1423
I5945
tp101
a(I1377
I5926
tp102
a(I1429
I5934
tp103
a(I1412
I5995
tp104
a(I1360
I6016
tp105
a(I1422
I5829
tp106
a(I1416
I5746
tp107
a(I1442
I5915
tp108
a(I1407
I5916
tp109
a(I1442
I5883
tp110
a(I1385
I5873
tp111
a(I1500
I6118
tp112
a(I1454
I5921
tp113
a(I1383
I5992
tp114
a(I1438
I5720
tp115
a(I1337
I5915
tp116
a(I1590
I5777
tp117
a(I1505
I6033
tp118
a(I1581
I5974
tp119
a(I1590
I5981
tp120
a(I1381
I5950
tp121
a.