(lp0
(I1469
I5597
tp1
a(I1495
I5619
tp2
a(I1487
I5592
tp3
a(I1442
I5589
tp4
a(I1475
I5652
tp5
a(I1461
I5621
tp6
a(I1467
I5602
tp7
a(I1536
I5622
tp8
a(I1510
I5563
tp9
a(I1465
I5552
tp10
a(I1571
I5547
tp11
a(I1361
I5498
tp12
a(I1454
I5597
tp13
a(I1615
I5497
tp14
a(I1573
I5768
tp15
a(I1303
I5739
tp16
a(I1515
I5604
tp17
a(I1376
I5555
tp18
a(I1471
I5602
tp19
a(I1475
I5488
tp20
a(I1507
I5671
tp21
a(I1433
I5604
tp22
a(I1567
I5541
tp23
a(I1477
I5597
tp24
a(I1476
I5598
tp25
a(I1610
I5434
tp26
a(I1453
I5602
tp27
a(I1515
I5644
tp28
a(I1477
I5612
tp29
a(I1478
I5595
tp30
a(I1442
I5640
tp31
a(I1502
I5549
tp32
a(I1463
I5620
tp33
a(I1493
I5694
tp34
a(I1476
I5576
tp35
a(I4742
I3088
tp36
a(I4858
I2975
tp37
a(I4792
I2952
tp38
a(I4831
I3073
tp39
a(I4622
I3169
tp40
a(I4686
I3101
tp41
a(I4817
I3064
tp42
a(I4729
I3133
tp43
a(I4786
I3175
tp44
a(I4804
I3025
tp45
a(I4790
I2999
tp46
a(I4778
I3118
tp47
a(I4769
I3096
tp48
a(I4798
I3220
tp49
a(I4754
I3105
tp50
a(I4743
I3138
tp51
a(I4790
I3063
tp52
a(I4814
I3122
tp53
a(I4761
I3135
tp54
a(I4877
I3022
tp55
a(I4710
I3307
tp56
a(I4735
I3109
tp57
a(I4793
I3136
tp58
a(I4653
I3073
tp59
a(I4803
I3071
tp60
a(I4748
I3078
tp61
a(I4780
I3103
tp62
a(I4753
I3140
tp63
a(I4603
I3077
tp64
a(I4699
I3108
tp65
a(I4712
I3163
tp66
a(I4822
I3090
tp67
a(I4719
I3109
tp68
a(I4645
I3085
tp69
a(I4815
I3154
tp70
a(I4777
I3128
tp71
a(I4810
I3186
tp72
a(I4764
I3069
tp73
a(I4843
I3042
tp74
a(I4770
I3009
tp75
a(I4753
I3102
tp76
a(I4785
I3155
tp77
a(I4687
I3211
tp78
a(I4862
I3135
tp79
a(I1069
I4714
tp80
a(I1047
I4652
tp81
a(I1034
I4694
tp82
a(I1001
I4827
tp83
a(I1062
I4745
tp84
a(I1058
I4749
tp85
a(I1085
I4716
tp86
a(I1056
I4768
tp87
a(I1080
I4706
tp88
a(I1081
I4728
tp89
a(I1129
I4637
tp90
a(I1143
I4768
tp91
a(I1039
I4773
tp92
a(I1027
I4721
tp93
a(I1113
I4679
tp94
a(I1043
I4736
tp95
a(I1060
I4746
tp96
a(I1076
I4753
tp97
a(I1065
I4712
tp98
a(I1061
I4608
tp99
a(I1123
I4715
tp100
a(I1115
I4777
tp101
a(I1002
I4695
tp102
a(I922
I4759
tp103
a(I1029
I4884
tp104
a(I1093
I4533
tp105
a(I1141
I4699
tp106
a(I1066
I4729
tp107
a(I1011
I4664
tp108
a(I1009
I4834
tp109
a(I1061
I4744
tp110
a(I1069
I4933
tp111
a(I1071
I4706
tp112
a(I1004
I4694
tp113
a(I1094
I4715
tp114
a(I1065
I4747
tp115
a(I1091
I4765
tp116
a.