(lp0
(I1894
I3955
tp1
a(I1918
I3830
tp2
a(I1869
I3927
tp3
a(I1880
I3990
tp4
a(I2055
I3917
tp5
a(I2013
I3924
tp6
a(I1881
I3912
tp7
a(I1891
I4025
tp8
a(I1891
I3971
tp9
a(I1936
I3923
tp10
a(I1884
I4054
tp11
a(I1870
I4021
tp12
a(I1826
I3951
tp13
a(I1953
I4085
tp14
a(I1947
I3884
tp15
a(I2024
I3907
tp16
a(I1892
I3957
tp17
a(I1875
I3956
tp18
a(I1895
I3979
tp19
a(I1833
I4087
tp20
a(I1939
I3961
tp21
a(I1913
I3962
tp22
a(I1899
I3976
tp23
a(I1834
I3901
tp24
a(I1867
I4019
tp25
a(I1841
I4045
tp26
a(I1723
I4025
tp27
a(I1886
I3978
tp28
a(I1893
I4002
tp29
a(I1874
I3909
tp30
a(I4843
I5792
tp31
a(I4949
I5654
tp32
a(I4778
I5677
tp33
a(I4909
I5706
tp34
a(I4791
I5645
tp35
a(I4941
I5764
tp36
a(I4915
I5780
tp37
a(I4979
I5658
tp38
a(I4679
I5675
tp39
a(I4815
I5603
tp40
a(I4947
I5682
tp41
a(I4946
I5611
tp42
a(I4896
I5838
tp43
a(I4772
I5951
tp44
a(I4836
I5612
tp45
a(I4914
I5614
tp46
a(I4900
I5759
tp47
a(I4923
I5697
tp48
a(I4926
I5703
tp49
a(I4779
I5699
tp50
a(I4893
I5718
tp51
a(I4787
I6018
tp52
a(I5080
I5584
tp53
a(I4865
I5987
tp54
a(I4946
I5804
tp55
a(I5009
I5697
tp56
a(I4899
I5757
tp57
a(I4871
I5515
tp58
a(I4780
I5743
tp59
a(I4886
I5753
tp60
a(I5092
I5755
tp61
a(I2014
I4446
tp62
a(I1847
I4605
tp63
a(I1837
I4582
tp64
a(I1953
I4562
tp65
a(I1866
I4612
tp66
a(I1846
I4697
tp67
a(I2050
I4697
tp68
a(I1868
I4764
tp69
a(I1803
I4514
tp70
a(I1876
I4562
tp71
a(I1747
I4732
tp72
a(I1874
I4589
tp73
a(I1933
I4457
tp74
a(I1854
I4526
tp75
a(I1871
I4563
tp76
a(I1832
I4634
tp77
a(I1982
I4346
tp78
a(I1772
I4585
tp79
a(I1824
I4581
tp80
a(I1886
I4549
tp81
a(I1863
I4548
tp82
a(I1702
I4635
tp83
a.