(lp0
(I2508
I5374
tp1
a(I2561
I5566
tp2
a(I2527
I5562
tp3
a(I2378
I5564
tp4
a(I2575
I5277
tp5
a(I2438
I5332
tp6
a(I2465
I5495
tp7
a(I2670
I5395
tp8
a(I2331
I5501
tp9
a(I2514
I5459
tp10
a(I2527
I5401
tp11
a(I2616
I5365
tp12
a(I2440
I5485
tp13
a(I2664
I5345
tp14
a(I2377
I5548
tp15
a(I2403
I5238
tp16
a(I2557
I5305
tp17
a(I2370
I5259
tp18
a(I2410
I5278
tp19
a(I2334
I5424
tp20
a(I2658
I5475
tp21
a(I2366
I5358
tp22
a(I2565
I5227
tp23
a(I4741
I5733
tp24
a(I4647
I5725
tp25
a(I4411
I5780
tp26
a(I4525
I5857
tp27
a(I4533
I5582
tp28
a(I4617
I5717
tp29
a(I4644
I5610
tp30
a(I4793
I5650
tp31
a(I4393
I5647
tp32
a(I4459
I5868
tp33
a(I4554
I5915
tp34
a(I4785
I5751
tp35
a(I4573
I5916
tp36
a(I4678
I5859
tp37
a(I4579
I5839
tp38
a(I4756
I5712
tp39
a(I4507
I5863
tp40
a(I4616
I5921
tp41
a(I4459
I5623
tp42
a(I4538
I5757
tp43
a(I4687
I5615
tp44
a(I4746
I5750
tp45
a(I4639
I5660
tp46
a(I4528
I5930
tp47
a(I4712
I5588
tp48
a(I4638
I5892
tp49
a(I4629
I5795
tp50
a(I4562
I5611
tp51
a(I3188
I3601
tp52
a(I3124
I4089
tp53
a(I3022
I4110
tp54
a(I3145
I4029
tp55
a(I3309
I3747
tp56
a(I3266
I3910
tp57
a(I3044
I3623
tp58
a(I3114
I3622
tp59
a(I3403
I3816
tp60
a(I3128
I3932
tp61
a(I3402
I3946
tp62
a(I3308
I3967
tp63
a(I3044
I3857
tp64
a(I3269
I3913
tp65
a(I3228
I3768
tp66
a(I3221
I3889
tp67
a(I3300
I4024
tp68
a(I3090
I3876
tp69
a(I3194
I3621
tp70
a(I2970
I3928
tp71
a(I2968
I4093
tp72
a(I3402
I3808
tp73
a(I3214
I4049
tp74
a.