(dp0
I0
(lp1
I308
aI309
aI310
aI311
aI312
aI313
aI314
aI315
aI316
aI317
aI318
aI319
aI320
aI321
aI322
aI323
aI324
aI325
aI326
aI327
aI328
aI329
aI330
aI331
aI332
aI333
aI334
aI335
aI336
aI337
asI1
(lp2
I310
aI311
aI317
aI318
aI320
aI325
aI328
aI331
aI335
aI337
asI2
(lp3
I308
aI311
aI315
aI319
aI323
aI324
aI329
aI333
aI337
asI3
(lp4
I308
aI312
aI316
aI318
aI322
aI326
aI329
aI333
aI334
aI337
asI4
(lp5
I309
aI313
aI317
aI322
aI327
aI330
aI333
aI334
asI5
(lp6
I309
aI312
aI315
aI317
aI321
aI327
aI330
aI331
aI336
asI6
(lp7
I309
aI312
aI316
aI318
aI320
aI324
aI331
aI332
aI336
asI7
(lp8
I310
aI314
aI320
aI322
aI326
aI330
aI332
aI336
as.