(lp0
(lp1
(I2164
I5318
tp2
a(I1573
I5539
tp3
a(I3573
I4228
tp4
aa(lp5
g2
a(I2982
I3107
tp6
a(I1947
I4592
tp7
a(I3553
I5514
tp8
aa(lp9
g2
a(I1366
I4542
tp10
a(I2783
I4610
tp11
ag11
aa(lp12
g2
ag10
ag3
aa(lp13
g2
ag4
ag6
ag8
aa(lp14
g2
ag7
ag7
aa(lp15
g2
ag11
aa(lp16
g2
ag3
ag6
aa(lp17
g2
ag8
ag4
aa(lp18
g2
ag10
ag7
ag6
aa(lp19
g2
ag10
ag4
ag8
aa(lp20
g2
ag3
aa(lp21
g2
ag11
ag8
ag10
aa(lp22
g2
ag6
aa(lp23
g2
ag7
ag4
ag11
aa(lp24
g2
ag3
aa(lp25
g2
ag8
ag3
aa(lp26
g2
ag10
aa(lp27
g2
ag4
ag11
aa(lp28
g2
ag7
ag6
aa(lp29
g2
ag10
aa(lp30
g2
ag4
ag3
aa(lp31
g2
ag11
ag7
ag6
aa(lp32
g2
ag8
ag6
ag10
aa(lp33
g2
ag8
ag11
aa(lp34
g2
ag3
ag7
ag4
aa(lp35
g2
ag7
ag4
aa(lp36
g2
ag10
aa(lp37
g2
ag6
ag8
ag11
aa(lp38
g2
ag3
ag10
ag4
aa.