(dp0
I308
(lp1
I0
aI2
aI3
asI309
(lp2
I0
aI5
aI4
aI6
asI310
(lp3
I0
aI1
aI7
aI7
asI311
(lp4
I0
aI1
aI2
asI312
(lp5
I0
aI3
aI5
aI6
asI313
(lp6
I0
aI4
aI4
asI314
(lp7
I0
aI7
asI315
(lp8
I0
aI2
aI5
asI316
(lp9
I0
aI6
aI3
asI317
(lp10
I0
aI1
aI4
aI5
asI318
(lp11
I0
aI1
aI3
aI6
asI319
(lp12
I0
aI2
asI320
(lp13
I0
aI7
aI6
aI1
asI321
(lp14
I0
aI5
asI322
(lp15
I0
aI4
aI3
aI7
asI323
(lp16
I0
aI2
asI324
(lp17
I0
aI6
aI2
asI325
(lp18
I0
aI1
asI326
(lp19
I0
aI3
aI7
asI327
(lp20
I0
aI4
aI5
asI328
(lp21
I0
aI1
asI329
(lp22
I0
aI3
aI2
asI330
(lp23
I0
aI7
aI4
aI5
asI331
(lp24
I0
aI6
aI5
aI1
asI332
(lp25
I0
aI6
aI7
asI333
(lp26
I0
aI2
aI4
aI3
asI334
(lp27
I0
aI4
aI3
asI335
(lp28
I0
aI1
asI336
(lp29
I0
aI5
aI6
aI7
asI337
(lp30
I0
aI2
aI1
aI3
as.