(lp0
(I1381
I4474
tp1
a(I1526
I4584
tp2
a(I1243
I4558
tp3
a(I1359
I4520
tp4
a(I1501
I4461
tp5
a(I1366
I4542
tp6
a(I1463
I4527
tp7
a(I1240
I4627
tp8
a(I1379
I4562
tp9
a(I1298
I4550
tp10
a(I1324
I4461
tp11
a(I1455
I4586
tp12
a(I1297
I4553
tp13
a(I1419
I4584
tp14
a(I1449
I4593
tp15
a(I1335
I4569
tp16
a(I1490
I4590
tp17
a(I1384
I4549
tp18
a(I1250
I4476
tp19
a(I1236
I4558
tp20
a(I1356
I4533
tp21
a(I1396
I4498
tp22
a(I1419
I4514
tp23
a(I1367
I4533
tp24
a(I1344
I4620
tp25
a(I1361
I4494
tp26
a(I1370
I4489
tp27
a(I1365
I4541
tp28
a(I1406
I4623
tp29
a(I1368
I4484
tp30
a(I1222
I4422
tp31
a(I1329
I4502
tp32
a(I1432
I4623
tp33
a(I1432
I4615
tp34
a(I1311
I4466
tp35
a(I1354
I4532
tp36
a(I1200
I4511
tp37
a(I1448
I4633
tp38
a(I1325
I4552
tp39
a(I1373
I4548
tp40
a(I1349
I4440
tp41
a(I1336
I4605
tp42
a(I1345
I4595
tp43
a(I1327
I4554
tp44
a(I1302
I4549
tp45
a(I1362
I4530
tp46
a(I1313
I4543
tp47
a(I1406
I5557
tp48
a(I1450
I5540
tp49
a(I1598
I5771
tp50
a(I1577
I5564
tp51
a(I1548
I5469
tp52
a(I1640
I5530
tp53
a(I1553
I5552
tp54
a(I1563
I5523
tp55
a(I1681
I5503
tp56
a(I1629
I5581
tp57
a(I1638
I5680
tp58
a(I1572
I5538
tp59
a(I1543
I5516
tp60
a(I1538
I5726
tp61
a(I1461
I5502
tp62
a(I1566
I5530
tp63
a(I1593
I5690
tp64
a(I1535
I5510
tp65
a(I1626
I5674
tp66
a(I1555
I5501
tp67
a(I1728
I5684
tp68
a(I1567
I5526
tp69
a(I1563
I5532
tp70
a(I1714
I5622
tp71
a(I1585
I5467
tp72
a(I1773
I5509
tp73
a(I1580
I5530
tp74
a(I1528
I5519
tp75
a(I1577
I5530
tp76
a(I1674
I5447
tp77
a(I1576
I5544
tp78
a(I1569
I5524
tp79
a(I1568
I5509
tp80
a(I1443
I5540
tp81
a(I1514
I5537
tp82
a(I1627
I5466
tp83
a(I1693
I5492
tp84
a(I3501
I4252
tp85
a(I3424
I4090
tp86
a(I3581
I4250
tp87
a(I3576
I4232
tp88
a(I3714
I4196
tp89
a(I3410
I4159
tp90
a(I3521
I4386
tp91
a(I3543
I4277
tp92
a(I3625
I4333
tp93
a(I3597
I4299
tp94
a(I3569
I4232
tp95
a(I3526
I4096
tp96
a(I3556
I4230
tp97
a(I3641
I4374
tp98
a(I3645
I4228
tp99
a(I3526
I4154
tp100
a(I3783
I4367
tp101
a(I3775
I4068
tp102
a(I3605
I4159
tp103
a(I3762
I4278
tp104
a(I3533
I4146
tp105
a(I3578
I4230
tp106
a(I3576
I4257
tp107
a(I3420
I4117
tp108
a(I3610
I4192
tp109
a(I3588
I4409
tp110
a(I3587
I4236
tp111
a(I3423
I4402
tp112
a(I3604
I4438
tp113
a(I3531
I4240
tp114
a(I3568
I4198
tp115
a(I3535
I4242
tp116
a(I3450
I4397
tp117
a(I3454
I4272
tp118
a(I3548
I4181
tp119
a(I3493
I4237
tp120
a(I3557
I4245
tp121
a(I3341
I4339
tp122
a(I3593
I4243
tp123
a(I3524
I4352
tp124
a(I3533
I4281
tp125
a(I3526
I4249
tp126
a(I3740
I4193
tp127
a(I3582
I4213
tp128
a(I3599
I4272
tp129
a(I3646
I4238
tp130
a(I3559
I4120
tp131
a(I3562
I4183
tp132
a(I2009
I4585
tp133
a(I1874
I4486
tp134
a(I1925
I4517
tp135
a(I1825
I4649
tp136
a(I1951
I4638
tp137
a(I1899
I4568
tp138
a(I1919
I4597
tp139
a(I1934
I4626
tp140
a(I1937
I4628
tp141
a(I1939
I4555
tp142
a(I1842
I4684
tp143
a(I1906
I4531
tp144
a(I1930
I4563
tp145
a(I1944
I4592
tp146
a(I1976
I4562
tp147
a(I1902
I4625
tp148
a(I2084
I4452
tp149
a(I1918
I4689
tp150
a(I2037
I4312
tp151
a(I1885
I4606
tp152
a(I1943
I4614
tp153
a(I1953
I4586
tp154
a(I2087
I4596
tp155
a(I1842
I4573
tp156
a(I1991
I4412
tp157
a(I1987
I4508
tp158
a(I1909
I4579
tp159
a(I1961
I4586
tp160
a(I1839
I4674
tp161
a(I1958
I4590
tp162
a(I1854
I4662
tp163
a(I1955
I4407
tp164
a(I1848
I4611
tp165
a(I1786
I4555
tp166
a(I2970
I3105
tp167
a(I2987
I3152
tp168
a(I2953
I3014
tp169
a(I3007
I3132
tp170
a(I2890
I3182
tp171
a(I2833
I2982
tp172
a(I3052
I2951
tp173
a(I2913
I3234
tp174
a(I2828
I3265
tp175
a(I2978
I3134
tp176
a(I2943
I3093
tp177
a(I3209
I3140
tp178
a(I2958
I3051
tp179
a(I2845
I2914
tp180
a(I2944
I3062
tp181
a(I2973
I3083
tp182
a(I3078
I3141
tp183
a(I3076
I3153
tp184
a(I2746
I3132
tp185
a(I2982
I3107
tp186
a(I2891
I3004
tp187
a(I2937
I3134
tp188
a(I3119
I3229
tp189
a(I2862
I3022
tp190
a(I3051
I3116
tp191
a(I2989
I3122
tp192
a(I2828
I3127
tp193
a(I3007
I3143
tp194
a(I3134
I2979
tp195
a(I2939
I3157
tp196
a(I2894
I3060
tp197
a(I3034
I3178
tp198
a(I2982
I3107
tp199
a(I3049
I3065
tp200
a(I2944
I3122
tp201
a(I2988
I2948
tp202
a(I2989
I3073
tp203
a(I2993
I3108
tp204
a(I2991
I3093
tp205
a(I2954
I3142
tp206
a(I2985
I3104
tp207
a(I3011
I3128
tp208
a(I2976
I3113
tp209
a(I2981
I3085
tp210
a(I2842
I3044
tp211
a(I2997
I3094
tp212
a(I2982
I3112
tp213
a(I3005
I3114
tp214
a(I2970
I3033
tp215
a(I3576
I5357
tp216
a(I3528
I5396
tp217
a(I3529
I5501
tp218
a(I3553
I5523
tp219
a(I3629
I5521
tp220
a(I3362
I5385
tp221
a(I3634
I5623
tp222
a(I3483
I5536
tp223
a(I3410
I5611
tp224
a(I3472
I5571
tp225
a(I3490
I5491
tp226
a(I3543
I5525
tp227
a(I3686
I5419
tp228
a(I3559
I5499
tp229
a(I3559
I5456
tp230
a(I3561
I5513
tp231
a(I3576
I5605
tp232
a(I3383
I5510
tp233
a(I3778
I5494
tp234
a(I3486
I5488
tp235
a(I3566
I5435
tp236
a(I3547
I5527
tp237
a(I3565
I5477
tp238
a(I3548
I5519
tp239
a(I3582
I5522
tp240
a(I3458
I5523
tp241
a(I3554
I5508
tp242
a(I3595
I5531
tp243
a(I3496
I5600
tp244
a(I3634
I5664
tp245
a(I3494
I5610
tp246
a(I3567
I5384
tp247
a(I2637
I4784
tp248
a(I2763
I4669
tp249
a(I2894
I4429
tp250
a(I2753
I4531
tp251
a(I2885
I4472
tp252
a(I2673
I4668
tp253
a(I2736
I4755
tp254
a(I2651
I4877
tp255
a(I2739
I4615
tp256
a(I2784
I4426
tp257
a(I2812
I4589
tp258
a(I2795
I4597
tp259
a(I2916
I4824
tp260
a(I2776
I4602
tp261
a(I2710
I4663
tp262
a(I2762
I4643
tp263
a(I2730
I4557
tp264
a(I2753
I4631
tp265
a(I2862
I4612
tp266
a(I2796
I4617
tp267
a(I2812
I4563
tp268
a(I2789
I4620
tp269
a(I2813
I4722
tp270
a(I2687
I4690
tp271
a(I2768
I4654
tp272
a(I2980
I4414
tp273
a(I2773
I4587
tp274
a(I3065
I4653
tp275
a(I2961
I4635
tp276
a(I2601
I4820
tp277
a(I2801
I4614
tp278
a(I2739
I4598
tp279
a(I2871
I4905
tp280
a(I2844
I4612
tp281
a(I2723
I4748
tp282
a(I2794
I4684
tp283
a(I2746
I4621
tp284
a(I2667
I4678
tp285
a(I2938
I4547
tp286
a(I2904
I4604
tp287
a.