(lp0
(I1366
I4542
tp1
a(I1573
I5539
tp2
a(I1573
I5539
tp3
a(I3573
I4228
tp4
a(I1947
I4592
tp5
a(I1947
I4592
tp6
a(I1947
I4592
tp7
a(I2982
I3107
tp8
a(I2982
I3107
tp9
a(I3553
I5514
tp10
a(I2783
I4610
tp11
a(I2783
I4610
tp12
a(I2783
I4610
tp13
a.