(dp0
I0
(lp1
I222
aI223
aI224
aI225
aI226
aI227
aI228
aI229
aI230
aI231
aI232
aI233
aI234
aI235
aI236
aI237
aI238
aI239
aI240
aI241
aI242
aI243
aI244
aI245
aI246
aI247
aI248
aI249
aI250
aI251
asI1
(lp2
I222
aI225
aI226
aI227
aI228
aI230
aI231
aI232
aI233
aI235
aI236
aI237
aI241
aI243
aI245
aI246
aI247
aI251
asI2
(lp3
I222
aI224
aI225
aI226
aI227
aI229
aI231
aI232
aI233
aI234
aI235
aI236
aI239
aI241
aI242
aI244
aI246
aI248
aI249
aI251
asI3
(lp4
I222
aI224
aI226
aI227
aI228
aI229
aI230
aI231
aI233
aI234
aI235
aI237
aI238
aI240
aI242
aI245
aI247
aI248
aI250
aI251
asI4
(lp5
I223
aI224
aI225
aI227
aI229
aI230
aI232
aI233
aI234
aI236
aI238
aI240
aI243
aI244
aI245
aI247
aI250
asI5
(lp6
I223
aI225
aI227
aI229
aI230
aI231
aI233
aI234
aI235
aI236
aI239
aI241
aI242
aI243
aI245
aI246
aI247
aI249
aI251
as.