(dp0
I222
(lp1
I0
aI3
aI1
aI2
asI223
(lp2
I0
aI4
aI5
asI224
(lp3
I0
aI4
aI2
aI3
asI225
(lp4
I0
aI1
aI5
aI5
aI4
aI2
asI226
(lp5
I0
aI3
aI1
aI2
asI227
(lp6
I0
aI3
aI5
aI1
aI4
aI2
asI228
(lp7
I0
aI1
aI3
asI229
(lp8
I0
aI5
aI4
aI3
aI2
aI4
asI230
(lp9
I0
aI1
aI5
aI3
aI1
aI4
asI231
(lp10
I0
aI5
aI2
aI5
aI1
aI3
asI232
(lp11
I0
aI4
aI2
aI1
asI233
(lp12
I0
aI4
aI2
aI5
aI3
aI1
asI234
(lp13
I0
aI5
aI4
aI3
aI2
aI4
asI235
(lp14
I0
aI5
aI3
aI2
aI1
asI236
(lp15
I0
aI4
aI1
aI5
aI2
asI237
(lp16
I0
aI3
aI1
asI238
(lp17
I0
aI4
aI3
asI239
(lp18
I0
aI5
aI2
asI240
(lp19
I0
aI4
aI3
asI241
(lp20
I0
aI2
aI5
aI1
asI242
(lp21
I0
aI5
aI3
aI2
asI243
(lp22
I0
aI4
aI1
aI5
aI1
asI244
(lp23
I0
aI2
aI4
asI245
(lp24
I0
aI3
aI1
aI3
aI4
aI5
asI246
(lp25
I0
aI2
aI1
aI5
aI2
asI247
(lp26
I0
aI3
aI4
aI4
aI1
aI5
asI248
(lp27
I0
aI3
aI2
asI249
(lp28
I0
aI5
aI2
asI250
(lp29
I0
aI3
aI4
asI251
(lp30
I0
aI1
aI3
aI1
aI2
aI5
as.