(lp0
(I2373
I4198
tp1
a(I2432
I4168
tp2
a(I2541
I4354
tp3
a(I2362
I4173
tp4
a(I2384
I4264
tp5
a(I2314
I4165
tp6
a(I2432
I4377
tp7
a(I2267
I4226
tp8
a(I2375
I4194
tp9
a(I2387
I4007
tp10
a(I2355
I4177
tp11
a(I2313
I4223
tp12
a(I2354
I4174
tp13
a(I2273
I4127
tp14
a(I2354
I4191
tp15
a(I2397
I4148
tp16
a(I2219
I4144
tp17
a(I2365
I4174
tp18
a(I2371
I4182
tp19
a(I2482
I4208
tp20
a(I2356
I4180
tp21
a(I2313
I4154
tp22
a(I2305
I4105
tp23
a(I2340
I4216
tp24
a(I2283
I4193
tp25
a(I2307
I4173
tp26
a(I2287
I4275
tp27
a(I2370
I4176
tp28
a(I2463
I4166
tp29
a(I2373
I4151
tp30
a(I2227
I4287
tp31
a(I2443
I4165
tp32
a(I2353
I4191
tp33
a(I2233
I4086
tp34
a(I2474
I4019
tp35
a(I2400
I4190
tp36
a(I2484
I4008
tp37
a(I2265
I4173
tp38
a(I2401
I4203
tp39
a(I2430
I4106
tp40
a(I2345
I4186
tp41
a(I2279
I4168
tp42
a(I2486
I4169
tp43
a(I2279
I4222
tp44
a(I2347
I4307
tp45
a(I2060
I5787
tp46
a(I1975
I5809
tp47
a(I2013
I5884
tp48
a(I1996
I5688
tp49
a(I2084
I5574
tp50
a(I2080
I5766
tp51
a(I2112
I5753
tp52
a(I2112
I5832
tp53
a(I1989
I5673
tp54
a(I2136
I5965
tp55
a(I1973
I5903
tp56
a(I2083
I5764
tp57
a(I2126
I5758
tp58
a(I2097
I5614
tp59
a(I1990
I5586
tp60
a(I2057
I5772
tp61
a(I1933
I5720
tp62
a(I2130
I5721
tp63
a(I2156
I5698
tp64
a(I2067
I5763
tp65
a(I2140
I5785
tp66
a(I2195
I5874
tp67
a(I2156
I5941
tp68
a(I2156
I5815
tp69
a(I2101
I5795
tp70
a(I1920
I5588
tp71
a(I2104
I5748
tp72
a(I2096
I5855
tp73
a(I2119
I6066
tp74
a(I2112
I5752
tp75
a(I2176
I5787
tp76
a(I2031
I5691
tp77
a(I2162
I5846
tp78
a(I2084
I5756
tp79
a(I2314
I5782
tp80
a(I2093
I5802
tp81
a(I2059
I5777
tp82
a(I2306
I5928
tp83
a(I2173
I5769
tp84
a(I3238
I4734
tp85
a(I3352
I4720
tp86
a(I3341
I4635
tp87
a(I3441
I4839
tp88
a(I3291
I4650
tp89
a(I3353
I4749
tp90
a(I3377
I4625
tp91
a(I3371
I4743
tp92
a(I3265
I4668
tp93
a(I3352
I4796
tp94
a(I3357
I4558
tp95
a(I3274
I4802
tp96
a(I3347
I4747
tp97
a(I3338
I4736
tp98
a(I3411
I4699
tp99
a(I3372
I4788
tp100
a(I3270
I4643
tp101
a(I3345
I4745
tp102
a(I3348
I4731
tp103
a(I3227
I4685
tp104
a(I3344
I4746
tp105
a(I3326
I4713
tp106
a(I3398
I4752
tp107
a(I3336
I4748
tp108
a(I3467
I4684
tp109
a(I3332
I4739
tp110
a(I3431
I4747
tp111
a(I3508
I4705
tp112
a(I3534
I4851
tp113
a(I3312
I4687
tp114
a(I3353
I4972
tp115
a(I3468
I4704
tp116
a(I3340
I4747
tp117
a(I3332
I4741
tp118
a(I3449
I4868
tp119
a(I3307
I4841
tp120
a(I3329
I4736
tp121
a(I3348
I4765
tp122
a(I3285
I4771
tp123
a(I3296
I4727
tp124
a(I3325
I4780
tp125
a(I3372
I4745
tp126
a(I3350
I4748
tp127
a(I3336
I4739
tp128
a(I3349
I4718
tp129
a(I3300
I4855
tp130
a(I1225
I5237
tp131
a(I1210
I5369
tp132
a(I1122
I5405
tp133
a(I1080
I5147
tp134
a(I1259
I5267
tp135
a(I1210
I5253
tp136
a(I1206
I5250
tp137
a(I1216
I5249
tp138
a(I1295
I5334
tp139
a(I1238
I5239
tp140
a(I1180
I5334
tp141
a(I1416
I5373
tp142
a(I1239
I5252
tp143
a(I1179
I5279
tp144
a(I1468
I5346
tp145
a(I1133
I5400
tp146
a(I1238
I5374
tp147
a(I1113
I5500
tp148
a(I1292
I5326
tp149
a(I1270
I5237
tp150
a(I1367
I5329
tp151
a(I1279
I5222
tp152
a(I1337
I5188
tp153
a(I1259
I5298
tp154
a(I1269
I5140
tp155
a(I1410
I5298
tp156
a(I1176
I5421
tp157
a(I1141
I5127
tp158
a(I1322
I5078
tp159
a(I1176
I5237
tp160
a(I1485
I5127
tp161
a(I1230
I5272
tp162
a(I1233
I5244
tp163
a(I1202
I5336
tp164
a(I1247
I5509
tp165
a(I1186
I5272
tp166
a(I1028
I5325
tp167
a(I893
I5249
tp168
a(I1200
I5204
tp169
a(I1181
I5043
tp170
a(I1878
I3823
tp171
a(I1796
I3702
tp172
a(I1655
I3730
tp173
a(I1622
I3734
tp174
a(I1655
I3805
tp175
a(I1688
I3760
tp176
a(I1638
I3768
tp177
a(I1479
I3653
tp178
a(I1678
I3537
tp179
a(I1694
I3791
tp180
a(I1367
I3732
tp181
a(I1535
I3618
tp182
a(I1516
I3650
tp183
a(I1812
I3559
tp184
a(I1702
I3680
tp185
a(I1508
I3767
tp186
a(I1728
I3629
tp187
a(I1729
I3790
tp188
a(I1536
I3839
tp189
a(I1676
I3966
tp190
a(I1708
I3887
tp191
a(I1811
I3721
tp192
a(I1671
I3660
tp193
a(I1672
I3753
tp194
a(I1682
I3731
tp195
a(I1627
I3764
tp196
a(I1569
I3818
tp197
a(I1640
I3770
tp198
a(I1880
I3696
tp199
a(I1619
I3760
tp200
a(I1362
I3823
tp201
a(I1660
I3766
tp202
a.