(dp0
I0
(lp1
I283
aI284
aI285
aI286
aI287
aI288
aI289
aI290
aI291
aI292
aI293
aI294
aI295
aI296
aI297
aI298
aI299
aI300
aI301
aI302
aI303
aI304
aI305
aI306
aI307
aI308
aI309
aI310
aI311
aI312
asI1
(lp2
I283
aI287
aI290
aI296
aI297
aI305
aI307
aI310
asI2
(lp3
I285
aI290
aI293
aI295
aI301
aI304
aI306
aI311
asI3
(lp4
I285
aI289
aI291
aI295
aI300
aI304
aI309
aI312
asI4
(lp5
I286
aI290
aI292
aI294
aI299
aI303
aI308
aI311
asI5
(lp6
I283
aI289
aI293
aI294
aI298
aI302
aI308
aI309
asI6
(lp7
I284
aI287
aI291
aI294
aI297
aI303
aI306
aI311
asI7
(lp8
I285
aI288
aI292
aI295
aI299
aI303
aI308
as.