(dp0
I0
(lp1
I275
aI276
aI277
aI278
aI279
aI280
aI281
aI282
aI283
aI284
aI285
aI286
aI287
aI288
aI289
aI290
aI291
aI292
aI293
aI294
aI295
aI296
aI297
aI298
aI299
aI300
aI301
aI302
aI303
aI304
asI1
(lp2
I275
aI277
aI279
aI280
aI282
aI284
aI286
aI287
aI291
aI292
aI294
aI297
aI299
aI300
aI303
aI304
asI2
(lp3
I275
aI278
aI279
aI281
aI282
aI283
aI285
aI289
aI291
aI292
aI294
aI296
aI298
aI300
aI301
aI304
asI3
(lp4
I276
aI277
aI280
aI282
aI283
aI285
aI289
aI290
aI293
aI294
aI297
aI300
aI302
asI4
(lp5
I276
aI278
aI279
aI280
aI281
aI284
aI286
aI288
aI290
aI292
aI293
aI297
aI298
aI300
aI303
asI5
(lp6
I275
aI277
aI278
aI281
aI283
aI287
aI289
aI290
aI292
aI294
aI295
aI298
aI301
aI302
asI6
(lp7
I276
aI278
aI279
aI281
aI282
aI283
aI285
aI288
aI290
aI293
aI295
aI299
aI303
asI7
(lp8
I276
aI278
aI279
aI280
aI282
aI284
aI285
aI289
aI290
aI291
aI294
aI296
aI298
aI299
aI303
as.