(lp0
(lp1
(I1482
I3033
tp2
a(I1157
I5064
tp3
a(I2941
I5204
tp4
aa(lp5
g2
a(I4794
I5507
tp6
aa(lp7
g2
a(I1907
I5500
tp8
a(I1886
I4192
tp9
a(I4907
I3368
tp10
aa(lp11
g2
a(I1758
I5751
tp12
aa(lp13
g2
ag6
ag3
aa(lp14
g2
ag8
aa(lp15
g2
ag9
ag4
aa(lp16
g2
ag10
ag12
ag3
aa(lp17
g2
ag9
ag6
aa(lp18
g2
ag12
ag8
aa(lp19
g2
ag10
ag4
aa(lp20
g2
ag6
ag4
ag12
aa(lp21
g2
ag9
ag10
ag8
aa(lp22
g2
ag3
aa(lp23
g2
ag6
ag3
aa(lp24
g2
ag4
aa(lp25
g2
ag12
ag8
aa(lp26
g2
ag9
aa(lp27
g2
ag10
aa(lp28
g2
ag4
aa(lp29
g2
ag8
ag12
ag6
aa(lp30
g2
ag9
ag10
aa(lp31
g2
ag3
aa(lp32
g2
ag10
ag6
aa(lp33
g2
ag3
aa(lp34
g2
ag8
ag4
ag12
aa(lp35
g2
ag9
ag4
aa(lp36
g2
ag3
aa(lp37
g2
ag10
ag12
ag6
aa(lp38
g2
ag9
aa.