(lp0
(lp1
(I1320
I3090
tp2
a(I3064
I3425
tp3
a(I3019
I4345
tp4
a(I1119
I5672
tp5
aa(lp6
g2
a(I3805
I3790
tp7
a(I2088
I3360
tp8
a(I4919
I4529
tp9
a(I2952
I3102
tp10
aa(lp11
g2
ag3
ag4
ag10
aa(lp12
g2
ag8
ag5
ag9
ag7
ag4
aa(lp13
g2
ag9
ag3
ag8
ag5
ag7
aa(lp14
g2
ag10
ag9
ag3
ag10
ag8
aa(lp15
g2
ag7
ag4
ag5
ag8
aa(lp16
g2
ag10
ag9
ag7
ag3
ag5
aa(lp17
g2
ag4
ag10
ag5
ag4
ag7
aa(lp18
g2
ag3
ag9
ag8
aa(lp19
g2
ag5
ag9
ag10
ag7
aa(lp20
g2
ag8
ag3
aa(lp21
g2
ag4
ag3
aa(lp22
g2
ag8
ag7
aa(lp23
g2
ag9
ag10
ag5
ag4
aa(lp24
g2
ag9
ag8
ag10
ag4
ag7
aa(lp25
g2
ag3
ag5
ag9
aa(lp26
g2
ag4
ag3
ag5
ag8
aa(lp27
g2
ag10
ag7
ag8
ag7
aa(lp28
g2
ag10
ag3
ag4
ag9
ag5
aa(lp29
g2
ag7
ag4
aa(lp30
g2
ag9
ag5
aa(lp31
g2
ag3
ag8
ag10
ag10
aa(lp32
g2
ag9
ag4
ag8
ag5
aa(lp33
g2
ag7
ag3
ag7
ag9
aa(lp34
g2
ag8
ag10
ag5
ag3
aa(lp35
g2
ag4
ag5
aa(lp36
g2
ag4
ag10
aa(lp37
g2
ag7
ag3
ag9
ag8
ag9
aa(lp38
g2
ag3
ag5
aa.