(dp0
I275
(lp1
I0
aI1
aI5
aI2
asI276
(lp2
I0
aI6
aI4
aI7
aI3
asI277
(lp3
I0
aI1
aI5
aI3
asI278
(lp4
I0
aI4
aI2
aI7
aI6
aI5
asI279
(lp5
I0
aI7
aI1
aI4
aI2
aI6
asI280
(lp6
I0
aI3
aI7
aI1
aI3
aI4
asI281
(lp7
I0
aI6
aI5
aI2
aI4
asI282
(lp8
I0
aI3
aI7
aI6
aI1
aI2
asI283
(lp9
I0
aI5
aI3
aI2
aI5
aI6
asI284
(lp10
I0
aI1
aI7
aI4
asI285
(lp11
I0
aI2
aI7
aI3
aI6
asI286
(lp12
I0
aI4
aI1
asI287
(lp13
I0
aI5
aI1
asI288
(lp14
I0
aI4
aI6
asI289
(lp15
I0
aI7
aI3
aI2
aI5
asI290
(lp16
I0
aI7
aI4
aI3
aI5
aI6
asI291
(lp17
I0
aI1
aI2
aI7
asI292
(lp18
I0
aI5
aI1
aI2
aI4
asI293
(lp19
I0
aI3
aI6
aI4
aI6
asI294
(lp20
I0
aI3
aI1
aI5
aI7
aI2
asI295
(lp21
I0
aI6
aI5
asI296
(lp22
I0
aI7
aI2
asI297
(lp23
I0
aI1
aI4
aI3
aI3
asI298
(lp24
I0
aI7
aI5
aI4
aI2
asI299
(lp25
I0
aI6
aI1
aI6
aI7
asI300
(lp26
I0
aI4
aI3
aI2
aI1
asI301
(lp27
I0
aI5
aI2
asI302
(lp28
I0
aI5
aI3
asI303
(lp29
I0
aI6
aI1
aI7
aI4
aI7
asI304
(lp30
I0
aI1
aI2
as.