(dp0
I283
(lp1
I0
aI1
aI5
asI284
(lp2
I0
aI6
asI285
(lp3
I0
aI7
aI3
aI2
asI286
(lp4
I0
aI4
asI287
(lp5
I0
aI6
aI1
asI288
(lp6
I0
aI7
asI289
(lp7
I0
aI3
aI5
asI290
(lp8
I0
aI2
aI4
aI1
asI291
(lp9
I0
aI3
aI6
asI292
(lp10
I0
aI4
aI7
asI293
(lp11
I0
aI2
aI5
asI294
(lp12
I0
aI6
aI5
aI4
asI295
(lp13
I0
aI3
aI2
aI7
asI296
(lp14
I0
aI1
asI297
(lp15
I0
aI6
aI1
asI298
(lp16
I0
aI5
asI299
(lp17
I0
aI4
aI7
asI300
(lp18
I0
aI3
asI301
(lp19
I0
aI2
asI302
(lp20
I0
aI5
asI303
(lp21
I0
aI7
aI4
aI6
asI304
(lp22
I0
aI3
aI2
asI305
(lp23
I0
aI1
asI306
(lp24
I0
aI2
aI6
asI307
(lp25
I0
aI1
asI308
(lp26
I0
aI7
aI5
aI4
asI309
(lp27
I0
aI3
aI5
asI310
(lp28
I0
aI1
asI311
(lp29
I0
aI2
aI4
aI6
asI312
(lp30
I0
aI3
as.