(lp0
(I1143
I5066
tp1
a(I1154
I5064
tp2
a(I1242
I5027
tp3
a(I1219
I5067
tp4
a(I1177
I5017
tp5
a(I1124
I5087
tp6
a(I1113
I5086
tp7
a(I1098
I5097
tp8
a(I1190
I5045
tp9
a(I1101
I5029
tp10
a(I1158
I5058
tp11
a(I1070
I5085
tp12
a(I1185
I5067
tp13
a(I1076
I5174
tp14
a(I1193
I5093
tp15
a(I1184
I5108
tp16
a(I1164
I5068
tp17
a(I1250
I4981
tp18
a(I1115
I5057
tp19
a(I1251
I5186
tp20
a(I1230
I5053
tp21
a(I1234
I5062
tp22
a(I1163
I5066
tp23
a(I1148
I5096
tp24
a(I1215
I5065
tp25
a(I1156
I5048
tp26
a(I1176
I5108
tp27
a(I1151
I5001
tp28
a(I1133
I5206
tp29
a(I1129
I5023
tp30
a(I1141
I5110
tp31
a(I1156
I5063
tp32
a(I1119
I5156
tp33
a(I1056
I5044
tp34
a(I1108
I5163
tp35
a(I1140
I5025
tp36
a(I1147
I5071
tp37
a(I1155
I5056
tp38
a(I1203
I5116
tp39
a(I1066
I5029
tp40
a(I1093
I5134
tp41
a(I1040
I5015
tp42
a(I1178
I4937
tp43
a(I1045
I5022
tp44
a(I4933
I3330
tp45
a(I4866
I3296
tp46
a(I4821
I3312
tp47
a(I4895
I3291
tp48
a(I4862
I3360
tp49
a(I4703
I3419
tp50
a(I4870
I3289
tp51
a(I4863
I3380
tp52
a(I4896
I3395
tp53
a(I5019
I3548
tp54
a(I4921
I3372
tp55
a(I4865
I3367
tp56
a(I5009
I3509
tp57
a(I4650
I3443
tp58
a(I5078
I3247
tp59
a(I4885
I3409
tp60
a(I4820
I3365
tp61
a(I4925
I3325
tp62
a(I4894
I3363
tp63
a(I4969
I3366
tp64
a(I4948
I3334
tp65
a(I4999
I3328
tp66
a(I4755
I3399
tp67
a(I4894
I3269
tp68
a(I4954
I3164
tp69
a(I4900
I3247
tp70
a(I4841
I3405
tp71
a(I4853
I3252
tp72
a(I5127
I3363
tp73
a(I4918
I3471
tp74
a(I5001
I3261
tp75
a(I5008
I3317
tp76
a(I4896
I3406
tp77
a(I4944
I3150
tp78
a(I2000
I4163
tp79
a(I1909
I4121
tp80
a(I1937
I4214
tp81
a(I1909
I4202
tp82
a(I1934
I4233
tp83
a(I1909
I4178
tp84
a(I1872
I4207
tp85
a(I1950
I4105
tp86
a(I1918
I4174
tp87
a(I1753
I4260
tp88
a(I1956
I4223
tp89
a(I1769
I4204
tp90
a(I1859
I4300
tp91
a(I2059
I4112
tp92
a(I1749
I4280
tp93
a(I1885
I4191
tp94
a(I1986
I4119
tp95
a(I1955
I4102
tp96
a(I1948
I4231
tp97
a(I1938
I4021
tp98
a(I1919
I4279
tp99
a(I1942
I4072
tp100
a(I1775
I4222
tp101
a(I1888
I4092
tp102
a(I1895
I4214
tp103
a(I2074
I4234
tp104
a(I1950
I4124
tp105
a(I2011
I4194
tp106
a(I1888
I4192
tp107
a(I1811
I4180
tp108
a(I1885
I4190
tp109
a(I1940
I4241
tp110
a(I1948
I4254
tp111
a(I1850
I4163
tp112
a(I1914
I4163
tp113
a(I1893
I4208
tp114
a(I2020
I4342
tp115
a(I1858
I4199
tp116
a(I2080
I4130
tp117
a(I1956
I4043
tp118
a(I1919
I4237
tp119
a(I1871
I5687
tp120
a(I1785
I5765
tp121
a(I1754
I5775
tp122
a(I1556
I5976
tp123
a(I1725
I5901
tp124
a(I1750
I5749
tp125
a(I1753
I5753
tp126
a(I1756
I5628
tp127
a(I1911
I5747
tp128
a(I1757
I5755
tp129
a(I1800
I5627
tp130
a(I1730
I5562
tp131
a(I1759
I5750
tp132
a(I1663
I5674
tp133
a(I1779
I5732
tp134
a(I1916
I5640
tp135
a(I1752
I5767
tp136
a(I1635
I5451
tp137
a(I1838
I5789
tp138
a(I1767
I5757
tp139
a(I1818
I5712
tp140
a(I1643
I5534
tp141
a(I1710
I5726
tp142
a(I1853
I5752
tp143
a(I1715
I5623
tp144
a(I1784
I5819
tp145
a(I1669
I5704
tp146
a(I1717
I5794
tp147
a(I2023
I5669
tp148
a(I1653
I5588
tp149
a(I1825
I5539
tp150
a(I1675
I5756
tp151
a(I1681
I5729
tp152
a(I1788
I5707
tp153
a(I1732
I5795
tp154
a(I1713
I5811
tp155
a(I1822
I5588
tp156
a(I1810
I5740
tp157
a(I1861
I5764
tp158
a(I2820
I5081
tp159
a(I2971
I5088
tp160
a(I2694
I5197
tp161
a(I2825
I5121
tp162
a(I2883
I5169
tp163
a(I2946
I5205
tp164
a(I2965
I5272
tp165
a(I2962
I5228
tp166
a(I3010
I5237
tp167
a(I2886
I5294
tp168
a(I2855
I5196
tp169
a(I3032
I5298
tp170
a(I2897
I5115
tp171
a(I2785
I5327
tp172
a(I2983
I5196
tp173
a(I2941
I5204
tp174
a(I2783
I5106
tp175
a(I2941
I5204
tp176
a(I2923
I5192
tp177
a(I2942
I5205
tp178
a(I3132
I5104
tp179
a(I2884
I5251
tp180
a(I2993
I5351
tp181
a(I2845
I4965
tp182
a(I2846
I5196
tp183
a(I3021
I5302
tp184
a(I2876
I5348
tp185
a(I3041
I5113
tp186
a(I2990
I5362
tp187
a(I3000
I5227
tp188
a(I2887
I5302
tp189
a(I2942
I5192
tp190
a(I2988
I5047
tp191
a(I2781
I5288
tp192
a(I2939
I5205
tp193
a(I2934
I5125
tp194
a(I3007
I5225
tp195
a(I3057
I5129
tp196
a(I3102
I5216
tp197
a(I2815
I5367
tp198
a(I2874
I5386
tp199
a(I4701
I5411
tp200
a(I4820
I5522
tp201
a(I4794
I5507
tp202
a(I4837
I5427
tp203
a(I4744
I5594
tp204
a(I4829
I5306
tp205
a(I4770
I5663
tp206
a(I4855
I5506
tp207
a(I4785
I5548
tp208
a(I4822
I5528
tp209
a(I4771
I5500
tp210
a(I4786
I5521
tp211
a(I4787
I5491
tp212
a(I4823
I5568
tp213
a(I4758
I5492
tp214
a(I4757
I5310
tp215
a(I4777
I5515
tp216
a(I4735
I5629
tp217
a(I4780
I5467
tp218
a(I4854
I5380
tp219
a(I4827
I5444
tp220
a(I4791
I5487
tp221
a(I4791
I5469
tp222
a(I4802
I5508
tp223
a(I4739
I5543
tp224
a(I4912
I5631
tp225
a(I4824
I5537
tp226
a(I4747
I5386
tp227
a(I4796
I5521
tp228
a(I4929
I5413
tp229
a(I1690
I5435
tp230
a(I1907
I5473
tp231
a(I1761
I5459
tp232
a(I1936
I5668
tp233
a(I1900
I5544
tp234
a(I1845
I5536
tp235
a(I1902
I5506
tp236
a(I1874
I5570
tp237
a(I1829
I5492
tp238
a(I1844
I5519
tp239
a(I1900
I5565
tp240
a(I1905
I5628
tp241
a(I1835
I5383
tp242
a(I1911
I5454
tp243
a(I1915
I5496
tp244
a(I1991
I5579
tp245
a(I1853
I5429
tp246
a(I1914
I5505
tp247
a(I1817
I5481
tp248
a(I1918
I5509
tp249
a(I2001
I5626
tp250
a(I1991
I5433
tp251
a(I1875
I5521
tp252
a(I1916
I5435
tp253
a(I1938
I5502
tp254
a(I1911
I5499
tp255
a(I1917
I5490
tp256
a(I1765
I5370
tp257
a(I1883
I5516
tp258
a(I1911
I5516
tp259
a(I1810
I5404
tp260
a(I1894
I5511
tp261
a.