(lp0
(I3122
I3304
tp1
a(I3055
I3426
tp2
a(I3203
I3459
tp3
a(I3085
I3380
tp4
a(I3192
I3327
tp5
a(I3022
I3479
tp6
a(I3107
I3416
tp7
a(I3064
I3416
tp8
a(I3249
I3441
tp9
a(I3028
I3418
tp10
a(I3065
I3373
tp11
a(I3045
I3173
tp12
a(I3051
I3425
tp13
a(I3200
I3387
tp14
a(I3068
I3352
tp15
a(I3010
I3438
tp16
a(I3205
I3597
tp17
a(I3055
I3429
tp18
a(I2982
I3430
tp19
a(I2972
I3337
tp20
a(I3028
I3478
tp21
a(I3045
I3352
tp22
a(I3042
I3312
tp23
a(I2987
I3404
tp24
a(I3001
I3442
tp25
a(I3121
I3387
tp26
a(I3049
I3322
tp27
a(I2908
I3492
tp28
a(I3133
I3395
tp29
a(I3041
I3383
tp30
a(I3099
I3383
tp31
a(I3062
I3400
tp32
a(I3051
I3510
tp33
a(I3174
I3454
tp34
a(I3069
I3421
tp35
a(I3096
I3490
tp36
a(I1088
I5687
tp37
a(I1167
I5787
tp38
a(I1191
I5704
tp39
a(I1157
I5525
tp40
a(I1142
I5666
tp41
a(I1119
I5673
tp42
a(I1114
I5677
tp43
a(I1132
I5587
tp44
a(I1120
I5671
tp45
a(I1096
I5670
tp46
a(I992
I5612
tp47
a(I1245
I5608
tp48
a(I1307
I5607
tp49
a(I885
I5476
tp50
a(I1298
I5735
tp51
a(I1097
I5644
tp52
a(I1130
I5663
tp53
a(I1130
I5672
tp54
a(I1054
I5746
tp55
a(I1193
I5629
tp56
a(I1066
I5660
tp57
a(I987
I5737
tp58
a(I1315
I5897
tp59
a(I1173
I5810
tp60
a(I1140
I5636
tp61
a(I1046
I5757
tp62
a(I1154
I5708
tp63
a(I1247
I5654
tp64
a(I1218
I5710
tp65
a(I1045
I5780
tp66
a(I1180
I5507
tp67
a(I1069
I5676
tp68
a(I1149
I5785
tp69
a(I1266
I5620
tp70
a(I1118
I5671
tp71
a(I1054
I5683
tp72
a(I1432
I5703
tp73
a(I1087
I5660
tp74
a(I942
I5936
tp75
a(I997
I5483
tp76
a(I1116
I5716
tp77
a(I1010
I5634
tp78
a(I949
I5684
tp79
a(I1154
I5869
tp80
a(I1045
I5596
tp81
a(I1119
I5694
tp82
a(I2954
I3096
tp83
a(I2958
I3106
tp84
a(I3116
I2926
tp85
a(I3063
I3043
tp86
a(I2773
I2998
tp87
a(I2928
I2991
tp88
a(I2954
I3085
tp89
a(I2945
I3014
tp90
a(I2780
I3163
tp91
a(I2946
I3084
tp92
a(I2898
I3059
tp93
a(I2865
I3103
tp94
a(I2912
I3091
tp95
a(I2962
I3217
tp96
a(I2928
I3046
tp97
a(I2905
I3067
tp98
a(I3012
I3153
tp99
a(I2922
I3136
tp100
a(I2920
I3023
tp101
a(I3118
I2975
tp102
a(I3018
I3082
tp103
a(I2924
I3105
tp104
a(I2860
I2953
tp105
a(I2999
I3067
tp106
a(I2952
I3102
tp107
a(I2937
I3195
tp108
a(I2896
I2908
tp109
a(I3084
I2900
tp110
a(I2919
I3040
tp111
a(I2942
I3106
tp112
a(I2921
I3160
tp113
a(I3009
I3081
tp114
a(I2962
I3061
tp115
a(I2985
I3141
tp116
a(I3014
I3155
tp117
a(I2958
I3075
tp118
a(I2900
I3214
tp119
a(I3141
I2976
tp120
a(I2899
I3139
tp121
a(I3021
I3116
tp122
a(I2957
I3309
tp123
a(I2905
I3019
tp124
a(I2962
I3164
tp125
a(I3103
I3171
tp126
a(I2893
I3036
tp127
a(I2948
I3095
tp128
a(I2120
I3233
tp129
a(I2152
I3316
tp130
a(I2109
I3277
tp131
a(I2103
I3358
tp132
a(I2087
I3359
tp133
a(I2084
I3362
tp134
a(I2133
I3324
tp135
a(I2083
I3372
tp136
a(I2048
I3270
tp137
a(I2088
I3359
tp138
a(I1961
I3470
tp139
a(I2084
I3362
tp140
a(I2021
I3281
tp141
a(I2073
I3379
tp142
a(I2063
I3254
tp143
a(I2081
I3349
tp144
a(I2083
I3383
tp145
a(I2048
I3514
tp146
a(I2211
I3359
tp147
a(I2082
I3371
tp148
a(I2066
I3323
tp149
a(I2080
I3370
tp150
a(I2057
I3351
tp151
a(I2132
I3372
tp152
a(I2992
I4355
tp153
a(I3142
I4430
tp154
a(I2999
I4335
tp155
a(I2975
I4395
tp156
a(I2947
I4291
tp157
a(I3007
I4329
tp158
a(I3017
I4369
tp159
a(I2967
I4330
tp160
a(I3225
I4276
tp161
a(I3235
I4246
tp162
a(I3024
I4424
tp163
a(I2917
I4305
tp164
a(I2975
I4487
tp165
a(I3056
I4397
tp166
a(I3062
I4504
tp167
a(I3042
I4319
tp168
a(I3037
I4425
tp169
a(I2960
I4387
tp170
a(I2927
I4464
tp171
a(I3049
I4251
tp172
a(I3046
I4402
tp173
a(I2999
I4377
tp174
a(I3232
I4355
tp175
a(I2889
I4328
tp176
a(I2899
I4258
tp177
a(I3116
I4228
tp178
a(I3019
I4355
tp179
a(I2906
I4297
tp180
a(I3203
I4426
tp181
a(I2992
I4289
tp182
a(I3041
I4291
tp183
a(I3796
I3810
tp184
a(I3827
I3970
tp185
a(I3690
I3763
tp186
a(I3730
I3832
tp187
a(I3780
I3786
tp188
a(I3800
I3814
tp189
a(I3805
I3790
tp190
a(I3892
I3818
tp191
a(I3734
I3645
tp192
a(I3890
I3711
tp193
a(I3921
I3722
tp194
a(I3761
I3796
tp195
a(I3915
I3843
tp196
a(I3827
I3769
tp197
a(I3706
I3744
tp198
a(I3936
I3768
tp199
a(I3752
I3840
tp200
a(I3790
I3860
tp201
a(I3810
I3795
tp202
a(I3801
I3777
tp203
a(I3837
I3817
tp204
a(I3608
I3820
tp205
a(I3633
I3889
tp206
a(I3877
I3754
tp207
a(I3752
I3794
tp208
a(I3669
I3773
tp209
a(I3769
I3881
tp210
a(I3871
I3761
tp211
a(I3898
I3628
tp212
a(I3851
I3833
tp213
a(I3693
I3768
tp214
a(I3818
I3659
tp215
a(I3781
I3788
tp216
a(I3773
I3783
tp217
a(I3805
I3841
tp218
a(I3721
I3698
tp219
a(I4891
I4567
tp220
a(I4906
I4682
tp221
a(I4792
I4684
tp222
a(I4955
I4480
tp223
a(I4865
I4624
tp224
a(I4991
I4467
tp225
a(I5019
I4413
tp226
a(I4905
I4466
tp227
a(I4980
I4473
tp228
a(I4690
I4497
tp229
a(I4898
I4548
tp230
a(I4908
I4376
tp231
a(I4889
I4607
tp232
a(I4991
I4394
tp233
a(I4878
I4555
tp234
a(I4954
I4544
tp235
a(I4817
I4744
tp236
a(I5049
I4748
tp237
a(I5073
I4397
tp238
a(I4856
I4477
tp239
a(I4655
I4455
tp240
a(I4835
I4697
tp241
a(I4987
I4518
tp242
a(I4940
I4508
tp243
a(I4931
I4575
tp244
a(I4918
I4523
tp245
a(I5122
I4501
tp246
a(I5028
I4430
tp247
a(I4943
I4510
tp248
a(I4934
I4519
tp249
a(I4919
I4527
tp250
a.