(lp0
(I3064
I3425
tp1
a(I3064
I3425
tp2
a(I3064
I3425
tp3
a(I2952
I3102
tp4
a(I2952
I3102
tp5
a(I2952
I3102
tp6
a(I2952
I3102
tp7
a(I2088
I3360
tp8
a(I3019
I4345
tp9
a(I3019
I4345
tp10
a(I3019
I4345
tp11
a(I3805
I3790
tp12
a(I3805
I3790
tp13
a(I3805
I3790
tp14
a(I4919
I4529
tp15
a(I4919
I4529
tp16
a(I4919
I4529
tp17
a.