(lp0
(lp1
(I2847
I5422
tp2
a(I3274
I3384
tp3
a(I2588
I3138
tp4
aa(lp5
g2
a(I1251
I3744
tp6
a(I1318
I4728
tp7
a(I2089
I3969
tp8
aa(lp9
g2
ag3
ag7
ag6
ag4
ag8
aa(lp10
g2
ag7
ag3
ag4
aa(lp11
g2
ag8
ag6
ag6
ag7
ag8
aa(lp12
g2
ag3
ag4
ag8
aa(lp13
g2
ag3
ag7
ag4
ag6
aa(lp14
g2
ag8
ag4
aa(lp15
g2
ag6
ag7
ag3
ag7
aa(lp16
g2
ag3
ag4
ag6
ag8
aa(lp17
g2
ag3
ag6
ag4
ag7
aa(lp18
g2
ag8
ag8
ag6
aa(lp19
g2
ag7
ag4
ag3
aa(lp20
g2
ag3
ag7
aa(lp21
g2
ag4
ag6
aa(lp22
g2
ag8
ag7
ag8
aa(lp23
g2
ag4
ag3
ag6
aa(lp24
g2
ag3
ag8
ag4
aa(lp25
g2
ag7
ag6
ag8
ag3
aa(lp26
g2
ag7
ag6
ag4
ag6
ag8
aa(lp27
g2
ag7
ag3
aa(lp28
g2
ag4
ag3
ag6
ag7
ag8
aa(lp29
g2
ag4
ag3
aa(lp30
g2
ag8
ag7
ag6
aa(lp31
g2
ag4
ag3
ag8
ag6
ag7
aa(lp32
g2
ag4
ag7
ag3
ag6
ag8
aa(lp33
g2
ag4
ag7
ag6
aa(lp34
g2
ag8
ag4
aa(lp35
g2
ag3
ag8
aa(lp36
g2
ag4
ag3
aa.