(dp0
I220
(lp1
I0
aI3
aI4
asI221
(lp2
I0
aI2
aI1
aI5
asI222
(lp3
I0
aI3
aI1
aI2
aI4
aI5
asI223
(lp4
I0
aI1
aI3
aI4
asI224
(lp5
I0
aI5
aI2
aI2
aI1
aI5
asI225
(lp6
I0
aI3
aI4
aI5
asI226
(lp7
I0
aI3
aI1
aI4
aI2
asI227
(lp8
I0
aI5
aI4
asI228
(lp9
I0
aI2
aI1
aI3
aI1
asI229
(lp10
I0
aI3
aI4
aI2
aI5
asI230
(lp11
I0
aI3
aI2
aI4
aI1
asI231
(lp12
I0
aI5
aI5
aI2
asI232
(lp13
I0
aI1
aI4
aI3
asI233
(lp14
I0
aI3
aI1
asI234
(lp15
I0
aI4
aI2
asI235
(lp16
I0
aI5
aI1
aI5
asI236
(lp17
I0
aI4
aI3
aI2
asI237
(lp18
I0
aI3
aI5
aI4
asI238
(lp19
I0
aI1
aI2
aI5
aI3
asI239
(lp20
I0
aI1
aI2
aI4
aI2
aI5
asI240
(lp21
I0
aI1
aI3
asI241
(lp22
I0
aI4
aI3
aI2
aI1
aI5
asI242
(lp23
I0
aI4
aI3
asI243
(lp24
I0
aI5
aI1
aI2
asI244
(lp25
I0
aI4
aI3
aI5
aI2
aI1
asI245
(lp26
I0
aI4
aI1
aI3
aI2
aI5
asI246
(lp27
I0
aI4
aI1
aI2
asI247
(lp28
I0
aI5
aI4
asI248
(lp29
I0
aI3
aI5
asI249
(lp30
I0
aI4
aI3
as.