(dp0
I256
(lp1
I0
aI5
aI3
asI257
(lp2
I0
aI1
aI4
asI258
(lp3
I0
aI5
aI4
asI229
(lp4
I0
aI1
asI230
(lp5
I0
aI4
asI231
(lp6
I0
aI2
aI5
aI3
asI232
(lp7
I0
aI4
asI233
(lp8
I0
aI3
asI234
(lp9
I0
aI2
aI5
asI235
(lp10
I0
aI1
aI4
aI2
asI236
(lp11
I0
aI1
asI237
(lp12
I0
aI5
aI3
aI3
asI238
(lp13
I0
aI4
aI1
aI5
asI239
(lp14
I0
aI2
aI1
asI240
(lp15
I0
aI2
aI5
aI4
asI241
(lp16
I0
aI3
aI4
asI242
(lp17
I0
aI3
asI243
(lp18
I0
aI2
asI244
(lp19
I0
aI5
aI1
aI5
asI245
(lp20
I0
aI2
aI3
aI4
asI246
(lp21
I0
aI1
aI2
asI247
(lp22
I0
aI4
aI1
aI3
asI248
(lp23
I0
aI5
aI4
aI2
asI249
(lp24
I0
aI5
aI1
asI250
(lp25
I0
aI3
asI251
(lp26
I0
aI5
asI252
(lp27
I0
aI1
aI4
asI253
(lp28
I0
aI2
aI3
aI2
asI254
(lp29
I0
aI4
aI5
asI255
(lp30
I0
aI1
aI3
aI2
as.