(lp0
(I1935
I5831
tp1
a(I1871
I5837
tp2
a(I1855
I5841
tp3
a(I1944
I5944
tp4
a(I1858
I5807
tp5
a(I1866
I5834
tp6
a(I1871
I5834
tp7
a(I1887
I5830
tp8
a(I1938
I5895
tp9
a(I2043
I5937
tp10
a(I1922
I5815
tp11
a(I1908
I5880
tp12
a(I1962
I5808
tp13
a(I1737
I5749
tp14
a(I1953
I5665
tp15
a(I1872
I5820
tp16
a(I1849
I5839
tp17
a(I1853
I5827
tp18
a(I1971
I5795
tp19
a(I1967
I5862
tp20
a(I1770
I5752
tp21
a(I1954
I5869
tp22
a(I1958
I5853
tp23
a(I1662
I5706
tp24
a(I1933
I5869
tp25
a(I1961
I5927
tp26
a(I1856
I6074
tp27
a(I1861
I5872
tp28
a(I1875
I5879
tp29
a(I1844
I5877
tp30
a(I1906
I5815
tp31
a(I4934
I5472
tp32
a(I4875
I5515
tp33
a(I4946
I5515
tp34
a(I4871
I5528
tp35
a(I4918
I5506
tp36
a(I4887
I5516
tp37
a(I4882
I5429
tp38
a(I4965
I5565
tp39
a(I4949
I5585
tp40
a(I4988
I5582
tp41
a(I4891
I5515
tp42
a(I4933
I5412
tp43
a(I4933
I5611
tp44
a(I5047
I5491
tp45
a(I4916
I5502
tp46
a(I4938
I5537
tp47
a(I4783
I5581
tp48
a(I4851
I5603
tp49
a(I4962
I5576
tp50
a(I4901
I5577
tp51
a(I4852
I5496
tp52
a(I4788
I5452
tp53
a(I4890
I5523
tp54
a(I4913
I5548
tp55
a(I4945
I5646
tp56
a(I4896
I5543
tp57
a(I4878
I5676
tp58
a(I4922
I5531
tp59
a(I4875
I5515
tp60
a(I4849
I5482
tp61
a(I4886
I5501
tp62
a(I4908
I5599
tp63
a(I4925
I5520
tp64
a(I4883
I5523
tp65
a(I4934
I5538
tp66
a(I4926
I5544
tp67
a(I5004
I5428
tp68
a(I4757
I5506
tp69
a(I4872
I5564
tp70
a(I4845
I5506
tp71
a(I4819
I5582
tp72
a(I1436
I3027
tp73
a(I1567
I3128
tp74
a(I1650
I3155
tp75
a(I1448
I3066
tp76
a(I1458
I3051
tp77
a(I1588
I3070
tp78
a(I1461
I3085
tp79
a(I1538
I3185
tp80
a(I1497
I3102
tp81
a(I1498
I3047
tp82
a(I1553
I3081
tp83
a(I1388
I3024
tp84
a(I1480
I3124
tp85
a(I1503
I3077
tp86
a(I1418
I3110
tp87
a(I1542
I3135
tp88
a(I1373
I3094
tp89
a(I1551
I3058
tp90
a(I1399
I3063
tp91
a(I1466
I2880
tp92
a(I1640
I2921
tp93
a(I1581
I3153
tp94
a(I1640
I3050
tp95
a(I1508
I3216
tp96
a(I1486
I2982
tp97
a(I1532
I3209
tp98
a(I1477
I3143
tp99
a(I1571
I2899
tp100
a(I1489
I3064
tp101
a(I1496
I3075
tp102
a(I1540
I3121
tp103
a(I1490
I3064
tp104
a(I1502
I3054
tp105
a(I1510
I3079
tp106
a(I1578
I3173
tp107
a(I1463
I3115
tp108
a(I1501
I3090
tp109
a(I1518
I3109
tp110
a(I1512
I3024
tp111
a(I1560
I3068
tp112
a(I1424
I3087
tp113
a(I1367
I3050
tp114
a(I1546
I3151
tp115
a(I1495
I3070
tp116
a(I1546
I3081
tp117
a(I4472
I3183
tp118
a(I4527
I3174
tp119
a(I4437
I3048
tp120
a(I4499
I3245
tp121
a(I4625
I3400
tp122
a(I4382
I3257
tp123
a(I4516
I3245
tp124
a(I4477
I3296
tp125
a(I4496
I3226
tp126
a(I4595
I3292
tp127
a(I4499
I3464
tp128
a(I4523
I3300
tp129
a(I4399
I3355
tp130
a(I4516
I3237
tp131
a(I4492
I3273
tp132
a(I4540
I3263
tp133
a(I4483
I3323
tp134
a(I4491
I3250
tp135
a(I4454
I3251
tp136
a(I4520
I3260
tp137
a(I4481
I3110
tp138
a(I4629
I3342
tp139
a(I4354
I3320
tp140
a(I4599
I3372
tp141
a(I4492
I3250
tp142
a(I4639
I3281
tp143
a(I4532
I3365
tp144
a(I4468
I3226
tp145
a(I4488
I3259
tp146
a(I4435
I3317
tp147
a(I4566
I3295
tp148
a(I4440
I3359
tp149
a(I4548
I3185
tp150
a(I4478
I3164
tp151
a(I4398
I3292
tp152
a(I4470
I3210
tp153
a(I4323
I3284
tp154
a(I4533
I3245
tp155
a(I4513
I3146
tp156
a(I4596
I3316
tp157
a(I4625
I3288
tp158
a(I4551
I3155
tp159
a(I4499
I3230
tp160
a(I4583
I3270
tp161
a(I4629
I3249
tp162
a(I4434
I3242
tp163
a(I4396
I3386
tp164
a(I4397
I3388
tp165
a(I4609
I3414
tp166
a(I4453
I3232
tp167
a(I2595
I5337
tp168
a(I2520
I5231
tp169
a(I2601
I5262
tp170
a(I2332
I5106
tp171
a(I2795
I5230
tp172
a(I2610
I5277
tp173
a(I2555
I5263
tp174
a(I2566
I5241
tp175
a(I2552
I5329
tp176
a(I2570
I5235
tp177
a(I2623
I5306
tp178
a(I2676
I5396
tp179
a(I2565
I5247
tp180
a(I2524
I5255
tp181
a(I2603
I5239
tp182
a(I2604
I5436
tp183
a(I2538
I5161
tp184
a(I2500
I5160
tp185
a(I2528
I5264
tp186
a(I2586
I5266
tp187
a(I2493
I5285
tp188
a(I2636
I5234
tp189
a(I2498
I5238
tp190
a(I2666
I5109
tp191
a(I2527
I5175
tp192
a(I2754
I5241
tp193
a(I2527
I5328
tp194
a(I2477
I4996
tp195
a(I2608
I5196
tp196
a(I2513
I5272
tp197
a(I2571
I5134
tp198
a(I2556
I5247
tp199
a(I2437
I5283
tp200
a(I2565
I5295
tp201
a(I2656
I5120
tp202
a(I2368
I5244
tp203
a(I2539
I5209
tp204
a(I2571
I5215
tp205
a(I2565
I5346
tp206
a(I2549
I5313
tp207
a(I2751
I5338
tp208
a(I2487
I5181
tp209
a(I2628
I5201
tp210
a(I2554
I5200
tp211
a(I2412
I5320
tp212
a(I2523
I5287
tp213
a(I2617
I5175
tp214
a.