(lp0
(I1287
I4807
tp1
a(I1467
I4723
tp2
a(I1285
I4770
tp3
a(I1563
I4541
tp4
a(I1349
I4590
tp5
a(I1233
I4660
tp6
a(I1277
I4708
tp7
a(I1134
I4646
tp8
a(I1350
I4772
tp9
a(I1377
I4507
tp10
a(I1267
I4722
tp11
a(I1442
I4848
tp12
a(I1175
I4808
tp13
a(I1332
I4749
tp14
a(I1402
I4759
tp15
a(I1337
I4772
tp16
a(I1294
I4415
tp17
a(I1320
I4661
tp18
a(I1326
I4789
tp19
a(I1239
I4810
tp20
a(I1263
I4809
tp21
a(I1449
I4488
tp22
a(I1221
I4774
tp23
a(I1257
I4791
tp24
a(I1416
I4735
tp25
a(I1340
I4699
tp26
a(I1330
I4722
tp27
a(I1301
I4639
tp28
a(I1347
I4724
tp29
a(I1364
I4614
tp30
a(I1409
I4526
tp31
a(I1342
I4727
tp32
a(I1349
I4737
tp33
a(I1304
I4786
tp34
a(I1268
I4781
tp35
a(I1234
I4790
tp36
a(I1256
I3741
tp37
a(I1262
I3724
tp38
a(I1260
I3669
tp39
a(I1281
I3683
tp40
a(I1294
I3718
tp41
a(I1249
I3785
tp42
a(I1259
I3736
tp43
a(I1264
I3765
tp44
a(I1229
I3756
tp45
a(I1203
I3703
tp46
a(I1276
I3711
tp47
a(I1142
I3724
tp48
a(I1256
I3783
tp49
a(I1148
I3665
tp50
a(I1343
I3694
tp51
a(I1358
I3844
tp52
a(I1223
I3771
tp53
a(I1126
I3670
tp54
a(I1395
I3664
tp55
a(I1281
I3724
tp56
a(I1270
I3691
tp57
a(I1109
I3684
tp58
a(I1256
I3732
tp59
a(I1228
I3746
tp60
a(I1472
I3774
tp61
a(I1249
I3741
tp62
a(I1232
I3663
tp63
a(I1236
I3742
tp64
a(I1313
I3819
tp65
a(I1265
I3745
tp66
a(I1251
I3744
tp67
a(I1061
I3859
tp68
a(I1125
I3771
tp69
a(I1188
I3555
tp70
a(I1192
I3764
tp71
a(I1222
I3625
tp72
a(I1410
I3764
tp73
a(I1174
I3763
tp74
a(I1272
I3755
tp75
a(I1237
I3769
tp76
a(I1251
I3744
tp77
a(I3196
I3605
tp78
a(I3285
I3371
tp79
a(I3301
I3265
tp80
a(I3334
I3419
tp81
a(I3072
I3411
tp82
a(I3415
I3376
tp83
a(I3388
I3417
tp84
a(I3158
I3429
tp85
a(I3289
I3316
tp86
a(I3317
I3367
tp87
a(I3325
I3375
tp88
a(I3340
I3217
tp89
a(I3196
I3324
tp90
a(I3193
I3321
tp91
a(I3274
I3366
tp92
a(I3342
I3578
tp93
a(I3275
I3451
tp94
a(I3488
I3472
tp95
a(I3348
I3283
tp96
a(I3285
I3553
tp97
a(I3478
I3235
tp98
a(I3227
I3559
tp99
a(I3404
I3403
tp100
a(I3161
I3257
tp101
a(I3529
I3354
tp102
a(I3261
I3419
tp103
a(I3377
I3293
tp104
a(I3313
I3315
tp105
a(I3241
I3499
tp106
a(I3291
I3370
tp107
a(I3303
I3333
tp108
a(I3277
I3388
tp109
a(I3202
I3520
tp110
a(I3232
I3346
tp111
a(I3349
I3282
tp112
a(I3248
I3394
tp113
a(I3414
I3241
tp114
a(I2721
I3046
tp115
a(I2585
I3089
tp116
a(I2583
I3141
tp117
a(I2553
I3089
tp118
a(I2540
I3133
tp119
a(I2555
I3142
tp120
a(I2581
I3124
tp121
a(I2713
I3110
tp122
a(I2695
I3296
tp123
a(I2600
I3153
tp124
a(I2584
I3108
tp125
a(I2521
I3104
tp126
a(I2595
I3141
tp127
a(I2534
I3107
tp128
a(I2666
I3091
tp129
a(I2566
I3062
tp130
a(I2619
I3272
tp131
a(I2603
I3124
tp132
a(I2623
I3192
tp133
a(I2601
I3151
tp134
a(I2625
I3239
tp135
a(I2547
I3171
tp136
a(I2585
I3129
tp137
a(I2413
I3157
tp138
a(I2530
I3100
tp139
a(I2611
I3108
tp140
a(I2547
I3239
tp141
a(I2569
I3159
tp142
a(I2624
I3124
tp143
a(I2576
I3037
tp144
a(I2603
I3125
tp145
a(I2553
I3239
tp146
a(I2688
I3064
tp147
a(I2624
I3000
tp148
a(I2616
I3093
tp149
a(I2509
I3213
tp150
a(I2581
I3146
tp151
a(I2504
I3166
tp152
a(I2564
I3127
tp153
a(I2580
I3114
tp154
a(I2559
I3168
tp155
a(I2630
I3225
tp156
a(I2572
I3190
tp157
a(I2627
I3204
tp158
a(I2081
I3958
tp159
a(I2006
I3892
tp160
a(I2149
I3928
tp161
a(I2150
I4178
tp162
a(I2086
I3945
tp163
a(I2077
I3972
tp164
a(I2089
I3970
tp165
a(I2233
I4035
tp166
a(I2092
I3994
tp167
a(I2156
I3936
tp168
a(I2092
I3835
tp169
a(I2075
I3937
tp170
a(I2135
I3929
tp171
a(I1901
I3917
tp172
a(I1995
I3920
tp173
a(I2128
I3898
tp174
a(I2295
I4095
tp175
a(I2261
I3989
tp176
a(I1952
I4020
tp177
a(I2064
I4024
tp178
a(I2048
I4029
tp179
a(I2099
I3864
tp180
a(I2213
I3986
tp181
a(I1946
I4001
tp182
a(I2091
I3964
tp183
a(I2029
I3924
tp184
a(I2256
I4023
tp185
a(I2016
I3976
tp186
a(I2047
I3880
tp187
a(I2121
I3978
tp188
a(I2108
I4156
tp189
a(I2062
I3879
tp190
a(I2088
I3969
tp191
a(I2091
I3968
tp192
a(I2014
I3963
tp193
a(I2245
I3995
tp194
a(I2090
I3969
tp195
a.