(lp0
(I1318
I4728
tp1
a(I1318
I4728
tp2
a(I1318
I4728
tp3
a(I1318
I4728
tp4
a(I1318
I4728
tp5
a(I1251
I3744
tp6
a(I1251
I3744
tp7
a(I1251
I3744
tp8
a(I1251
I3744
tp9
a(I3274
I3384
tp10
a(I3274
I3384
tp11
a(I3274
I3384
tp12
a(I3274
I3384
tp13
a(I3274
I3384
tp14
a(I2588
I3138
tp15
a(I2089
I3969
tp16
a(I2089
I3969
tp17
a(I2089
I3969
tp18
a(I2089
I3969
tp19
a.