(dp0
I0
(lp1
I256
aI257
aI258
aI259
aI260
aI261
aI262
aI263
aI264
aI265
aI266
aI267
aI268
aI269
aI270
aI271
aI272
aI273
aI274
aI275
aI276
aI277
aI278
aI279
aI280
aI281
aI282
aI283
aI254
aI255
asI1
(lp2
I256
aI257
aI260
aI263
aI267
aI272
aI276
aI278
asI2
(lp3
I259
aI260
aI266
aI269
aI275
aI276
aI278
aI280
aI255
asI3
(lp4
I256
aI259
aI262
aI265
aI268
aI274
aI277
aI279
aI282
asI4
(lp5
I256
aI257
aI259
aI266
aI270
aI272
aI277
aI280
asI5
(lp6
I258
aI261
aI263
aI271
aI273
aI275
aI280
aI282
aI255
asI6
(lp7
I258
aI263
aI264
aI266
aI273
aI276
aI279
aI283
aI254
asI7
(lp8
I257
aI262
aI265
aI272
aI275
aI278
aI279
aI281
aI254
as.