(dp0
I256
(lp1
I0
aI3
aI1
aI4
asI257
(lp2
I0
aI7
aI1
aI4
asI258
(lp3
I0
aI6
aI5
asI259
(lp4
I0
aI2
aI3
aI4
asI260
(lp5
I0
aI1
aI2
asI261
(lp6
I0
aI5
asI262
(lp7
I0
aI3
aI7
asI263
(lp8
I0
aI6
aI5
aI1
asI264
(lp9
I0
aI6
asI265
(lp10
I0
aI7
aI3
asI266
(lp11
I0
aI4
aI2
aI6
asI267
(lp12
I0
aI1
asI268
(lp13
I0
aI3
asI269
(lp14
I0
aI2
asI270
(lp15
I0
aI4
asI271
(lp16
I0
aI5
asI272
(lp17
I0
aI7
aI1
aI4
asI273
(lp18
I0
aI6
aI5
asI274
(lp19
I0
aI3
asI275
(lp20
I0
aI2
aI7
aI5
asI276
(lp21
I0
aI2
aI6
aI1
asI277
(lp22
I0
aI4
aI3
asI278
(lp23
I0
aI7
aI2
aI1
asI279
(lp24
I0
aI6
aI7
aI3
asI280
(lp25
I0
aI5
aI4
aI2
asI281
(lp26
I0
aI7
asI282
(lp27
I0
aI5
aI3
asI283
(lp28
I0
aI6
asI254
(lp29
I0
aI7
aI6
asI255
(lp30
I0
aI5
aI2
as.