(lp0
(lp1
(I2722
I5392
tp2
a(I3763
I4539
tp3
a(I1243
I3366
tp4
aa(lp5
g2
a(I2826
I4133
tp6
a(I2697
I3488
tp7
aa(lp8
g2
a(I1155
I5130
tp9
a(I4421
I4148
tp10
a(I2568
I3312
tp11
aa(lp12
g2
ag3
ag10
ag11
aa(lp13
g2
ag4
ag6
aa(lp14
g2
ag7
ag9
ag11
aa(lp15
g2
ag10
ag7
aa(lp16
g2
ag6
aa(lp17
g2
ag9
ag3
aa(lp18
g2
ag4
ag6
ag10
aa(lp19
g2
ag4
aa(lp20
g2
ag3
ag9
aa(lp21
g2
ag11
ag7
ag4
aa(lp22
g2
ag10
aa(lp23
g2
ag9
aa(lp24
g2
ag7
aa(lp25
g2
ag11
aa(lp26
g2
ag6
aa(lp27
g2
ag3
ag10
ag11
aa(lp28
g2
ag4
ag6
aa(lp29
g2
ag9
aa(lp30
g2
ag7
ag3
ag6
aa(lp31
g2
ag7
ag4
ag10
aa(lp32
g2
ag11
ag9
aa(lp33
g2
ag3
ag7
ag10
aa(lp34
g2
ag4
ag3
ag9
aa(lp35
g2
ag6
ag11
ag7
aa(lp36
g2
ag3
aa(lp37
g2
ag6
ag9
aa(lp38
g2
ag4
aa.