(lp0
(I4428
I4172
tp1
a(I4414
I4185
tp2
a(I4386
I4252
tp3
a(I4379
I4147
tp4
a(I4579
I4166
tp5
a(I4450
I4327
tp6
a(I4449
I4128
tp7
a(I4305
I4013
tp8
a(I4338
I3998
tp9
a(I4446
I4137
tp10
a(I4569
I4139
tp11
a(I4269
I4177
tp12
a(I4487
I4052
tp13
a(I4435
I4328
tp14
a(I4118
I4159
tp15
a(I4443
I4123
tp16
a(I4430
I4144
tp17
a(I4416
I4141
tp18
a(I4511
I4258
tp19
a(I4584
I4049
tp20
a(I4410
I4196
tp21
a(I4511
I4214
tp22
a(I4654
I4119
tp23
a(I4262
I4145
tp24
a(I4288
I4101
tp25
a(I4559
I4061
tp26
a(I4404
I4142
tp27
a(I4290
I4136
tp28
a(I4229
I4304
tp29
a(I4416
I4168
tp30
a(I4434
I4099
tp31
a(I2716
I3474
tp32
a(I2701
I3477
tp33
a(I2709
I3526
tp34
a(I2810
I3555
tp35
a(I2699
I3487
tp36
a(I2711
I3422
tp37
a(I2775
I3470
tp38
a(I2697
I3488
tp39
a(I2802
I3365
tp40
a(I2846
I3328
tp41
a(I2533
I3548
tp42
a(I2709
I3561
tp43
a(I2768
I3412
tp44
a(I2670
I3389
tp45
a(I2735
I3511
tp46
a(I2662
I3550
tp47
a(I2719
I3449
tp48
a(I2730
I3518
tp49
a(I2536
I3378
tp50
a(I2772
I3519
tp51
a(I2797
I3433
tp52
a(I2715
I3517
tp53
a(I2552
I3425
tp54
a(I2668
I3499
tp55
a(I2576
I3487
tp56
a(I2884
I3391
tp57
a(I2724
I3549
tp58
a(I2608
I3347
tp59
a(I2801
I3435
tp60
a(I2671
I3485
tp61
a(I2661
I3460
tp62
a(I1178
I5083
tp63
a(I1170
I5047
tp64
a(I1227
I4981
tp65
a(I1093
I5145
tp66
a(I1156
I5130
tp67
a(I1140
I5186
tp68
a(I1146
I5106
tp69
a(I990
I5133
tp70
a(I1092
I5117
tp71
a(I1170
I5124
tp72
a(I1155
I5174
tp73
a(I1063
I5125
tp74
a(I1148
I5137
tp75
a(I1135
I5029
tp76
a(I1152
I5084
tp77
a(I1299
I5001
tp78
a(I1139
I5129
tp79
a(I958
I5091
tp80
a(I1153
I5153
tp81
a(I1134
I5109
tp82
a(I1147
I5207
tp83
a(I1173
I5082
tp84
a(I1108
I5312
tp85
a(I1189
I5206
tp86
a(I1189
I5124
tp87
a(I1160
I5146
tp88
a(I1145
I5150
tp89
a(I1147
I5046
tp90
a(I1137
I5086
tp91
a(I1141
I5110
tp92
a(I1239
I5017
tp93
a(I1201
I5231
tp94
a(I1268
I5118
tp95
a(I1152
I5121
tp96
a(I1172
I5151
tp97
a(I1251
I5197
tp98
a(I1145
I5116
tp99
a(I1166
I5137
tp100
a(I1193
I5038
tp101
a(I2494
I3244
tp102
a(I2512
I3394
tp103
a(I2708
I3354
tp104
a(I2759
I3333
tp105
a(I2589
I3322
tp106
a(I2475
I3414
tp107
a(I2649
I3267
tp108
a(I2569
I3262
tp109
a(I2566
I3261
tp110
a(I2685
I3275
tp111
a(I2555
I3136
tp112
a(I2565
I3310
tp113
a(I2517
I3467
tp114
a(I2494
I3308
tp115
a(I2499
I3329
tp116
a(I2546
I3383
tp117
a(I2560
I3283
tp118
a(I2627
I3294
tp119
a(I2524
I3374
tp120
a(I2595
I3274
tp121
a(I2560
I3280
tp122
a(I2529
I3323
tp123
a(I2556
I3378
tp124
a(I2564
I3315
tp125
a(I2635
I3119
tp126
a(I2480
I3407
tp127
a(I2646
I3260
tp128
a(I2580
I3334
tp129
a(I2532
I3538
tp130
a(I2551
I3329
tp131
a(I2541
I3390
tp132
a(I2609
I3287
tp133
a(I2558
I3249
tp134
a(I2445
I3297
tp135
a(I2403
I3372
tp136
a(I2601
I3358
tp137
a(I2634
I3482
tp138
a(I2592
I3212
tp139
a(I2675
I3271
tp140
a(I2568
I3312
tp141
a(I2567
I3326
tp142
a(I2821
I4158
tp143
a(I2877
I4112
tp144
a(I2735
I4143
tp145
a(I2834
I4169
tp146
a(I2807
I4247
tp147
a(I2827
I4132
tp148
a(I2919
I4203
tp149
a(I2874
I4118
tp150
a(I2924
I4088
tp151
a(I2842
I4106
tp152
a(I2806
I4017
tp153
a(I2839
I4169
tp154
a(I2895
I4042
tp155
a(I2826
I4137
tp156
a(I2669
I4166
tp157
a(I2950
I4039
tp158
a(I2786
I4232
tp159
a(I2916
I4110
tp160
a(I2791
I4024
tp161
a(I2781
I4239
tp162
a(I2827
I4073
tp163
a(I2920
I4120
tp164
a(I2737
I4161
tp165
a(I2766
I4015
tp166
a(I2867
I4102
tp167
a(I2827
I4129
tp168
a(I2821
I4132
tp169
a(I2911
I4109
tp170
a(I2837
I4145
tp171
a(I2821
I4126
tp172
a(I2826
I4139
tp173
a(I1216
I3541
tp174
a(I1310
I3388
tp175
a(I1241
I3378
tp176
a(I1249
I3373
tp177
a(I1233
I3250
tp178
a(I1170
I3384
tp179
a(I1215
I3329
tp180
a(I1205
I3496
tp181
a(I1209
I3374
tp182
a(I1263
I3424
tp183
a(I1183
I3386
tp184
a(I1329
I3367
tp185
a(I1223
I3298
tp186
a(I1304
I3374
tp187
a(I1277
I3286
tp188
a(I1304
I3324
tp189
a(I1158
I3356
tp190
a(I1281
I3311
tp191
a(I1218
I3356
tp192
a(I1225
I3369
tp193
a(I1242
I3361
tp194
a(I1097
I3313
tp195
a(I1228
I3393
tp196
a(I1255
I3361
tp197
a(I1270
I3331
tp198
a(I1447
I3394
tp199
a(I1240
I3366
tp200
a(I1231
I3371
tp201
a(I1259
I3434
tp202
a(I1365
I3320
tp203
a(I3714
I4337
tp204
a(I3759
I4584
tp205
a(I3709
I4529
tp206
a(I3829
I4533
tp207
a(I3783
I4659
tp208
a(I3702
I4466
tp209
a(I3769
I4538
tp210
a(I3633
I4560
tp211
a(I3816
I4562
tp212
a(I3739
I4537
tp213
a(I3770
I4519
tp214
a(I3771
I4588
tp215
a(I3693
I4460
tp216
a(I3787
I4473
tp217
a(I3759
I4541
tp218
a(I3791
I4558
tp219
a(I3807
I4750
tp220
a(I3763
I4538
tp221
a(I3732
I4584
tp222
a(I3846
I4461
tp223
a(I3759
I4545
tp224
a(I3858
I4355
tp225
a(I3799
I4540
tp226
a(I3757
I4532
tp227
a(I3664
I4510
tp228
a(I3745
I4447
tp229
a(I3547
I4498
tp230
a(I3763
I4561
tp231
a(I3744
I4553
tp232
a(I3631
I4460
tp233
a.