(lp0
(I4421
I4148
tp1
a(I4421
I4148
tp2
a(I4421
I4148
tp3
a(I2697
I3488
tp4
a(I1155
I5130
tp5
a(I1155
I5130
tp6
a(I1155
I5130
tp7
a(I2568
I3312
tp8
a(I2568
I3312
tp9
a(I2826
I4133
tp10
a(I1243
I3366
tp11
a(I3763
I4539
tp12
a(I3763
I4539
tp13
a.