(dp0
I0
(lp1
I193
aI194
aI195
aI196
aI197
aI198
aI199
aI200
aI201
aI202
aI203
aI204
aI205
aI206
aI207
aI208
aI209
aI210
aI211
aI212
aI213
aI214
aI215
aI216
aI217
aI218
aI219
aI220
aI221
aI222
asI1
(lp2
I193
aI195
aI198
aI199
aI200
aI202
aI203
aI205
aI207
aI208
aI209
aI211
aI212
aI213
aI215
aI216
aI218
aI220
aI221
asI2
(lp3
I193
aI194
aI196
aI197
aI198
aI200
aI201
aI203
aI204
aI206
aI207
aI208
aI210
aI213
aI214
aI216
aI217
aI219
aI220
aI221
asI3
(lp4
I194
aI195
aI196
aI197
aI198
aI200
aI201
aI202
aI205
aI207
aI208
aI209
aI211
aI212
aI213
aI214
aI216
aI218
aI220
aI222
asI4
(lp5
I193
aI194
aI195
aI198
aI199
aI200
aI201
aI203
aI204
aI207
aI208
aI209
aI210
aI212
aI214
aI216
aI217
aI218
aI221
aI222
asI5
(lp6
I193
aI194
aI196
aI197
aI199
aI200
aI201
aI203
aI204
aI206
aI208
aI209
aI211
aI212
aI214
aI215
aI216
aI219
aI220
aI222
as.