(dp0
I0
(lp1
I142
aI143
aI144
aI145
aI146
aI147
aI148
aI149
aI150
aI151
aI152
aI153
aI154
aI155
aI156
aI157
aI158
aI159
aI160
aI161
aI162
aI163
aI164
aI165
aI166
aI167
aI168
aI169
aI170
aI171
asI1
(lp2
I142
aI143
aI144
aI145
aI147
aI149
aI150
aI151
aI153
aI154
aI155
aI156
aI158
aI159
aI160
aI162
aI163
aI165
aI166
aI168
aI169
aI170
asI2
(lp3
I142
aI143
aI145
aI146
aI147
aI149
aI151
aI152
aI153
aI156
aI157
aI158
aI160
aI162
aI164
aI165
aI166
aI167
aI168
aI171
asI3
(lp4
I142
aI143
aI144
aI146
aI147
aI148
aI150
aI152
aI153
aI155
aI157
aI158
aI159
aI160
aI162
aI164
aI165
aI166
aI168
aI169
aI170
asI4
(lp5
I142
aI143
aI144
aI146
aI148
aI150
aI151
aI153
aI154
aI155
aI156
aI158
aI161
aI163
aI164
aI165
aI166
aI168
aI170
aI171
asI5
(lp6
I142
aI143
aI144
aI146
aI147
aI149
aI150
aI151
aI152
aI154
aI155
aI156
aI157
aI160
aI161
aI164
aI165
aI167
aI168
aI169
aI170
as.