(dp0
I0
(lp1
I218
aI219
aI220
aI221
aI222
aI223
aI224
aI225
aI226
aI227
aI228
aI229
aI230
aI231
aI232
aI233
aI234
aI235
aI236
aI237
aI238
aI239
aI240
aI241
aI242
aI243
aI244
aI245
aI246
aI247
asI1
(lp2
I218
aI222
aI225
aI227
aI233
aI235
aI237
aI242
aI243
aI247
asI2
(lp3
I219
aI220
aI224
aI226
aI231
aI234
aI236
aI237
aI242
aI243
aI246
aI247
asI3
(lp4
I220
aI223
aI227
aI228
aI234
aI236
aI238
aI240
aI244
aI246
asI4
(lp5
I220
aI223
aI225
aI227
aI230
aI232
aI234
aI236
aI241
aI243
aI244
asI5
(lp6
I219
aI221
aI224
aI226
aI229
aI232
aI235
aI237
aI239
aI244
aI245
aI247
as.