(dp0
I0
(lp1
I186
aI187
aI188
aI189
aI190
aI191
aI192
aI193
aI194
aI195
aI196
aI197
aI198
aI199
aI200
aI201
aI202
aI203
aI204
aI205
aI206
aI207
aI208
aI209
aI210
aI211
aI212
aI213
aI214
aI215
asI1
(lp2
I186
aI188
aI193
aI194
aI196
aI198
aI201
aI205
aI207
aI208
aI210
aI215
asI2
(lp3
I187
aI190
aI192
aI194
aI196
aI200
aI202
aI205
aI208
aI209
aI210
aI213
asI3
(lp4
I186
aI189
aI191
aI195
aI197
aI199
aI203
aI204
aI206
aI209
aI210
aI214
asI4
(lp5
I186
aI191
aI193
aI194
aI198
aI202
aI206
aI207
aI209
aI211
aI212
asI5
(lp6
I188
aI190
aI192
aI195
aI197
aI200
aI201
aI205
aI207
aI208
aI212
aI214
as.