(dp0
I193
(lp1
I0
aI1
aI4
aI2
aI5
asI194
(lp2
I0
aI3
aI4
aI2
aI5
asI195
(lp3
I0
aI1
aI3
aI1
aI4
asI196
(lp4
I0
aI5
aI3
aI2
asI197
(lp5
I0
aI2
aI5
aI3
asI198
(lp6
I0
aI4
aI1
aI3
aI2
asI199
(lp7
I0
aI4
aI1
aI5
asI200
(lp8
I0
aI5
aI1
aI4
aI2
aI3
asI201
(lp9
I0
aI5
aI3
aI2
aI4
asI202
(lp10
I0
aI1
aI3
asI203
(lp11
I0
aI5
aI1
aI4
aI2
asI204
(lp12
I0
aI2
aI5
aI4
asI205
(lp13
I0
aI1
aI3
asI206
(lp14
I0
aI5
aI2
asI207
(lp15
I0
aI4
aI1
aI3
aI2
asI208
(lp16
I0
aI4
aI1
aI3
aI5
aI2
asI209
(lp17
I0
aI4
aI5
aI3
aI1
asI210
(lp18
I0
aI2
aI4
asI211
(lp19
I0
aI1
aI3
aI5
asI212
(lp20
I0
aI3
aI4
aI5
aI1
asI213
(lp21
I0
aI2
aI1
aI3
asI214
(lp22
I0
aI2
aI5
aI4
aI3
asI215
(lp23
I0
aI5
aI1
asI216
(lp24
I0
aI2
aI4
aI3
aI1
aI5
asI217
(lp25
I0
aI2
aI4
asI218
(lp26
I0
aI1
aI4
aI3
asI219
(lp27
I0
aI5
aI2
asI220
(lp28
I0
aI3
aI2
aI5
aI1
asI221
(lp29
I0
aI4
aI1
aI2
asI222
(lp30
I0
aI5
aI3
aI4
as.