(lp0
(lp1
(I2268
I4242
tp2
a(I2038
I3278
tp3
a(I3577
I3433
tp4
a(I4830
I5649
tp5
aa(lp6
g2
a(I3708
I4007
tp7
aa(lp8
g2
a(I2989
I5050
tp9
ag5
aa(lp10
g2
ag3
aa(lp11
g2
ag9
ag7
aa(lp12
g2
ag4
ag3
aa(lp13
g2
ag9
ag7
aa(lp14
g2
ag5
ag4
aa(lp15
g2
ag4
ag7
ag5
aa(lp16
g2
ag9
ag3
aa(lp17
g2
ag7
ag5
aa(lp18
g2
ag3
ag9
aa(lp19
g2
ag4
ag4
ag5
aa(lp20
g2
ag3
aa(lp21
g2
ag9
ag7
aa(lp22
g2
ag9
ag5
aa(lp23
g2
ag4
ag7
aa(lp24
g2
ag3
aa(lp25
g2
ag3
aa(lp26
g2
ag7
ag9
ag5
aa(lp27
g2
ag4
ag3
aa(lp28
g2
ag4
ag5
ag9
aa(lp29
g2
ag7
ag5
ag9
aa(lp30
g2
ag7
ag4
ag3
aa(lp31
g2
ag7
ag5
ag3
aa(lp32
g2
ag4
aa(lp33
g2
ag9
ag4
aa(lp34
g2
ag7
aa(lp35
g2
ag9
ag3
aa(lp36
g2
ag5
aa.