(dp0
I142
(lp1
I0
aI4
aI1
aI3
aI2
aI5
asI143
(lp2
I0
aI4
aI5
aI1
aI2
aI3
asI144
(lp3
I0
aI5
aI1
aI3
aI4
asI145
(lp4
I0
aI2
aI1
asI146
(lp5
I0
aI3
aI5
aI2
aI4
aI4
asI147
(lp6
I0
aI1
aI3
aI2
aI5
asI148
(lp7
I0
aI4
aI3
asI149
(lp8
I0
aI1
aI5
aI2
asI150
(lp9
I0
aI5
aI3
aI4
aI1
asI151
(lp10
I0
aI2
aI4
aI5
aI1
asI152
(lp11
I0
aI2
aI3
aI2
aI5
aI3
asI153
(lp12
I0
aI1
aI4
aI2
aI3
asI154
(lp13
I0
aI4
aI5
aI1
asI155
(lp14
I0
aI3
aI5
aI1
aI4
asI156
(lp15
I0
aI2
aI2
aI4
aI1
aI5
asI157
(lp16
I0
aI3
aI5
aI2
asI158
(lp17
I0
aI1
aI4
aI3
aI2
aI4
asI159
(lp18
I0
aI1
aI3
asI160
(lp19
I0
aI5
aI3
aI2
aI1
asI161
(lp20
I0
aI4
aI5
aI5
asI162
(lp21
I0
aI2
aI3
aI1
asI163
(lp22
I0
aI4
aI1
asI164
(lp23
I0
aI5
aI3
aI4
aI2
asI165
(lp24
I0
aI3
aI2
aI1
aI5
aI4
asI166
(lp25
I0
aI3
aI2
aI1
aI4
asI167
(lp26
I0
aI5
aI2
asI168
(lp27
I0
aI4
aI3
aI1
aI5
aI2
asI169
(lp28
I0
aI3
aI1
aI5
asI170
(lp29
I0
aI4
aI3
aI4
aI1
aI5
asI171
(lp30
I0
aI2
aI4
as.