(dp0
I218
(lp1
I0
aI1
asI219
(lp2
I0
aI2
aI5
asI220
(lp3
I0
aI3
aI4
aI2
asI221
(lp4
I0
aI5
asI222
(lp5
I0
aI1
asI223
(lp6
I0
aI3
aI4
aI3
asI224
(lp7
I0
aI5
aI2
asI225
(lp8
I0
aI1
aI4
aI1
asI226
(lp9
I0
aI2
aI5
asI227
(lp10
I0
aI3
aI4
aI1
asI228
(lp11
I0
aI3
asI229
(lp12
I0
aI5
asI230
(lp13
I0
aI4
asI231
(lp14
I0
aI2
asI232
(lp15
I0
aI5
aI4
asI233
(lp16
I0
aI1
asI234
(lp17
I0
aI3
aI2
aI4
asI235
(lp18
I0
aI1
aI5
asI236
(lp19
I0
aI3
aI2
aI4
asI237
(lp20
I0
aI1
aI2
aI5
asI238
(lp21
I0
aI3
asI239
(lp22
I0
aI5
asI240
(lp23
I0
aI3
asI241
(lp24
I0
aI4
asI242
(lp25
I0
aI2
aI1
asI243
(lp26
I0
aI2
aI4
aI1
asI244
(lp27
I0
aI5
aI3
aI4
asI245
(lp28
I0
aI5
asI246
(lp29
I0
aI3
aI2
asI247
(lp30
I0
aI1
aI5
aI2
as.