(lp0
(lp1
(I3751
I3543
tp2
a(I4796
I5471
tp3
aa(lp4
g2
a(I2992
I4330
tp5
a(I1106
I3522
tp6
aa(lp7
g2
a(I2287
I5547
tp8
a(I3434
I3119
tp9
ag5
aa(lp10
g2
ag6
aa(lp11
g2
ag3
aa(lp12
g2
ag8
ag9
ag8
aa(lp13
g2
ag6
ag5
aa(lp14
g2
ag3
ag9
ag3
aa(lp15
g2
ag5
ag6
aa(lp16
g2
ag8
ag9
ag3
aa(lp17
g2
ag8
aa(lp18
g2
ag6
aa(lp19
g2
ag9
aa(lp20
g2
ag5
aa(lp21
g2
ag6
ag9
aa(lp22
g2
ag3
aa(lp23
g2
ag8
ag5
ag9
aa(lp24
g2
ag3
ag6
aa(lp25
g2
ag8
ag5
ag9
aa(lp26
g2
ag3
ag5
ag6
aa(lp27
g2
ag8
aa(lp28
g2
ag6
aa(lp29
g2
ag8
aa(lp30
g2
ag9
aa(lp31
g2
ag5
ag3
aa(lp32
g2
ag5
ag9
ag3
aa(lp33
g2
ag6
ag8
ag9
aa(lp34
g2
ag6
aa(lp35
g2
ag8
ag5
aa(lp36
g2
ag3
ag6
ag5
aa.