(lp0
(lp1
(I4719
I5010
tp2
a(I1495
I3252
tp3
a(I3305
I4126
tp4
a(I4650
I3799
tp5
a(I1708
I3884
tp6
a(I2299
I4008
tp7
aa(lp8
g2
ag3
ag7
ag4
ag6
ag5
aa(lp9
g2
ag7
ag4
ag5
ag3
aa(lp10
g2
ag6
ag4
aa(lp11
g2
ag5
ag7
ag6
ag3
ag3
aa(lp12
g2
ag4
ag5
ag6
ag7
aa(lp13
g2
ag3
ag5
aa(lp14
g2
ag4
ag7
ag6
aa(lp15
g2
ag7
ag5
ag3
ag4
aa(lp16
g2
ag6
ag3
ag7
ag4
aa(lp17
g2
ag6
ag5
ag6
ag7
ag5
aa(lp18
g2
ag4
ag3
ag6
ag5
aa(lp19
g2
ag3
ag7
ag4
aa(lp20
g2
ag5
ag7
ag4
ag3
aa(lp21
g2
ag6
ag6
ag3
ag4
ag7
aa(lp22
g2
ag5
ag7
ag6
aa(lp23
g2
ag4
ag3
ag5
ag6
ag3
aa(lp24
g2
ag4
ag5
aa(lp25
g2
ag7
ag5
ag6
ag4
aa(lp26
g2
ag3
ag7
ag7
aa(lp27
g2
ag6
ag5
ag4
aa(lp28
g2
ag3
ag4
aa(lp29
g2
ag7
ag5
ag3
ag6
aa(lp30
g2
ag5
ag6
ag4
ag7
ag3
aa(lp31
g2
ag5
ag6
ag4
ag3
aa(lp32
g2
ag7
ag6
aa(lp33
g2
ag3
ag5
ag4
ag7
ag6
aa(lp34
g2
ag5
ag4
ag7
aa(lp35
g2
ag3
ag5
ag3
ag4
ag7
aa(lp36
g2
ag6
ag3
aa.