(dp0
I186
(lp1
I0
aI3
aI4
aI1
asI187
(lp2
I0
aI2
asI188
(lp3
I0
aI5
aI1
asI189
(lp4
I0
aI3
asI190
(lp5
I0
aI5
aI2
asI191
(lp6
I0
aI4
aI3
asI192
(lp7
I0
aI5
aI2
asI193
(lp8
I0
aI1
aI4
asI194
(lp9
I0
aI4
aI2
aI1
asI195
(lp10
I0
aI5
aI3
asI196
(lp11
I0
aI2
aI1
asI197
(lp12
I0
aI3
aI5
asI198
(lp13
I0
aI4
aI4
aI1
asI199
(lp14
I0
aI3
asI200
(lp15
I0
aI5
aI2
asI201
(lp16
I0
aI5
aI1
asI202
(lp17
I0
aI4
aI2
asI203
(lp18
I0
aI3
asI204
(lp19
I0
aI3
asI205
(lp20
I0
aI2
aI5
aI1
asI206
(lp21
I0
aI4
aI3
asI207
(lp22
I0
aI4
aI1
aI5
asI208
(lp23
I0
aI2
aI1
aI5
asI209
(lp24
I0
aI2
aI4
aI3
asI210
(lp25
I0
aI2
aI1
aI3
asI211
(lp26
I0
aI4
asI212
(lp27
I0
aI5
aI4
asI213
(lp28
I0
aI2
asI214
(lp29
I0
aI5
aI3
asI215
(lp30
I0
aI1
as.