(lp0
(I3387
I3978
tp1
a(I3377
I4056
tp2
a(I3488
I4003
tp3
a(I3250
I3920
tp4
a(I3120
I4033
tp5
a(I3269
I4199
tp6
a(I3197
I4143
tp7
a(I3121
I4041
tp8
a(I3244
I4115
tp9
a(I3466
I4216
tp10
a(I3145
I4008
tp11
a(I3462
I4177
tp12
a(I3282
I4293
tp13
a(I3301
I4347
tp14
a(I3153
I4170
tp15
a(I3164
I4209
tp16
a(I3437
I3965
tp17
a(I3484
I4037
tp18
a(I3389
I3965
tp19
a(I3414
I3976
tp20
a(I3197
I4045
tp21
a(I3142
I3991
tp22
a(I3364
I4311
tp23
a(I3498
I4072
tp24
a(I3147
I4081
tp25
a(I3179
I4058
tp26
a(I3164
I4061
tp27
a(I1892
I3718
tp28
a(I1610
I3861
tp29
a(I1554
I3753
tp30
a(I1936
I3899
tp31
a(I1608
I3683
tp32
a(I1896
I3817
tp33
a(I1486
I3827
tp34
a(I1743
I3860
tp35
a(I1791
I3907
tp36
a(I1640
I3826
tp37
a(I1705
I3966
tp38
a(I1657
I3904
tp39
a(I1619
I3676
tp40
a(I1552
I3784
tp41
a(I1613
I3923
tp42
a(I1793
I3969
tp43
a(I1776
I3638
tp44
a(I1639
I4083
tp45
a(I1751
I3948
tp46
a(I1859
I3908
tp47
a(I4632
I3974
tp48
a(I4703
I3829
tp49
a(I4788
I3714
tp50
a(I4748
I3842
tp51
a(I4685
I3736
tp52
a(I4638
I3938
tp53
a(I4740
I3903
tp54
a(I4588
I3660
tp55
a(I4578
I3639
tp56
a(I4644
I3820
tp57
a(I4782
I3808
tp58
a(I4809
I3741
tp59
a(I4742
I3820
tp60
a(I4777
I3656
tp61
a(I4609
I3818
tp62
a(I4802
I3948
tp63
a(I4697
I3698
tp64
a(I4491
I3716
tp65
a(I4651
I3818
tp66
a(I4800
I3920
tp67
a(I4516
I3832
tp68
a(I4590
I3940
tp69
a(I4664
I3624
tp70
a(I4831
I3764
tp71
a(I4791
I3963
tp72
a(I4736
I3653
tp73
a(I4516
I3759
tp74
a(I1645
I3232
tp75
a(I1508
I3209
tp76
a(I1419
I3403
tp77
a(I1477
I3481
tp78
a(I1523
I3374
tp79
a(I1675
I3148
tp80
a(I1541
I3260
tp81
a(I1481
I3194
tp82
a(I1532
I3055
tp83
a(I1660
I3247
tp84
a(I1588
I3041
tp85
a(I1474
I3083
tp86
a(I1685
I3297
tp87
a(I1467
I3035
tp88
a(I1652
I3110
tp89
a(I1405
I3111
tp90
a(I1657
I3335
tp91
a(I1321
I3136
tp92
a(I1480
I3259
tp93
a(I1658
I3331
tp94
a(I1404
I3077
tp95
a(I1592
I3281
tp96
a(I1546
I3127
tp97
a(I2111
I3981
tp98
a(I2529
I4124
tp99
a(I2277
I3750
tp100
a(I2418
I4154
tp101
a(I2040
I4091
tp102
a(I2274
I4260
tp103
a(I2407
I4035
tp104
a(I2136
I3863
tp105
a(I2268
I4177
tp106
a(I2135
I4008
tp107
a(I2408
I3966
tp108
a(I2126
I3941
tp109
a(I2211
I4059
tp110
a(I2303
I4240
tp111
a(I2238
I4240
tp112
a(I2303
I3736
tp113
a(I2208
I3872
tp114
a(I2407
I4052
tp115
a(I2420
I3822
tp116
a(I2159
I4224
tp117
a(I2490
I3851
tp118
a(I2346
I3923
tp119
a(I2503
I4040
tp120
a.