(lp0
(I4989
I5644
tp1
a(I4850
I5345
tp2
a(I5070
I5656
tp3
a(I4620
I5445
tp4
a(I4675
I5551
tp5
a(I4950
I5678
tp6
a(I4833
I5661
tp7
a(I4758
I5465
tp8
a(I4695
I5552
tp9
a(I4855
I5589
tp10
a(I4835
I5606
tp11
a(I4836
I5656
tp12
a(I4821
I5649
tp13
a(I4851
I5717
tp14
a(I4799
I5697
tp15
a(I4806
I5706
tp16
a(I4821
I5640
tp17
a(I4777
I5634
tp18
a(I4944
I5628
tp19
a(I4748
I5543
tp20
a(I4864
I5676
tp21
a(I4751
I5694
tp22
a(I4641
I5596
tp23
a(I4856
I5683
tp24
a(I4982
I5792
tp25
a(I4692
I5627
tp26
a(I4868
I5625
tp27
a(I4917
I5746
tp28
a(I4878
I5669
tp29
a(I5004
I5546
tp30
a(I4932
I5599
tp31
a(I4678
I5537
tp32
a(I4809
I5706
tp33
a(I4694
I5534
tp34
a(I4820
I5644
tp35
a(I4887
I5688
tp36
a(I4829
I5687
tp37
a(I4846
I5902
tp38
a(I4825
I5651
tp39
a(I4787
I5589
tp40
a(I4831
I5607
tp41
a(I4641
I5642
tp42
a(I4800
I5641
tp43
a(I4848
I5593
tp44
a(I4880
I5812
tp45
a(I4601
I5524
tp46
a(I4673
I5497
tp47
a(I4926
I5762
tp48
a(I3839
I4108
tp49
a(I3742
I4024
tp50
a(I3709
I4006
tp51
a(I3738
I3972
tp52
a(I3670
I3917
tp53
a(I3656
I3989
tp54
a(I3704
I3993
tp55
a(I3697
I4093
tp56
a(I3798
I4165
tp57
a(I3724
I3913
tp58
a(I3746
I4013
tp59
a(I3730
I4011
tp60
a(I3658
I3833
tp61
a(I3619
I4038
tp62
a(I3721
I3962
tp63
a(I3851
I3928
tp64
a(I3692
I3898
tp65
a(I3674
I4009
tp66
a(I3740
I3981
tp67
a(I3650
I4063
tp68
a(I3760
I4025
tp69
a(I3759
I4085
tp70
a(I3795
I3913
tp71
a(I3691
I3988
tp72
a(I3879
I3966
tp73
a(I3696
I4023
tp74
a(I3622
I3986
tp75
a(I3697
I4008
tp76
a(I3708
I3984
tp77
a(I3712
I3915
tp78
a(I3812
I3934
tp79
a(I3665
I4079
tp80
a(I3599
I3914
tp81
a(I2065
I3319
tp82
a(I2012
I3134
tp83
a(I2132
I3143
tp84
a(I2132
I3429
tp85
a(I1995
I3279
tp86
a(I1932
I3196
tp87
a(I2154
I3487
tp88
a(I2054
I3258
tp89
a(I2038
I3233
tp90
a(I2034
I3280
tp91
a(I1901
I3398
tp92
a(I2179
I3458
tp93
a(I2189
I3445
tp94
a(I2052
I3396
tp95
a(I1821
I3423
tp96
a(I1978
I3421
tp97
a(I2084
I3279
tp98
a(I2055
I3201
tp99
a(I1946
I3485
tp100
a(I2034
I3277
tp101
a(I2131
I3209
tp102
a(I1933
I3180
tp103
a(I1859
I3413
tp104
a(I2039
I3270
tp105
a(I1969
I3324
tp106
a(I2069
I3012
tp107
a(I1835
I3240
tp108
a(I2027
I3221
tp109
a(I2073
I3269
tp110
a(I2066
I3267
tp111
a(I3716
I3514
tp112
a(I3598
I3498
tp113
a(I3624
I3252
tp114
a(I3565
I3435
tp115
a(I3566
I3440
tp116
a(I3467
I3541
tp117
a(I3569
I3460
tp118
a(I3630
I3239
tp119
a(I3553
I3552
tp120
a(I3586
I3461
tp121
a(I3596
I3448
tp122
a(I3565
I3425
tp123
a(I3455
I3439
tp124
a(I3527
I3414
tp125
a(I3547
I3299
tp126
a(I3534
I3263
tp127
a(I3571
I3431
tp128
a(I3518
I3416
tp129
a(I3545
I3363
tp130
a(I3554
I3384
tp131
a(I3775
I3522
tp132
a(I3700
I3321
tp133
a(I3605
I3446
tp134
a(I3588
I3453
tp135
a(I3599
I3385
tp136
a(I3587
I3440
tp137
a(I3693
I3526
tp138
a(I3699
I3478
tp139
a(I3495
I3259
tp140
a(I3504
I3306
tp141
a(I3576
I3441
tp142
a(I3007
I5174
tp143
a(I2930
I4950
tp144
a(I3049
I5146
tp145
a(I2880
I5051
tp146
a(I2931
I4982
tp147
a(I2909
I5122
tp148
a(I2953
I5030
tp149
a(I2935
I5159
tp150
a(I2956
I5090
tp151
a(I3003
I5051
tp152
a(I3016
I5043
tp153
a(I3052
I5156
tp154
a(I3000
I5003
tp155
a(I3090
I5080
tp156
a(I3006
I4945
tp157
a(I2976
I5013
tp158
a(I3007
I5011
tp159
a(I2911
I5062
tp160
a(I2994
I4945
tp161
a(I3005
I4987
tp162
a(I2945
I4983
tp163
a(I3036
I5124
tp164
a(I2905
I5126
tp165
a(I3073
I5001
tp166
a(I2998
I5049
tp167
a(I3016
I5059
tp168
a(I2940
I5094
tp169
a(I2939
I5185
tp170
a(I3036
I5002
tp171
a(I2935
I5062
tp172
a.