(lp0
(I4256
I5760
tp1
a(I4239
I5732
tp2
a(I4426
I5807
tp3
a(I4276
I5906
tp4
a(I4201
I5809
tp5
a(I4253
I5809
tp6
a(I4219
I5657
tp7
a(I4279
I5796
tp8
a(I4293
I5794
tp9
a(I4316
I5758
tp10
a(I4202
I5777
tp11
a(I4226
I5869
tp12
a(I4181
I5732
tp13
a(I4301
I5738
tp14
a(I4177
I5713
tp15
a(I4231
I5812
tp16
a(I4415
I5777
tp17
a(I4186
I5826
tp18
a(I4454
I5837
tp19
a(I4350
I5646
tp20
a(I4263
I5820
tp21
a(I4237
I5813
tp22
a(I4316
I5837
tp23
a(I4255
I5995
tp24
a(I4262
I5884
tp25
a(I4296
I5769
tp26
a(I4287
I5792
tp27
a(I4494
I5748
tp28
a(I4281
I5734
tp29
a(I4283
I5797
tp30
a(I4277
I5791
tp31
a(I4306
I5757
tp32
a(I4284
I5712
tp33
a(I4339
I5696
tp34
a(I4250
I5892
tp35
a(I4267
I5767
tp36
a(I4152
I5936
tp37
a(I4305
I5781
tp38
a(I4118
I5852
tp39
a(I4279
I5796
tp40
a(I4286
I5790
tp41
a(I4415
I5848
tp42
a(I4182
I5599
tp43
a(I1327
I4679
tp44
a(I1108
I4509
tp45
a(I1133
I4801
tp46
a(I1114
I4721
tp47
a(I906
I4513
tp48
a(I1194
I4551
tp49
a(I983
I4547
tp50
a(I1162
I4815
tp51
a(I1141
I4891
tp52
a(I1152
I4681
tp53
a(I959
I4740
tp54
a(I1082
I4643
tp55
a(I1139
I4709
tp56
a(I1272
I4762
tp57
a(I1063
I4808
tp58
a(I892
I4830
tp59
a(I998
I4876
tp60
a(I1092
I4755
tp61
a(I1145
I4843
tp62
a(I1000
I4693
tp63
a(I1003
I4893
tp64
a(I1100
I4733
tp65
a(I859
I4819
tp66
a(I1076
I4783
tp67
a(I1064
I4828
tp68
a(I1105
I4737
tp69
a(I1007
I4600
tp70
a(I1179
I4647
tp71
a(I1178
I4841
tp72
a(I1021
I4790
tp73
a(I962
I4806
tp74
a(I1134
I4762
tp75
a(I981
I4736
tp76
a(I1094
I4727
tp77
a(I1105
I4637
tp78
a(I1402
I4700
tp79
a(I1163
I4759
tp80
a(I1011
I4781
tp81
a(I1071
I4798
tp82
a(I1189
I2937
tp83
a(I1262
I2979
tp84
a(I1300
I3024
tp85
a(I1265
I3040
tp86
a(I1296
I3029
tp87
a(I1295
I3099
tp88
a(I1331
I3037
tp89
a(I1131
I3075
tp90
a(I1429
I3156
tp91
a(I1352
I3094
tp92
a(I1288
I3033
tp93
a(I1292
I2977
tp94
a(I1280
I3022
tp95
a(I1291
I3053
tp96
a(I1224
I3037
tp97
a(I1117
I3047
tp98
a(I1401
I3025
tp99
a(I1316
I3074
tp100
a(I1288
I3051
tp101
a(I1366
I2846
tp102
a(I1256
I3052
tp103
a(I4985
I5085
tp104
a(I4855
I5014
tp105
a(I4830
I5010
tp106
a(I4998
I5027
tp107
a(I4987
I5111
tp108
a(I4884
I4975
tp109
a(I5101
I4989
tp110
a(I5000
I4876
tp111
a(I4964
I5055
tp112
a(I4925
I4962
tp113
a(I4861
I5154
tp114
a(I4962
I5044
tp115
a(I5058
I5092
tp116
a(I4931
I5007
tp117
a(I4964
I5069
tp118
a(I5052
I5160
tp119
a(I4946
I5114
tp120
a(I4966
I4988
tp121
a(I5053
I4884
tp122
a(I4954
I5040
tp123
a(I5077
I4964
tp124
a(I4967
I4916
tp125
a(I4934
I5115
tp126
a(I4897
I5164
tp127
a(I5046
I4991
tp128
a(I4922
I5016
tp129
a(I4911
I5003
tp130
a(I4938
I5059
tp131
a(I4958
I4987
tp132
a(I5051
I5102
tp133
a(I5066
I4844
tp134
a(I4966
I5007
tp135
a(I4887
I5098
tp136
a(I5055
I5163
tp137
a(I4975
I5032
tp138
a(I5036
I5126
tp139
a(I5124
I5046
tp140
a(I5012
I5082
tp141
a(I4989
I5026
tp142
a(I4955
I5033
tp143
a(I5089
I5043
tp144
a(I4959
I5041
tp145
a(I5000
I5092
tp146
a(I5130
I4936
tp147
a(I4916
I5030
tp148
a(I2616
I3046
tp149
a(I2645
I3071
tp150
a(I2761
I3088
tp151
a(I2749
I3168
tp152
a(I2686
I3096
tp153
a(I2622
I3056
tp154
a(I2636
I3090
tp155
a(I2679
I2949
tp156
a(I2595
I3161
tp157
a(I2414
I3251
tp158
a(I2645
I3103
tp159
a(I2860
I3159
tp160
a(I2538
I3182
tp161
a(I2616
I3093
tp162
a(I2609
I3035
tp163
a(I2618
I3158
tp164
a(I2655
I3083
tp165
a(I2820
I3008
tp166
a(I2629
I3057
tp167
a(I2673
I2963
tp168
a(I2819
I2842
tp169
a(I2640
I3089
tp170
a(I2641
I3110
tp171
a(I2774
I3212
tp172
a.