(lp0
(I4790
I5471
tp1
a(I4749
I5471
tp2
a(I4800
I5465
tp3
a(I4614
I5488
tp4
a(I4958
I5404
tp5
a(I4866
I5515
tp6
a(I4878
I5550
tp7
a(I4803
I5489
tp8
a(I4907
I5364
tp9
a(I4907
I5557
tp10
a(I4701
I5360
tp11
a(I4808
I5484
tp12
a(I4907
I5576
tp13
a(I4785
I5447
tp14
a(I4839
I5413
tp15
a(I4799
I5468
tp16
a(I4883
I5456
tp17
a(I4803
I5441
tp18
a(I4752
I5474
tp19
a(I4894
I5441
tp20
a(I4746
I5429
tp21
a(I4801
I5481
tp22
a(I4832
I5581
tp23
a(I4712
I5446
tp24
a(I4802
I5348
tp25
a(I4695
I5429
tp26
a(I4816
I5455
tp27
a(I4860
I5379
tp28
a(I4753
I5450
tp29
a(I4696
I5499
tp30
a(I4804
I5490
tp31
a(I4834
I5477
tp32
a(I4756
I5502
tp33
a(I4770
I5356
tp34
a(I4659
I5555
tp35
a(I4716
I5409
tp36
a(I4792
I5505
tp37
a(I4732
I5457
tp38
a(I4859
I5508
tp39
a(I4931
I5423
tp40
a(I4717
I5476
tp41
a(I4799
I5509
tp42
a(I4728
I5500
tp43
a(I4794
I5582
tp44
a(I4714
I5448
tp45
a(I4600
I5475
tp46
a(I3000
I4281
tp47
a(I3002
I4387
tp48
a(I2913
I4434
tp49
a(I3158
I4286
tp50
a(I3000
I4386
tp51
a(I2906
I4314
tp52
a(I2914
I4337
tp53
a(I2892
I4413
tp54
a(I2967
I4312
tp55
a(I2995
I4316
tp56
a(I2997
I4336
tp57
a(I2982
I4289
tp58
a(I2911
I4286
tp59
a(I2992
I4331
tp60
a(I3024
I4299
tp61
a(I3051
I4315
tp62
a(I2942
I4293
tp63
a(I3168
I4365
tp64
a(I3058
I4407
tp65
a(I2979
I4242
tp66
a(I2891
I4304
tp67
a(I3045
I4408
tp68
a(I2930
I4269
tp69
a(I2961
I4379
tp70
a(I3152
I4249
tp71
a(I2794
I4436
tp72
a(I2868
I4281
tp73
a(I3004
I4267
tp74
a(I3017
I4318
tp75
a(I2921
I4380
tp76
a(I2997
I4147
tp77
a(I3104
I4477
tp78
a(I2984
I4319
tp79
a(I2899
I4286
tp80
a(I3021
I4330
tp81
a(I3104
I4265
tp82
a(I2993
I4295
tp83
a(I2932
I4471
tp84
a(I2962
I4418
tp85
a(I2857
I4359
tp86
a(I2956
I4367
tp87
a(I3048
I4352
tp88
a(I2489
I5705
tp89
a(I2235
I5667
tp90
a(I2204
I5599
tp91
a(I2185
I5548
tp92
a(I2095
I5527
tp93
a(I2209
I5480
tp94
a(I2298
I5548
tp95
a(I2390
I5514
tp96
a(I2308
I5533
tp97
a(I2389
I5722
tp98
a(I2405
I5747
tp99
a(I2474
I5612
tp100
a(I2288
I5548
tp101
a(I2309
I5494
tp102
a(I2132
I5561
tp103
a(I2286
I5548
tp104
a(I2307
I5488
tp105
a(I2382
I5748
tp106
a(I2315
I5511
tp107
a(I2137
I5537
tp108
a(I2257
I5534
tp109
a(I2296
I5542
tp110
a(I2415
I5545
tp111
a(I2061
I5663
tp112
a(I2241
I5570
tp113
a(I2231
I5569
tp114
a(I2205
I5508
tp115
a(I2293
I5517
tp116
a(I2209
I5782
tp117
a(I2360
I5492
tp118
a(I2427
I5618
tp119
a(I2281
I5533
tp120
a(I2401
I5693
tp121
a(I2132
I5493
tp122
a(I2288
I5547
tp123
a(I2285
I5542
tp124
a(I2239
I5648
tp125
a(I2346
I5611
tp126
a(I2157
I5501
tp127
a(I2240
I5693
tp128
a(I2415
I5510
tp129
a(I2497
I5617
tp130
a(I2289
I5549
tp131
a(I2198
I5652
tp132
a(I3439
I2959
tp133
a(I3401
I3119
tp134
a(I3384
I3153
tp135
a(I3376
I3084
tp136
a(I3377
I3061
tp137
a(I3536
I2941
tp138
a(I3481
I3236
tp139
a(I3387
I3115
tp140
a(I3474
I3129
tp141
a(I3351
I2988
tp142
a(I3474
I3193
tp143
a(I3401
I3040
tp144
a(I3355
I3021
tp145
a(I3498
I3180
tp146
a(I3544
I3086
tp147
a(I3399
I3054
tp148
a(I3516
I3099
tp149
a(I3479
I3131
tp150
a(I3425
I3126
tp151
a(I3555
I3099
tp152
a(I3499
I3266
tp153
a(I3494
I3003
tp154
a(I3517
I3256
tp155
a(I3480
I3117
tp156
a(I3412
I3133
tp157
a(I3434
I3120
tp158
a(I3429
I3117
tp159
a(I3314
I3068
tp160
a(I3422
I3097
tp161
a(I3443
I3189
tp162
a(I3566
I3033
tp163
a(I3484
I3064
tp164
a(I1162
I3623
tp165
a(I1377
I3608
tp166
a(I1107
I3519
tp167
a(I898
I3524
tp168
a(I1199
I3386
tp169
a(I1007
I3511
tp170
a(I1100
I3551
tp171
a(I1085
I3542
tp172
a(I1222
I3579
tp173
a(I1322
I3469
tp174
a(I1143
I3530
tp175
a(I1110
I3620
tp176
a(I927
I3505
tp177
a(I1098
I3521
tp178
a(I1190
I3593
tp179
a(I1076
I3537
tp180
a(I1109
I3523
tp181
a(I1099
I3533
tp182
a(I1061
I3425
tp183
a(I1100
I3515
tp184
a(I1086
I3515
tp185
a(I1080
I3539
tp186
a(I1315
I3469
tp187
a(I1181
I3410
tp188
a(I1110
I3519
tp189
a(I1091
I3525
tp190
a(I1078
I3547
tp191
a(I1323
I3448
tp192
a(I1200
I3773
tp193
a(I1109
I3528
tp194
a(I1129
I3517
tp195
a(I1288
I3437
tp196
a(I1096
I3501
tp197
a(I1169
I3527
tp198
a(I1251
I3617
tp199
a(I1072
I3528
tp200
a(I940
I3435
tp201
a(I1242
I3607
tp202
a(I1037
I3565
tp203
a.