(lp0
(I3305
I4126
tp1
a(I3305
I4126
tp2
a(I3305
I4126
tp3
a(I3305
I4126
tp4
a(I1708
I3884
tp5
a(I1708
I3884
tp6
a(I1708
I3884
tp7
a(I4650
I3799
tp8
a(I4650
I3799
tp9
a(I4650
I3799
tp10
a(I4650
I3799
tp11
a(I1495
I3252
tp12
a(I1495
I3252
tp13
a(I2299
I4008
tp14
a(I2299
I4008
tp15
a(I2299
I4008
tp16
a.